
test_spi.elf:     file format elf32-littlearm

Sections:
Idx Name          Size      VMA       LMA       File off  Algn
  0 .text         00009f94  00000000  00000000  00008000  2**3
                  CONTENTS, ALLOC, LOAD, READONLY, CODE
  1 .relocate     000000ac  20000000  00009f94  00018000  2**2
                  CONTENTS, ALLOC, LOAD, DATA
  2 .bss          0000027c  200000ac  0000a040  000180ac  2**2
                  ALLOC
  3 .stack        00002000  20000328  0000a2bc  000180ac  2**0
                  ALLOC
  4 .ARM.attributes 00000028  00000000  00000000  000180ac  2**0
                  CONTENTS, READONLY
  5 .comment      0000005b  00000000  00000000  000180d4  2**0
                  CONTENTS, READONLY
  6 .debug_info   00043126  00000000  00000000  0001812f  2**0
                  CONTENTS, READONLY, DEBUGGING
  7 .debug_abbrev 000056c4  00000000  00000000  0005b255  2**0
                  CONTENTS, READONLY, DEBUGGING
  8 .debug_loc    0000b0e9  00000000  00000000  00060919  2**0
                  CONTENTS, READONLY, DEBUGGING
  9 .debug_aranges 00000848  00000000  00000000  0006ba02  2**0
                  CONTENTS, READONLY, DEBUGGING
 10 .debug_ranges 00000db0  00000000  00000000  0006c24a  2**0
                  CONTENTS, READONLY, DEBUGGING
 11 .debug_macro  0001cf1d  00000000  00000000  0006cffa  2**0
                  CONTENTS, READONLY, DEBUGGING
 12 .debug_line   00016bbe  00000000  00000000  00089f17  2**0
                  CONTENTS, READONLY, DEBUGGING
 13 .debug_str    0008711c  00000000  00000000  000a0ad5  2**0
                  CONTENTS, READONLY, DEBUGGING
 14 .debug_frame  000024a4  00000000  00000000  00127bf4  2**2
                  CONTENTS, READONLY, DEBUGGING

Disassembly of section .text:

00000000 <_sfixed>:
       0:	20002328 	.word	0x20002328
       4:	0000372d 	.word	0x0000372d
       8:	00003729 	.word	0x00003729
       c:	00003729 	.word	0x00003729
	...
      2c:	00003729 	.word	0x00003729
	...
      38:	00003729 	.word	0x00003729
      3c:	00003729 	.word	0x00003729
      40:	00003729 	.word	0x00003729
      44:	00003729 	.word	0x00003729
      48:	00003729 	.word	0x00003729
      4c:	00003729 	.word	0x00003729
      50:	00003729 	.word	0x00003729
      54:	00003729 	.word	0x00003729
      58:	00003729 	.word	0x00003729
      5c:	00003729 	.word	0x00003729
      60:	00003729 	.word	0x00003729
      64:	00002231 	.word	0x00002231
      68:	00002241 	.word	0x00002241
      6c:	00002251 	.word	0x00002251
      70:	00002261 	.word	0x00002261
	...
      7c:	00003729 	.word	0x00003729
      80:	00003729 	.word	0x00003729
      84:	00003729 	.word	0x00003729
      88:	000031f1 	.word	0x000031f1
      8c:	00003201 	.word	0x00003201
      90:	00003211 	.word	0x00003211
	...
      9c:	00001505 	.word	0x00001505
      a0:	00003729 	.word	0x00003729
      a4:	00003729 	.word	0x00003729
      a8:	00003729 	.word	0x00003729
      ac:	00003729 	.word	0x00003729

000000b0 <__do_global_dtors_aux>:
      b0:	b510      	push	{r4, lr}
      b2:	4c06      	ldr	r4, [pc, #24]	; (cc <__do_global_dtors_aux+0x1c>)
      b4:	7823      	ldrb	r3, [r4, #0]
      b6:	2b00      	cmp	r3, #0
      b8:	d107      	bne.n	ca <__do_global_dtors_aux+0x1a>
      ba:	4b05      	ldr	r3, [pc, #20]	; (d0 <__do_global_dtors_aux+0x20>)
      bc:	2b00      	cmp	r3, #0
      be:	d002      	beq.n	c6 <__do_global_dtors_aux+0x16>
      c0:	4804      	ldr	r0, [pc, #16]	; (d4 <__do_global_dtors_aux+0x24>)
      c2:	e000      	b.n	c6 <__do_global_dtors_aux+0x16>
      c4:	bf00      	nop
      c6:	2301      	movs	r3, #1
      c8:	7023      	strb	r3, [r4, #0]
      ca:	bd10      	pop	{r4, pc}
      cc:	200000ac 	.word	0x200000ac
      d0:	00000000 	.word	0x00000000
      d4:	00009f94 	.word	0x00009f94

000000d8 <frame_dummy>:
      d8:	b508      	push	{r3, lr}
      da:	4b08      	ldr	r3, [pc, #32]	; (fc <frame_dummy+0x24>)
      dc:	2b00      	cmp	r3, #0
      de:	d003      	beq.n	e8 <frame_dummy+0x10>
      e0:	4807      	ldr	r0, [pc, #28]	; (100 <frame_dummy+0x28>)
      e2:	4908      	ldr	r1, [pc, #32]	; (104 <frame_dummy+0x2c>)
      e4:	e000      	b.n	e8 <frame_dummy+0x10>
      e6:	bf00      	nop
      e8:	4807      	ldr	r0, [pc, #28]	; (108 <frame_dummy+0x30>)
      ea:	6803      	ldr	r3, [r0, #0]
      ec:	2b00      	cmp	r3, #0
      ee:	d003      	beq.n	f8 <frame_dummy+0x20>
      f0:	4b06      	ldr	r3, [pc, #24]	; (10c <frame_dummy+0x34>)
      f2:	2b00      	cmp	r3, #0
      f4:	d000      	beq.n	f8 <frame_dummy+0x20>
      f6:	4798      	blx	r3
      f8:	bd08      	pop	{r3, pc}
      fa:	46c0      	nop			; (mov r8, r8)
      fc:	00000000 	.word	0x00000000
     100:	00009f94 	.word	0x00009f94
     104:	200000b0 	.word	0x200000b0
     108:	00009f94 	.word	0x00009f94
     10c:	00000000 	.word	0x00000000

00000110 <recalculate_accelerometer_values>:
//Include glue file
#include "platform.h"

//Do the float math reading from raw values
void recalculate_accelerometer_values(void)
{
     110:	b5f0      	push	{r4, r5, r6, r7, lr}
     112:	465f      	mov	r7, fp
     114:	4656      	mov	r6, sl
     116:	464d      	mov	r5, r9
     118:	4644      	mov	r4, r8
     11a:	b4f0      	push	{r4, r5, r6, r7}
     11c:	b085      	sub	sp, #20
	accelerometer.scaled_gforce.x	= adc_to_g_force(accelerometer.raw_values.x, accelerometer.x_zero_g_point, accelerometer.x_volt_per_one_g);
     11e:	4958      	ldr	r1, [pc, #352]	; (280 <recalculate_accelerometer_values+0x170>)
     120:	4688      	mov	r8, r1
     122:	694c      	ldr	r4, [r1, #20]
     124:	6a0f      	ldr	r7, [r1, #32]
inline float	adc_to_g_force(uint16_t adc_value, float zero_point, float volt_per_g)
{
	//lets see, what to do here
	
	//Convert to voltage
	float volt = adc_to_volt(adc_value);
     126:	8808      	ldrh	r0, [r1, #0]
     128:	4e56      	ldr	r6, [pc, #344]	; (284 <recalculate_accelerometer_values+0x174>)
     12a:	47b0      	blx	r6
	
	//zero reading
	volt -= zero_point;
     12c:	4d56      	ldr	r5, [pc, #344]	; (288 <recalculate_accelerometer_values+0x178>)
     12e:	1c21      	adds	r1, r4, #0
     130:	47a8      	blx	r5
	
	
	//There is somewhere between 0.3 and 0.306 V per G
	//Divide out reading
	return  volt /volt_per_g;
     132:	4c56      	ldr	r4, [pc, #344]	; (28c <recalculate_accelerometer_values+0x17c>)
     134:	1c39      	adds	r1, r7, #0
     136:	47a0      	blx	r4
#include "platform.h"

//Do the float math reading from raw values
void recalculate_accelerometer_values(void)
{
	accelerometer.scaled_gforce.x	= adc_to_g_force(accelerometer.raw_values.x, accelerometer.x_zero_g_point, accelerometer.x_volt_per_one_g);
     138:	4641      	mov	r1, r8
     13a:	6088      	str	r0, [r1, #8]
	accelerometer.scaled_gforce.y	= adc_to_g_force(accelerometer.raw_values.y, accelerometer.y_zero_g_point, accelerometer.y_volt_per_one_g);
     13c:	698b      	ldr	r3, [r1, #24]
     13e:	4699      	mov	r9, r3
     140:	6a4f      	ldr	r7, [r1, #36]	; 0x24
inline float	adc_to_g_force(uint16_t adc_value, float zero_point, float volt_per_g)
{
	//lets see, what to do here
	
	//Convert to voltage
	float volt = adc_to_volt(adc_value);
     142:	8848      	ldrh	r0, [r1, #2]
     144:	47b0      	blx	r6
	
	//zero reading
	volt -= zero_point;
     146:	4649      	mov	r1, r9
     148:	47a8      	blx	r5
	
	
	//There is somewhere between 0.3 and 0.306 V per G
	//Divide out reading
	return  volt /volt_per_g;
     14a:	1c39      	adds	r1, r7, #0
     14c:	47a0      	blx	r4

//Do the float math reading from raw values
void recalculate_accelerometer_values(void)
{
	accelerometer.scaled_gforce.x	= adc_to_g_force(accelerometer.raw_values.x, accelerometer.x_zero_g_point, accelerometer.x_volt_per_one_g);
	accelerometer.scaled_gforce.y	= adc_to_g_force(accelerometer.raw_values.y, accelerometer.y_zero_g_point, accelerometer.y_volt_per_one_g);
     14e:	4641      	mov	r1, r8
     150:	60c8      	str	r0, [r1, #12]
	accelerometer.scaled_gforce.z	= adc_to_g_force(accelerometer.raw_values.z, accelerometer.z_zero_g_point, accelerometer.z_volt_per_one_g);
     152:	69cb      	ldr	r3, [r1, #28]
     154:	4699      	mov	r9, r3
     156:	6a8f      	ldr	r7, [r1, #40]	; 0x28
inline float	adc_to_g_force(uint16_t adc_value, float zero_point, float volt_per_g)
{
	//lets see, what to do here
	
	//Convert to voltage
	float volt = adc_to_volt(adc_value);
     158:	8888      	ldrh	r0, [r1, #4]
     15a:	47b0      	blx	r6
	
	//zero reading
	volt -= zero_point;
     15c:	4649      	mov	r1, r9
     15e:	47a8      	blx	r5
	
	
	//There is somewhere between 0.3 and 0.306 V per G
	//Divide out reading
	return  volt /volt_per_g;
     160:	1c39      	adds	r1, r7, #0
     162:	47a0      	blx	r4
     164:	1c04      	adds	r4, r0, #0
//Do the float math reading from raw values
void recalculate_accelerometer_values(void)
{
	accelerometer.scaled_gforce.x	= adc_to_g_force(accelerometer.raw_values.x, accelerometer.x_zero_g_point, accelerometer.x_volt_per_one_g);
	accelerometer.scaled_gforce.y	= adc_to_g_force(accelerometer.raw_values.y, accelerometer.y_zero_g_point, accelerometer.y_volt_per_one_g);
	accelerometer.scaled_gforce.z	= adc_to_g_force(accelerometer.raw_values.z, accelerometer.z_zero_g_point, accelerometer.z_volt_per_one_g);
     166:	4641      	mov	r1, r8
     168:	6108      	str	r0, [r1, #16]
	//Also add angle
	accelerometer.angle_x = atan( accelerometer.scaled_gforce.y / sqrt( pow(accelerometer.scaled_gforce.x,2) + pow(accelerometer.scaled_gforce.z,2)  ) )* 180.0 / PI;
     16a:	4b49      	ldr	r3, [pc, #292]	; (290 <recalculate_accelerometer_values+0x180>)
     16c:	469a      	mov	sl, r3
     16e:	68c8      	ldr	r0, [r1, #12]
     170:	4798      	blx	r3
     172:	9000      	str	r0, [sp, #0]
     174:	9101      	str	r1, [sp, #4]
     176:	4641      	mov	r1, r8
     178:	6888      	ldr	r0, [r1, #8]
     17a:	47d0      	blx	sl
     17c:	1c06      	adds	r6, r0, #0
     17e:	1c0f      	adds	r7, r1, #0
     180:	1c20      	adds	r0, r4, #0
     182:	47d0      	blx	sl
     184:	1c04      	adds	r4, r0, #0
     186:	1c0d      	adds	r5, r1, #0
     188:	4b42      	ldr	r3, [pc, #264]	; (294 <recalculate_accelerometer_values+0x184>)
     18a:	4699      	mov	r9, r3
     18c:	1c22      	adds	r2, r4, #0
     18e:	1c2b      	adds	r3, r5, #0
     190:	47c8      	blx	r9
     192:	9002      	str	r0, [sp, #8]
     194:	9103      	str	r1, [sp, #12]
     196:	4940      	ldr	r1, [pc, #256]	; (298 <recalculate_accelerometer_values+0x188>)
     198:	468b      	mov	fp, r1
     19a:	1c20      	adds	r0, r4, #0
     19c:	1c29      	adds	r1, r5, #0
     19e:	1c22      	adds	r2, r4, #0
     1a0:	1c2b      	adds	r3, r5, #0
     1a2:	47c8      	blx	r9
     1a4:	1c04      	adds	r4, r0, #0
     1a6:	1c0d      	adds	r5, r1, #0
     1a8:	1c30      	adds	r0, r6, #0
     1aa:	1c39      	adds	r1, r7, #0
     1ac:	1c32      	adds	r2, r6, #0
     1ae:	1c3b      	adds	r3, r7, #0
     1b0:	47c8      	blx	r9
     1b2:	1c02      	adds	r2, r0, #0
     1b4:	1c0b      	adds	r3, r1, #0
     1b6:	1c20      	adds	r0, r4, #0
     1b8:	1c29      	adds	r1, r5, #0
     1ba:	47d8      	blx	fp
     1bc:	4c37      	ldr	r4, [pc, #220]	; (29c <recalculate_accelerometer_values+0x18c>)
     1be:	47a0      	blx	r4
     1c0:	1c02      	adds	r2, r0, #0
     1c2:	1c0b      	adds	r3, r1, #0
     1c4:	9800      	ldr	r0, [sp, #0]
     1c6:	9901      	ldr	r1, [sp, #4]
     1c8:	4c35      	ldr	r4, [pc, #212]	; (2a0 <recalculate_accelerometer_values+0x190>)
     1ca:	47a0      	blx	r4
     1cc:	4c35      	ldr	r4, [pc, #212]	; (2a4 <recalculate_accelerometer_values+0x194>)
     1ce:	47a0      	blx	r4
     1d0:	4b28      	ldr	r3, [pc, #160]	; (274 <recalculate_accelerometer_values+0x164>)
     1d2:	4a27      	ldr	r2, [pc, #156]	; (270 <recalculate_accelerometer_values+0x160>)
     1d4:	47c8      	blx	r9
     1d6:	4a28      	ldr	r2, [pc, #160]	; (278 <recalculate_accelerometer_values+0x168>)
     1d8:	4b28      	ldr	r3, [pc, #160]	; (27c <recalculate_accelerometer_values+0x16c>)
     1da:	4c31      	ldr	r4, [pc, #196]	; (2a0 <recalculate_accelerometer_values+0x190>)
     1dc:	47a0      	blx	r4
     1de:	4c32      	ldr	r4, [pc, #200]	; (2a8 <recalculate_accelerometer_values+0x198>)
     1e0:	47a0      	blx	r4
     1e2:	4641      	mov	r1, r8
     1e4:	62c8      	str	r0, [r1, #44]	; 0x2c
	accelerometer.angle_y = atan( accelerometer.scaled_gforce.x / sqrt( pow(accelerometer.scaled_gforce.y,2) + pow(accelerometer.scaled_gforce.z,2)  ) )* 180.0 / PI;
     1e6:	6888      	ldr	r0, [r1, #8]
     1e8:	47d0      	blx	sl
     1ea:	9000      	str	r0, [sp, #0]
     1ec:	9101      	str	r1, [sp, #4]
     1ee:	4643      	mov	r3, r8
     1f0:	68d8      	ldr	r0, [r3, #12]
     1f2:	47d0      	blx	sl
     1f4:	1c06      	adds	r6, r0, #0
     1f6:	1c0f      	adds	r7, r1, #0
     1f8:	4644      	mov	r4, r8
     1fa:	6920      	ldr	r0, [r4, #16]
     1fc:	47d0      	blx	sl
     1fe:	1c04      	adds	r4, r0, #0
     200:	1c0d      	adds	r5, r1, #0
     202:	1c30      	adds	r0, r6, #0
     204:	1c39      	adds	r1, r7, #0
     206:	1c32      	adds	r2, r6, #0
     208:	1c3b      	adds	r3, r7, #0
     20a:	47c8      	blx	r9
     20c:	9002      	str	r0, [sp, #8]
     20e:	9103      	str	r1, [sp, #12]
     210:	1c30      	adds	r0, r6, #0
     212:	1c39      	adds	r1, r7, #0
     214:	1c32      	adds	r2, r6, #0
     216:	1c3b      	adds	r3, r7, #0
     218:	47c8      	blx	r9
     21a:	1c06      	adds	r6, r0, #0
     21c:	1c0f      	adds	r7, r1, #0
     21e:	1c20      	adds	r0, r4, #0
     220:	1c29      	adds	r1, r5, #0
     222:	1c22      	adds	r2, r4, #0
     224:	1c2b      	adds	r3, r5, #0
     226:	47c8      	blx	r9
     228:	1c02      	adds	r2, r0, #0
     22a:	1c0b      	adds	r3, r1, #0
     22c:	1c30      	adds	r0, r6, #0
     22e:	1c39      	adds	r1, r7, #0
     230:	47d8      	blx	fp
     232:	4c1a      	ldr	r4, [pc, #104]	; (29c <recalculate_accelerometer_values+0x18c>)
     234:	47a0      	blx	r4
     236:	1c02      	adds	r2, r0, #0
     238:	1c0b      	adds	r3, r1, #0
     23a:	9800      	ldr	r0, [sp, #0]
     23c:	9901      	ldr	r1, [sp, #4]
     23e:	4c18      	ldr	r4, [pc, #96]	; (2a0 <recalculate_accelerometer_values+0x190>)
     240:	47a0      	blx	r4
     242:	4c18      	ldr	r4, [pc, #96]	; (2a4 <recalculate_accelerometer_values+0x194>)
     244:	47a0      	blx	r4
     246:	4b0b      	ldr	r3, [pc, #44]	; (274 <recalculate_accelerometer_values+0x164>)
     248:	4a09      	ldr	r2, [pc, #36]	; (270 <recalculate_accelerometer_values+0x160>)
     24a:	47c8      	blx	r9
     24c:	4a0a      	ldr	r2, [pc, #40]	; (278 <recalculate_accelerometer_values+0x168>)
     24e:	4b0b      	ldr	r3, [pc, #44]	; (27c <recalculate_accelerometer_values+0x16c>)
     250:	4c13      	ldr	r4, [pc, #76]	; (2a0 <recalculate_accelerometer_values+0x190>)
     252:	47a0      	blx	r4
     254:	4c14      	ldr	r4, [pc, #80]	; (2a8 <recalculate_accelerometer_values+0x198>)
     256:	47a0      	blx	r4
     258:	4641      	mov	r1, r8
     25a:	6308      	str	r0, [r1, #48]	; 0x30
	
}
     25c:	b005      	add	sp, #20
     25e:	bc3c      	pop	{r2, r3, r4, r5}
     260:	4690      	mov	r8, r2
     262:	4699      	mov	r9, r3
     264:	46a2      	mov	sl, r4
     266:	46ab      	mov	fp, r5
     268:	bdf0      	pop	{r4, r5, r6, r7, pc}
     26a:	46c0      	nop			; (mov r8, r8)
     26c:	46c0      	nop			; (mov r8, r8)
     26e:	46c0      	nop			; (mov r8, r8)
     270:	00000000 	.word	0x00000000
     274:	40668000 	.word	0x40668000
     278:	60000000 	.word	0x60000000
     27c:	400921fb 	.word	0x400921fb
     280:	200001f0 	.word	0x200001f0
     284:	00000641 	.word	0x00000641
     288:	000074f5 	.word	0x000074f5
     28c:	00006ed9 	.word	0x00006ed9
     290:	00009565 	.word	0x00009565
     294:	00008891 	.word	0x00008891
     298:	00007979 	.word	0x00007979
     29c:	00003e51 	.word	0x00003e51
     2a0:	00007fbd 	.word	0x00007fbd
     2a4:	00003af9 	.word	0x00003af9
     2a8:	00009609 	.word	0x00009609
     2ac:	46c0      	nop			; (mov r8, r8)
     2ae:	46c0      	nop			; (mov r8, r8)

000002b0 <calibrate_accelerometer>:

//Generic template for calibrating accelerometer
//TODO: Include support for generic input and output
 void calibrate_accelerometer(ADXL_335_t *calibrate_me, const button_lib_t *wait_button)
{
     2b0:	b5f0      	push	{r4, r5, r6, r7, lr}
     2b2:	465f      	mov	r7, fp
     2b4:	4656      	mov	r6, sl
     2b6:	464d      	mov	r5, r9
     2b8:	4644      	mov	r4, r8
     2ba:	b4f0      	push	{r4, r5, r6, r7}
     2bc:	b09d      	sub	sp, #116	; 0x74
     2be:	1c06      	adds	r6, r0, #0
     2c0:	4688      	mov	r8, r1
	//Give shout out
	printf("\n\rHello and welcome to the generic acccelerometer calibration routine!\n\r");
     2c2:	4846      	ldr	r0, [pc, #280]	; (3dc <calibrate_accelerometer+0x12c>)
     2c4:	4f46      	ldr	r7, [pc, #280]	; (3e0 <calibrate_accelerometer+0x130>)
     2c6:	47b8      	blx	r7
	
	//Update sseg for headless calibration
	set_seg_disp_num(9999);
     2c8:	4846      	ldr	r0, [pc, #280]	; (3e4 <calibrate_accelerometer+0x134>)
     2ca:	4b47      	ldr	r3, [pc, #284]	; (3e8 <calibrate_accelerometer+0x138>)
     2cc:	4798      	blx	r3
	wait_for_button_press(wait_button);
     2ce:	4640      	mov	r0, r8
     2d0:	4d46      	ldr	r5, [pc, #280]	; (3ec <calibrate_accelerometer+0x13c>)
     2d2:	47a8      	blx	r5
	float x_one_g, y_one_g, z_one_g; 
	
	//Get values for first axis, also tell user what to do
	//Using uart for now
	//X
	printf("We will begin with the X axis, please place the sensor flat with X pointing up.\n\r");	
     2d4:	4846      	ldr	r0, [pc, #280]	; (3f0 <calibrate_accelerometer+0x140>)
     2d6:	47b8      	blx	r7
	
	//set_disp_led_color(LED_GREEN);
	wait_for_x_msg_platform();
     2d8:	2000      	movs	r0, #0
     2da:	4b46      	ldr	r3, [pc, #280]	; (3f4 <calibrate_accelerometer+0x144>)
     2dc:	469b      	mov	fp, r3
     2de:	4798      	blx	r3
	wait_for_button_press(wait_button);
     2e0:	4640      	mov	r0, r8
     2e2:	47a8      	blx	r5

	//Save values for zero points
	calibrate_me->y_zero_g_point = adc_to_volt(calibrate_me->raw_values.y);
     2e4:	8870      	ldrh	r0, [r6, #2]
     2e6:	4c44      	ldr	r4, [pc, #272]	; (3f8 <calibrate_accelerometer+0x148>)
     2e8:	47a0      	blx	r4
     2ea:	61b0      	str	r0, [r6, #24]
	calibrate_me->z_zero_g_point = adc_to_volt(calibrate_me->raw_values.z);
     2ec:	88b0      	ldrh	r0, [r6, #4]
     2ee:	47a0      	blx	r4
     2f0:	61f0      	str	r0, [r6, #28]
	
	//Save value for one G
	x_one_g = adc_to_volt(calibrate_me->raw_values.x);
     2f2:	8830      	ldrh	r0, [r6, #0]
     2f4:	47a0      	blx	r4
     2f6:	900a      	str	r0, [sp, #40]	; 0x28
	
	
	//Y
	printf("Now please place the sensor flat with y pointing up.\n\r");
     2f8:	4840      	ldr	r0, [pc, #256]	; (3fc <calibrate_accelerometer+0x14c>)
     2fa:	47b8      	blx	r7
	
	//set_disp_led_color(LED_YELLOW);	
	wait_for_y_msg_platform();
     2fc:	2004      	movs	r0, #4
     2fe:	47d8      	blx	fp
	wait_for_button_press(wait_button);
     300:	4640      	mov	r0, r8
     302:	47a8      	blx	r5
	
	//Save values for zero points
	calibrate_me->x_zero_g_point = adc_to_volt(calibrate_me->raw_values.x);
     304:	8830      	ldrh	r0, [r6, #0]
     306:	47a0      	blx	r4
     308:	6170      	str	r0, [r6, #20]
	calibrate_me->z_zero_g_point = (adc_to_volt(calibrate_me->raw_values.z) + calibrate_me->z_zero_g_point) / 2;	//Select Z for using average for 0G
     30a:	88b0      	ldrh	r0, [r6, #4]
     30c:	47a0      	blx	r4
     30e:	4b3c      	ldr	r3, [pc, #240]	; (400 <calibrate_accelerometer+0x150>)
     310:	469a      	mov	sl, r3
     312:	69f1      	ldr	r1, [r6, #28]
     314:	4798      	blx	r3
     316:	4b3b      	ldr	r3, [pc, #236]	; (404 <calibrate_accelerometer+0x154>)
     318:	4699      	mov	r9, r3
     31a:	21fc      	movs	r1, #252	; 0xfc
     31c:	0589      	lsls	r1, r1, #22
     31e:	4798      	blx	r3
     320:	61f0      	str	r0, [r6, #28]
	
	//Save value for one G
	y_one_g = adc_to_volt(calibrate_me->raw_values.y);
     322:	8870      	ldrh	r0, [r6, #2]
     324:	47a0      	blx	r4
     326:	900b      	str	r0, [sp, #44]	; 0x2c
		
	//Z
	printf("And lastly please place the sensor flat with Z pointing up.\n\r");
     328:	4837      	ldr	r0, [pc, #220]	; (408 <calibrate_accelerometer+0x158>)
     32a:	47b8      	blx	r7
	
//	set_disp_led_color(LED_RED);	
	wait_for_z_msg_platform();
     32c:	2001      	movs	r0, #1
     32e:	47d8      	blx	fp
	wait_for_button_press(wait_button);
     330:	4640      	mov	r0, r8
     332:	47a8      	blx	r5
	
	//Save values for zero points
	calibrate_me->x_zero_g_point = (adc_to_volt(calibrate_me->raw_values.x) + calibrate_me->x_zero_g_point) / 2;
     334:	8830      	ldrh	r0, [r6, #0]
     336:	47a0      	blx	r4
     338:	6971      	ldr	r1, [r6, #20]
     33a:	47d0      	blx	sl
     33c:	21fc      	movs	r1, #252	; 0xfc
     33e:	0589      	lsls	r1, r1, #22
     340:	47c8      	blx	r9
     342:	6170      	str	r0, [r6, #20]
	calibrate_me->y_zero_g_point = (adc_to_volt(calibrate_me->raw_values.y) + calibrate_me->y_zero_g_point) / 2;
     344:	8870      	ldrh	r0, [r6, #2]
     346:	47a0      	blx	r4
     348:	69b1      	ldr	r1, [r6, #24]
     34a:	47d0      	blx	sl
     34c:	21fc      	movs	r1, #252	; 0xfc
     34e:	0589      	lsls	r1, r1, #22
     350:	47c8      	blx	r9
     352:	61b0      	str	r0, [r6, #24]
	
	//Save value for one G
	z_one_g = adc_to_volt(calibrate_me->raw_values.z);
     354:	88b0      	ldrh	r0, [r6, #4]
     356:	47a0      	blx	r4
     358:	1c05      	adds	r5, r0, #0
	
	//Now, calculate and save calibration
	calibrate_me->x_volt_per_one_g = x_one_g - calibrate_me->x_zero_g_point;
     35a:	4c2c      	ldr	r4, [pc, #176]	; (40c <calibrate_accelerometer+0x15c>)
     35c:	980a      	ldr	r0, [sp, #40]	; 0x28
     35e:	6971      	ldr	r1, [r6, #20]
     360:	47a0      	blx	r4
     362:	6230      	str	r0, [r6, #32]
	calibrate_me->y_volt_per_one_g = y_one_g - calibrate_me->y_zero_g_point;
     364:	980b      	ldr	r0, [sp, #44]	; 0x2c
     366:	69b1      	ldr	r1, [r6, #24]
     368:	47a0      	blx	r4
     36a:	6270      	str	r0, [r6, #36]	; 0x24
	calibrate_me->z_volt_per_one_g = z_one_g - calibrate_me->z_zero_g_point;
     36c:	1c28      	adds	r0, r5, #0
     36e:	69f1      	ldr	r1, [r6, #28]
     370:	47a0      	blx	r4
     372:	62b0      	str	r0, [r6, #40]	; 0x28
	//Save data into eeprom
	uint8_t page_data[EEPROM_PAGE_SIZE];
	
	//Set calibration flag
	uint8_t is_calibrated = 0b10101010;
	page_data[0] = is_calibrated;
     374:	ac0d      	add	r4, sp, #52	; 0x34
     376:	23aa      	movs	r3, #170	; 0xaa
     378:	7023      	strb	r3, [r4, #0]
	
	*(ADXL_335_t*)&page_data[1] = *calibrate_me;
     37a:	4668      	mov	r0, sp
     37c:	3035      	adds	r0, #53	; 0x35
     37e:	1c31      	adds	r1, r6, #0
     380:	2234      	movs	r2, #52	; 0x34
     382:	4b23      	ldr	r3, [pc, #140]	; (410 <calibrate_accelerometer+0x160>)
     384:	4798      	blx	r3
			
	eeprom_emulator_write_page(0, page_data);
     386:	2000      	movs	r0, #0
     388:	1c21      	adds	r1, r4, #0
     38a:	4b22      	ldr	r3, [pc, #136]	; (414 <calibrate_accelerometer+0x164>)
     38c:	4798      	blx	r3
	eeprom_emulator_commit_page_buffer();
     38e:	4b22      	ldr	r3, [pc, #136]	; (418 <calibrate_accelerometer+0x168>)
     390:	4798      	blx	r3
	
	//Done!
	printf("Sensor calibrated! X 0G: %.3f 1G: %.3f  Y 0G: %.3f 1G: %.3f  Z 0G: %.3f 1G: %.3f \n\r",
     392:	4b22      	ldr	r3, [pc, #136]	; (41c <calibrate_accelerometer+0x16c>)
     394:	4698      	mov	r8, r3
     396:	6970      	ldr	r0, [r6, #20]
     398:	4798      	blx	r3
     39a:	1c04      	adds	r4, r0, #0
     39c:	1c0d      	adds	r5, r1, #0
     39e:	6a30      	ldr	r0, [r6, #32]
     3a0:	47c0      	blx	r8
     3a2:	9000      	str	r0, [sp, #0]
     3a4:	9101      	str	r1, [sp, #4]
     3a6:	69b0      	ldr	r0, [r6, #24]
     3a8:	47c0      	blx	r8
     3aa:	9002      	str	r0, [sp, #8]
     3ac:	9103      	str	r1, [sp, #12]
     3ae:	6a70      	ldr	r0, [r6, #36]	; 0x24
     3b0:	47c0      	blx	r8
     3b2:	9004      	str	r0, [sp, #16]
     3b4:	9105      	str	r1, [sp, #20]
     3b6:	69f0      	ldr	r0, [r6, #28]
     3b8:	47c0      	blx	r8
     3ba:	9006      	str	r0, [sp, #24]
     3bc:	9107      	str	r1, [sp, #28]
     3be:	6ab0      	ldr	r0, [r6, #40]	; 0x28
     3c0:	47c0      	blx	r8
     3c2:	9008      	str	r0, [sp, #32]
     3c4:	9109      	str	r1, [sp, #36]	; 0x24
     3c6:	4816      	ldr	r0, [pc, #88]	; (420 <calibrate_accelerometer+0x170>)
     3c8:	1c22      	adds	r2, r4, #0
     3ca:	1c2b      	adds	r3, r5, #0
     3cc:	47b8      	blx	r7
	calibrate_me->y_zero_g_point, calibrate_me->y_volt_per_one_g, 
	calibrate_me->z_zero_g_point, calibrate_me->z_volt_per_one_g);
	 
// 	set_disp_led_color(LED_WHITE);
// 	wait_for_button_press(wait_button);
}
     3ce:	b01d      	add	sp, #116	; 0x74
     3d0:	bc3c      	pop	{r2, r3, r4, r5}
     3d2:	4690      	mov	r8, r2
     3d4:	4699      	mov	r9, r3
     3d6:	46a2      	mov	sl, r4
     3d8:	46ab      	mov	fp, r5
     3da:	bdf0      	pop	{r4, r5, r6, r7, pc}
     3dc:	0000975c 	.word	0x0000975c
     3e0:	000041bd 	.word	0x000041bd
     3e4:	461c3c00 	.word	0x461c3c00
     3e8:	00000a91 	.word	0x00000a91
     3ec:	000007ad 	.word	0x000007ad
     3f0:	000097a8 	.word	0x000097a8
     3f4:	00000a21 	.word	0x00000a21
     3f8:	00000641 	.word	0x00000641
     3fc:	000097fc 	.word	0x000097fc
     400:	00006c01 	.word	0x00006c01
     404:	000072a1 	.word	0x000072a1
     408:	00009834 	.word	0x00009834
     40c:	000074f5 	.word	0x000074f5
     410:	00004199 	.word	0x00004199
     414:	00003591 	.word	0x00003591
     418:	00003565 	.word	0x00003565
     41c:	00009565 	.word	0x00009565
     420:	00009874 	.word	0x00009874

00000424 <configure_eeprom>:
//Well, i'll probably let this rest here for now. Although, TODO
 void configure_eeprom(void)
{
     424:	b510      	push	{r4, lr}
    /* Setup EEPROM emulator service */
    enum status_code error_code = eeprom_emulator_init();
     426:	4b07      	ldr	r3, [pc, #28]	; (444 <configure_eeprom+0x20>)
     428:	4798      	blx	r3
    if (error_code == STATUS_ERR_NO_MEMORY) {
     42a:	2816      	cmp	r0, #22
     42c:	d103      	bne.n	436 <configure_eeprom+0x12>
        while (true) {
            /* No EEPROM section has been set in the device's fuses */
			set_disp_led_color(LED_RED);
     42e:	4c06      	ldr	r4, [pc, #24]	; (448 <configure_eeprom+0x24>)
     430:	2001      	movs	r0, #1
     432:	47a0      	blx	r4
     434:	e7fc      	b.n	430 <configure_eeprom+0xc>
        }
    }
    else if (error_code != STATUS_OK) {
     436:	2800      	cmp	r0, #0
     438:	d003      	beq.n	442 <configure_eeprom+0x1e>
        /* Erase the emulated EEPROM memory (assume it is unformatted or
         * irrecoverably corrupt) */
        eeprom_emulator_erase_memory();
     43a:	4b04      	ldr	r3, [pc, #16]	; (44c <configure_eeprom+0x28>)
     43c:	4798      	blx	r3
        eeprom_emulator_init();
     43e:	4b01      	ldr	r3, [pc, #4]	; (444 <configure_eeprom+0x20>)
     440:	4798      	blx	r3
    }
}
     442:	bd10      	pop	{r4, pc}
     444:	00003341 	.word	0x00003341
     448:	00000a21 	.word	0x00000a21
     44c:	00003421 	.word	0x00003421

00000450 <init_adxl_calibration>:
//Read eeprom, check for calibration and redo if necessary
 void init_adxl_calibration(button_lib_t *calibrate_button)
{
     450:	b5f0      	push	{r4, r5, r6, r7, lr}
     452:	465f      	mov	r7, fp
     454:	4656      	mov	r6, sl
     456:	464d      	mov	r5, r9
     458:	4644      	mov	r4, r8
     45a:	b4f0      	push	{r4, r5, r6, r7}
     45c:	b0a9      	sub	sp, #164	; 0xa4
     45e:	1c07      	adds	r7, r0, #0
	
		configure_eeprom();
     460:	4b4f      	ldr	r3, [pc, #316]	; (5a0 <init_adxl_calibration+0x150>)
     462:	4798      	blx	r3
		//Wait some for button read
		delay_ms(200);
     464:	20c8      	movs	r0, #200	; 0xc8
     466:	4b4f      	ldr	r3, [pc, #316]	; (5a4 <init_adxl_calibration+0x154>)
     468:	4798      	blx	r3

		uint8_t page_data[EEPROM_PAGE_SIZE];
		eeprom_emulator_read_page(0, page_data);
     46a:	ac19      	add	r4, sp, #100	; 0x64
     46c:	2000      	movs	r0, #0
     46e:	1c21      	adds	r1, r4, #0
     470:	4b4d      	ldr	r3, [pc, #308]	; (5a8 <init_adxl_calibration+0x158>)
     472:	4798      	blx	r3
		
		uint8_t is_calibrated = page_data[0];
     474:	7824      	ldrb	r4, [r4, #0]
     476:	46a3      	mov	fp, r4
		ADXL_335_t saved_calibration = *(ADXL_335_t*)&page_data[1];
     478:	a80c      	add	r0, sp, #48	; 0x30
     47a:	4669      	mov	r1, sp
     47c:	3165      	adds	r1, #101	; 0x65
     47e:	2234      	movs	r2, #52	; 0x34
     480:	4b4a      	ldr	r3, [pc, #296]	; (5ac <init_adxl_calibration+0x15c>)
     482:	4798      	blx	r3
     484:	466b      	mov	r3, sp
     486:	3379      	adds	r3, #121	; 0x79
     488:	7819      	ldrb	r1, [r3, #0]
     48a:	785a      	ldrb	r2, [r3, #1]
     48c:	0212      	lsls	r2, r2, #8
     48e:	430a      	orrs	r2, r1
     490:	7899      	ldrb	r1, [r3, #2]
     492:	0409      	lsls	r1, r1, #16
     494:	430a      	orrs	r2, r1
     496:	78db      	ldrb	r3, [r3, #3]
     498:	061b      	lsls	r3, r3, #24
     49a:	4313      	orrs	r3, r2
     49c:	469a      	mov	sl, r3
     49e:	466b      	mov	r3, sp
     4a0:	337d      	adds	r3, #125	; 0x7d
     4a2:	7819      	ldrb	r1, [r3, #0]
     4a4:	785a      	ldrb	r2, [r3, #1]
     4a6:	0212      	lsls	r2, r2, #8
     4a8:	430a      	orrs	r2, r1
     4aa:	7899      	ldrb	r1, [r3, #2]
     4ac:	0409      	lsls	r1, r1, #16
     4ae:	430a      	orrs	r2, r1
     4b0:	78db      	ldrb	r3, [r3, #3]
     4b2:	061b      	lsls	r3, r3, #24
     4b4:	4313      	orrs	r3, r2
     4b6:	4698      	mov	r8, r3
     4b8:	466b      	mov	r3, sp
     4ba:	3381      	adds	r3, #129	; 0x81
     4bc:	781a      	ldrb	r2, [r3, #0]
     4be:	785d      	ldrb	r5, [r3, #1]
     4c0:	022d      	lsls	r5, r5, #8
     4c2:	4315      	orrs	r5, r2
     4c4:	789a      	ldrb	r2, [r3, #2]
     4c6:	0412      	lsls	r2, r2, #16
     4c8:	4315      	orrs	r5, r2
     4ca:	78db      	ldrb	r3, [r3, #3]
     4cc:	061b      	lsls	r3, r3, #24
     4ce:	431d      	orrs	r5, r3
     4d0:	466b      	mov	r3, sp
     4d2:	3385      	adds	r3, #133	; 0x85
     4d4:	7819      	ldrb	r1, [r3, #0]
     4d6:	785a      	ldrb	r2, [r3, #1]
     4d8:	0212      	lsls	r2, r2, #8
     4da:	430a      	orrs	r2, r1
     4dc:	7899      	ldrb	r1, [r3, #2]
     4de:	0409      	lsls	r1, r1, #16
     4e0:	430a      	orrs	r2, r1
     4e2:	78db      	ldrb	r3, [r3, #3]
     4e4:	061b      	lsls	r3, r3, #24
     4e6:	4313      	orrs	r3, r2
     4e8:	4699      	mov	r9, r3
     4ea:	466b      	mov	r3, sp
     4ec:	3389      	adds	r3, #137	; 0x89
     4ee:	781a      	ldrb	r2, [r3, #0]
     4f0:	785e      	ldrb	r6, [r3, #1]
     4f2:	0236      	lsls	r6, r6, #8
     4f4:	4316      	orrs	r6, r2
     4f6:	789a      	ldrb	r2, [r3, #2]
     4f8:	0412      	lsls	r2, r2, #16
     4fa:	4316      	orrs	r6, r2
     4fc:	78db      	ldrb	r3, [r3, #3]
     4fe:	061b      	lsls	r3, r3, #24
     500:	431e      	orrs	r6, r3
     502:	466b      	mov	r3, sp
     504:	338d      	adds	r3, #141	; 0x8d
     506:	781a      	ldrb	r2, [r3, #0]
     508:	785c      	ldrb	r4, [r3, #1]
     50a:	0224      	lsls	r4, r4, #8
     50c:	4314      	orrs	r4, r2
     50e:	789a      	ldrb	r2, [r3, #2]
     510:	0412      	lsls	r2, r2, #16
     512:	4314      	orrs	r4, r2
     514:	78db      	ldrb	r3, [r3, #3]
     516:	061b      	lsls	r3, r3, #24
     518:	431c      	orrs	r4, r3
		
		if ((is_calibrated == 0b10101010) && !button_read_button(calibrate_button))
     51a:	465b      	mov	r3, fp
     51c:	2baa      	cmp	r3, #170	; 0xaa
     51e:	d134      	bne.n	58a <init_adxl_calibration+0x13a>
     520:	1c38      	adds	r0, r7, #0
     522:	4b23      	ldr	r3, [pc, #140]	; (5b0 <init_adxl_calibration+0x160>)
     524:	4798      	blx	r3
     526:	2800      	cmp	r0, #0
     528:	d12f      	bne.n	58a <init_adxl_calibration+0x13a>
		{
			accelerometer = saved_calibration;
     52a:	4653      	mov	r3, sl
     52c:	9311      	str	r3, [sp, #68]	; 0x44
     52e:	4643      	mov	r3, r8
     530:	9312      	str	r3, [sp, #72]	; 0x48
     532:	9513      	str	r5, [sp, #76]	; 0x4c
     534:	464b      	mov	r3, r9
     536:	9314      	str	r3, [sp, #80]	; 0x50
     538:	9615      	str	r6, [sp, #84]	; 0x54
     53a:	9416      	str	r4, [sp, #88]	; 0x58
     53c:	481d      	ldr	r0, [pc, #116]	; (5b4 <init_adxl_calibration+0x164>)
     53e:	a90c      	add	r1, sp, #48	; 0x30
     540:	2234      	movs	r2, #52	; 0x34
     542:	4b1a      	ldr	r3, [pc, #104]	; (5ac <init_adxl_calibration+0x15c>)
     544:	4798      	blx	r3
			printf("Sensor calibrated with saved values! Press button during start to recalibrate! X 0G: %.3f 1G: %.3f  Y 0G: %.3f 1G: %.3f  Z 0G: %.3f 1G: %.3f \n\r",
     546:	4f1c      	ldr	r7, [pc, #112]	; (5b8 <init_adxl_calibration+0x168>)
     548:	4650      	mov	r0, sl
     54a:	47b8      	blx	r7
     54c:	900a      	str	r0, [sp, #40]	; 0x28
     54e:	910b      	str	r1, [sp, #44]	; 0x2c
     550:	4648      	mov	r0, r9
     552:	47b8      	blx	r7
     554:	9000      	str	r0, [sp, #0]
     556:	9101      	str	r1, [sp, #4]
     558:	4640      	mov	r0, r8
     55a:	47b8      	blx	r7
     55c:	9002      	str	r0, [sp, #8]
     55e:	9103      	str	r1, [sp, #12]
     560:	1c30      	adds	r0, r6, #0
     562:	47b8      	blx	r7
     564:	9004      	str	r0, [sp, #16]
     566:	9105      	str	r1, [sp, #20]
     568:	1c28      	adds	r0, r5, #0
     56a:	47b8      	blx	r7
     56c:	9006      	str	r0, [sp, #24]
     56e:	9107      	str	r1, [sp, #28]
     570:	1c20      	adds	r0, r4, #0
     572:	47b8      	blx	r7
     574:	9008      	str	r0, [sp, #32]
     576:	9109      	str	r1, [sp, #36]	; 0x24
     578:	4810      	ldr	r0, [pc, #64]	; (5bc <init_adxl_calibration+0x16c>)
     57a:	9a0a      	ldr	r2, [sp, #40]	; 0x28
     57c:	9b0b      	ldr	r3, [sp, #44]	; 0x2c
     57e:	4910      	ldr	r1, [pc, #64]	; (5c0 <init_adxl_calibration+0x170>)
     580:	4788      	blx	r1
			saved_calibration.x_zero_g_point, saved_calibration.x_volt_per_one_g,
			saved_calibration.y_zero_g_point, saved_calibration.y_volt_per_one_g,
			saved_calibration.z_zero_g_point, saved_calibration.z_volt_per_one_g);
			set_disp_led_color(LED_WHITE);
     582:	2005      	movs	r0, #5
     584:	4b0f      	ldr	r3, [pc, #60]	; (5c4 <init_adxl_calibration+0x174>)
     586:	4798      	blx	r3
     588:	e003      	b.n	592 <init_adxl_calibration+0x142>
		}else{
			calibrate_accelerometer(&accelerometer, calibrate_button);
     58a:	480a      	ldr	r0, [pc, #40]	; (5b4 <init_adxl_calibration+0x164>)
     58c:	1c39      	adds	r1, r7, #0
     58e:	4b0e      	ldr	r3, [pc, #56]	; (5c8 <init_adxl_calibration+0x178>)
     590:	4798      	blx	r3
		}
}
     592:	b029      	add	sp, #164	; 0xa4
     594:	bc3c      	pop	{r2, r3, r4, r5}
     596:	4690      	mov	r8, r2
     598:	4699      	mov	r9, r3
     59a:	46a2      	mov	sl, r4
     59c:	46ab      	mov	fp, r5
     59e:	bdf0      	pop	{r4, r5, r6, r7, pc}
     5a0:	00000425 	.word	0x00000425
     5a4:	00001059 	.word	0x00001059
     5a8:	000034fd 	.word	0x000034fd
     5ac:	00004199 	.word	0x00004199
     5b0:	00000791 	.word	0x00000791
     5b4:	200001f0 	.word	0x200001f0
     5b8:	00009565 	.word	0x00009565
     5bc:	000098c8 	.word	0x000098c8
     5c0:	000041bd 	.word	0x000041bd
     5c4:	00000a21 	.word	0x00000a21
     5c8:	000002b1 	.word	0x000002b1

000005cc <adc_complete_callback>:
	adc_read_buffer_job(&adc_instance, &adc_val, 1);
}

//ADC callback. This is essentially a freerunning adc, just chose how many channels you want
void adc_complete_callback(struct adc_module *const module)
{
     5cc:	b510      	push	{r4, lr}
	static uint8_t curr_channel = 0;
	static const enum adc_positive_input inputs[4] = {ADC_POSITIVE_INPUT_PIN0, ADC_POSITIVE_INPUT_PIN4, ADC_POSITIVE_INPUT_PIN5, ADC_POSITIVE_INPUT_PIN6 };
	
	
// 	//Handle new value
	(callbacks)[curr_channel](adc_val);
     5ce:	4c14      	ldr	r4, [pc, #80]	; (620 <adc_complete_callback+0x54>)
     5d0:	7822      	ldrb	r2, [r4, #0]
     5d2:	4b14      	ldr	r3, [pc, #80]	; (624 <adc_complete_callback+0x58>)
     5d4:	681b      	ldr	r3, [r3, #0]
     5d6:	0092      	lsls	r2, r2, #2
     5d8:	4913      	ldr	r1, [pc, #76]	; (628 <adc_complete_callback+0x5c>)
     5da:	8808      	ldrh	r0, [r1, #0]
     5dc:	58d3      	ldr	r3, [r2, r3]
     5de:	4798      	blx	r3

	//Restart reading
	curr_channel++;
     5e0:	7820      	ldrb	r0, [r4, #0]
     5e2:	3001      	adds	r0, #1
	//wrap around num channels
	curr_channel %= num_channels;
     5e4:	b2c0      	uxtb	r0, r0
     5e6:	4b11      	ldr	r3, [pc, #68]	; (62c <adc_complete_callback+0x60>)
     5e8:	7819      	ldrb	r1, [r3, #0]
     5ea:	4b11      	ldr	r3, [pc, #68]	; (630 <adc_complete_callback+0x64>)
     5ec:	4798      	blx	r3
     5ee:	b2c9      	uxtb	r1, r1
     5f0:	7021      	strb	r1, [r4, #0]
	
	adc_set_positive_input(&adc_instance, inputs[curr_channel]);
     5f2:	4b10      	ldr	r3, [pc, #64]	; (634 <adc_complete_callback+0x68>)
     5f4:	5c59      	ldrb	r1, [r3, r1]
{
	/* Sanity check arguments */
	Assert(module_inst);
	Assert(module_inst->hw);

	Adc *const adc_module = module_inst->hw;
     5f6:	4b10      	ldr	r3, [pc, #64]	; (638 <adc_complete_callback+0x6c>)
     5f8:	681b      	ldr	r3, [r3, #0]
	/* Sanity check arguments */
	Assert(module_inst);

	Adc *const adc_module = module_inst->hw;

	if (adc_module->STATUS.reg & ADC_STATUS_SYNCBUSY) {
     5fa:	7e5a      	ldrb	r2, [r3, #25]

	while (adc_is_syncing(module_inst)) {
     5fc:	b252      	sxtb	r2, r2
     5fe:	2a00      	cmp	r2, #0
     600:	dbfb      	blt.n	5fa <adc_complete_callback+0x2e>
		/* Wait for synchronization */
	}

	/* Set positive input pin */
	adc_module->INPUTCTRL.reg =
			(adc_module->INPUTCTRL.reg & ~ADC_INPUTCTRL_MUXPOS_Msk) |
     602:	691a      	ldr	r2, [r3, #16]
     604:	201f      	movs	r0, #31
     606:	4382      	bics	r2, r0
     608:	430a      	orrs	r2, r1
	while (adc_is_syncing(module_inst)) {
		/* Wait for synchronization */
	}

	/* Set positive input pin */
	adc_module->INPUTCTRL.reg =
     60a:	611a      	str	r2, [r3, #16]
     60c:	7e5a      	ldrb	r2, [r3, #25]
			(adc_module->INPUTCTRL.reg & ~ADC_INPUTCTRL_MUXPOS_Msk) |
			(positive_input);

	while (adc_is_syncing(module_inst)) {
     60e:	b252      	sxtb	r2, r2
     610:	2a00      	cmp	r2, #0
     612:	dbfb      	blt.n	60c <adc_complete_callback+0x40>
	
	adc_read_buffer_job(&adc_instance , &adc_val, 1);
     614:	4808      	ldr	r0, [pc, #32]	; (638 <adc_complete_callback+0x6c>)
     616:	4904      	ldr	r1, [pc, #16]	; (628 <adc_complete_callback+0x5c>)
     618:	2201      	movs	r2, #1
     61a:	4b08      	ldr	r3, [pc, #32]	; (63c <adc_complete_callback+0x70>)
     61c:	4798      	blx	r3
}
     61e:	bd10      	pop	{r4, pc}
     620:	200000c8 	.word	0x200000c8
     624:	200002ac 	.word	0x200002ac
     628:	200001ec 	.word	0x200001ec
     62c:	20000000 	.word	0x20000000
     630:	000069c5 	.word	0x000069c5
     634:	00009958 	.word	0x00009958
     638:	2000028c 	.word	0x2000028c
     63c:	000015d5 	.word	0x000015d5

00000640 <adc_to_volt>:
static uint8_t num_channels = 3;
//Callbacks for new value for a channel
void (**callbacks)(uint16_t);

inline float	adc_to_volt(uint16_t val)
{
     640:	b510      	push	{r4, lr}
	//Convert to voltage
	float volt = (float)val/ADC_MAX * VCC;
     642:	4b09      	ldr	r3, [pc, #36]	; (668 <adc_to_volt+0x28>)
     644:	4798      	blx	r3
     646:	4909      	ldr	r1, [pc, #36]	; (66c <adc_to_volt+0x2c>)
     648:	4b09      	ldr	r3, [pc, #36]	; (670 <adc_to_volt+0x30>)
     64a:	4798      	blx	r3
     64c:	4b09      	ldr	r3, [pc, #36]	; (674 <adc_to_volt+0x34>)
     64e:	4798      	blx	r3
     650:	4b04      	ldr	r3, [pc, #16]	; (664 <adc_to_volt+0x24>)
     652:	4a03      	ldr	r2, [pc, #12]	; (660 <adc_to_volt+0x20>)
     654:	4c08      	ldr	r4, [pc, #32]	; (678 <adc_to_volt+0x38>)
     656:	47a0      	blx	r4
     658:	4b08      	ldr	r3, [pc, #32]	; (67c <adc_to_volt+0x3c>)
     65a:	4798      	blx	r3
	
	return  volt;
}
     65c:	bd10      	pop	{r4, pc}
     65e:	46c0      	nop			; (mov r8, r8)
     660:	66666666 	.word	0x66666666
     664:	400a6666 	.word	0x400a6666
     668:	000078d9 	.word	0x000078d9
     66c:	477fff00 	.word	0x477fff00
     670:	00006ed9 	.word	0x00006ed9
     674:	00009565 	.word	0x00009565
     678:	00008891 	.word	0x00008891
     67c:	00009609 	.word	0x00009609

00000680 <configure_adc>:
//Call this with number of wanted channels and callbacks for each value
void configure_adc(uint8_t no_channels, void (*register_callbacks[])(uint16_t))
{
     680:	b5f0      	push	{r4, r5, r6, r7, lr}
     682:	b08f      	sub	sp, #60	; 0x3c
     684:	1c05      	adds	r5, r0, #0
     686:	1c0e      	adds	r6, r1, #0
	struct adc_config config_adc;
	adc_get_config_defaults(&config_adc);
     688:	ac02      	add	r4, sp, #8
     68a:	1c20      	adds	r0, r4, #0
     68c:	4b32      	ldr	r3, [pc, #200]	; (758 <configure_adc+0xd8>)
     68e:	4798      	blx	r3
	
	config_adc.gain_factor = ADC_GAIN_FACTOR_1X;
     690:	2300      	movs	r3, #0
     692:	60a3      	str	r3, [r4, #8]
	config_adc.clock_prescaler = ADC_CLOCK_PRESCALER_DIV512;
     694:	22e0      	movs	r2, #224	; 0xe0
     696:	00d2      	lsls	r2, r2, #3
     698:	8062      	strh	r2, [r4, #2]
	//Select reference
	config_adc.reference = ADC_REFCTRL_REFSEL_AREFA;
     69a:	2203      	movs	r2, #3
     69c:	7062      	strb	r2, [r4, #1]
	config_adc.positive_input = ADC_POSITIVE_INPUT_PIN0;
     69e:	7323      	strb	r3, [r4, #12]
	config_adc.resolution = ADC_RESOLUTION_16BIT;
     6a0:	2310      	movs	r3, #16
     6a2:	7123      	strb	r3, [r4, #4]
	
	adc_init(&adc_instance, ADC, &config_adc);
     6a4:	4f2d      	ldr	r7, [pc, #180]	; (75c <configure_adc+0xdc>)
     6a6:	1c38      	adds	r0, r7, #0
     6a8:	492d      	ldr	r1, [pc, #180]	; (760 <configure_adc+0xe0>)
     6aa:	1c22      	adds	r2, r4, #0
     6ac:	4b2d      	ldr	r3, [pc, #180]	; (764 <configure_adc+0xe4>)
     6ae:	4798      	blx	r3
		struct adc_module *const module_inst)
{
	Assert(module_inst);
	Assert(module_inst->hw);

	Adc *const adc_module = module_inst->hw;
     6b0:	683b      	ldr	r3, [r7, #0]
     6b2:	7e5a      	ldrb	r2, [r3, #25]

	while (adc_is_syncing(module_inst)) {
     6b4:	b252      	sxtb	r2, r2
     6b6:	2a00      	cmp	r2, #0
     6b8:	dbfb      	blt.n	6b2 <configure_adc+0x32>
 * \param[in] vector Interrupt vector to enable
 */
static inline void system_interrupt_enable(
		const enum system_interrupt_vector vector)
{
	NVIC->ISER[0] = (uint32_t)(1 << ((uint32_t)vector & 0x0000001f));
     6ba:	2180      	movs	r1, #128	; 0x80
     6bc:	0409      	lsls	r1, r1, #16
     6be:	4a2a      	ldr	r2, [pc, #168]	; (768 <configure_adc+0xe8>)
     6c0:	6011      	str	r1, [r2, #0]
#	else
		system_interrupt_enable(SYSTEM_INTERRUPT_MODULE_ADC);
#   endif
#endif

	adc_module->CTRLA.reg |= ADC_CTRLA_ENABLE;
     6c2:	7819      	ldrb	r1, [r3, #0]
     6c4:	2202      	movs	r2, #2
     6c6:	430a      	orrs	r2, r1
     6c8:	701a      	strb	r2, [r3, #0]
	struct adc_module *const module_inst)
{
	/* Sanity check arguments */
	Assert(module_inst);

	Adc *const adc_module = module_inst->hw;
     6ca:	4b24      	ldr	r3, [pc, #144]	; (75c <configure_adc+0xdc>)
     6cc:	681a      	ldr	r2, [r3, #0]

	if (adc_module->STATUS.reg & ADC_STATUS_SYNCBUSY) {
     6ce:	7e53      	ldrb	r3, [r2, #25]

	while (adc_is_syncing(module_inst)) {
     6d0:	b25b      	sxtb	r3, r3
     6d2:	2b00      	cmp	r3, #0
     6d4:	dbfb      	blt.n	6ce <configure_adc+0x4e>
	
	adc_enable(&adc_instance);
	
	adc_register_callback(&adc_instance, adc_complete_callback, ADC_CALLBACK_READ_BUFFER);
     6d6:	4c21      	ldr	r4, [pc, #132]	; (75c <configure_adc+0xdc>)
     6d8:	1c20      	adds	r0, r4, #0
     6da:	4924      	ldr	r1, [pc, #144]	; (76c <configure_adc+0xec>)
     6dc:	2200      	movs	r2, #0
     6de:	4b24      	ldr	r3, [pc, #144]	; (770 <configure_adc+0xf0>)
     6e0:	4798      	blx	r3
{
	/* Sanity check arguments */
	Assert(module);

	/* Enable callback */
	module->enabled_callback_mask |= (1 << callback_type);
     6e2:	7ee2      	ldrb	r2, [r4, #27]
     6e4:	2301      	movs	r3, #1
     6e6:	4313      	orrs	r3, r2
     6e8:	76e3      	strb	r3, [r4, #27]
	/* Sanity check arguments */
	Assert(config);

	/* Default configuration values */
	config->mux_position = SYSTEM_PINMUX_GPIO;
	config->direction    = SYSTEM_PINMUX_PIN_DIR_INPUT;
     6ea:	a901      	add	r1, sp, #4
     6ec:	2200      	movs	r2, #0
     6ee:	704a      	strb	r2, [r1, #1]
	config->input_pull   = SYSTEM_PINMUX_PIN_PULL_UP;
	config->powersave    = false;
     6f0:	70ca      	strb	r2, [r1, #3]
	/* Configure the rest of the analog pins */
	struct system_pinmux_config config;
	system_pinmux_get_config_defaults(&config);
	
	/* Analog functions are all on MUX setting B */
	config.input_pull   = SYSTEM_PINMUX_PIN_PULL_NONE;
     6f2:	708a      	strb	r2, [r1, #2]
	
	//Set up vref to pin 3
	config.mux_position = MUX_PA03B_DAC_VREFP;
     6f4:	2201      	movs	r2, #1
     6f6:	700a      	strb	r2, [r1, #0]
	system_pinmux_pin_set_config(PIN_PA03, &config);
     6f8:	2003      	movs	r0, #3
     6fa:	4b1e      	ldr	r3, [pc, #120]	; (774 <configure_adc+0xf4>)
     6fc:	4798      	blx	r3
	
	//Todo: add switch case here for setting up number of channels: check!
	switch(no_channels)
     6fe:	2d03      	cmp	r5, #3
     700:	d013      	beq.n	72a <configure_adc+0xaa>
     702:	d802      	bhi.n	70a <configure_adc+0x8a>
     704:	2d02      	cmp	r5, #2
     706:	d016      	beq.n	736 <configure_adc+0xb6>
     708:	e01b      	b.n	742 <configure_adc+0xc2>
     70a:	2d04      	cmp	r5, #4
     70c:	d007      	beq.n	71e <configure_adc+0x9e>
     70e:	2d05      	cmp	r5, #5
     710:	d117      	bne.n	742 <configure_adc+0xc2>
	{
		//No breaks
		case 5:
			config.mux_position = MUX_PA07B_ADC_AIN7;
     712:	a901      	add	r1, sp, #4
     714:	2301      	movs	r3, #1
     716:	700b      	strb	r3, [r1, #0]
			system_pinmux_pin_set_config(PIN_PA04, &config);
     718:	2004      	movs	r0, #4
     71a:	4b16      	ldr	r3, [pc, #88]	; (774 <configure_adc+0xf4>)
     71c:	4798      	blx	r3
		case 4:
			config.mux_position = MUX_PA06B_ADC_AIN6;
     71e:	a901      	add	r1, sp, #4
     720:	2301      	movs	r3, #1
     722:	700b      	strb	r3, [r1, #0]
			system_pinmux_pin_set_config(PIN_PA06, &config);
     724:	2006      	movs	r0, #6
     726:	4b13      	ldr	r3, [pc, #76]	; (774 <configure_adc+0xf4>)
     728:	4798      	blx	r3
		case 3:
			config.mux_position = MUX_PA05B_ADC_AIN5;
     72a:	a901      	add	r1, sp, #4
     72c:	2301      	movs	r3, #1
     72e:	700b      	strb	r3, [r1, #0]
			system_pinmux_pin_set_config(PIN_PA05, &config);
     730:	2005      	movs	r0, #5
     732:	4b10      	ldr	r3, [pc, #64]	; (774 <configure_adc+0xf4>)
     734:	4798      	blx	r3
		case 2:
			config.mux_position = MUX_PA04B_ADC_AIN4;
     736:	a901      	add	r1, sp, #4
     738:	2301      	movs	r3, #1
     73a:	700b      	strb	r3, [r1, #0]
			system_pinmux_pin_set_config(PIN_PA04, &config);
     73c:	2004      	movs	r0, #4
     73e:	4b0d      	ldr	r3, [pc, #52]	; (774 <configure_adc+0xf4>)
     740:	4798      	blx	r3
			//No extra pins needed
		break;
	}
	
	//Set up callbacks and num channels
	num_channels = no_channels;
     742:	4b0d      	ldr	r3, [pc, #52]	; (778 <configure_adc+0xf8>)
     744:	701d      	strb	r5, [r3, #0]
	callbacks = register_callbacks;
     746:	4b0d      	ldr	r3, [pc, #52]	; (77c <configure_adc+0xfc>)
     748:	601e      	str	r6, [r3, #0]
	
	//Start reading
	adc_read_buffer_job(&adc_instance, &adc_val, 1);
     74a:	4804      	ldr	r0, [pc, #16]	; (75c <configure_adc+0xdc>)
     74c:	490c      	ldr	r1, [pc, #48]	; (780 <configure_adc+0x100>)
     74e:	2201      	movs	r2, #1
     750:	4b0c      	ldr	r3, [pc, #48]	; (784 <configure_adc+0x104>)
     752:	4798      	blx	r3
}
     754:	b00f      	add	sp, #60	; 0x3c
     756:	bdf0      	pop	{r4, r5, r6, r7, pc}
     758:	00001085 	.word	0x00001085
     75c:	2000028c 	.word	0x2000028c
     760:	42004000 	.word	0x42004000
     764:	000010cd 	.word	0x000010cd
     768:	e000e100 	.word	0xe000e100
     76c:	000005cd 	.word	0x000005cd
     770:	000015c1 	.word	0x000015c1
     774:	00002e21 	.word	0x00002e21
     778:	20000000 	.word	0x20000000
     77c:	200002ac 	.word	0x200002ac
     780:	200001ec 	.word	0x200001ec
     784:	000015d5 	.word	0x000015d5

00000788 <button_get_defaults>:
#include <asf.h>
#include "button_lib.h"

void button_get_defaults(button_lib_t * make_me_normal)
{
	make_me_normal->active_high = false;
     788:	2300      	movs	r3, #0
     78a:	7283      	strb	r3, [r0, #10]
	make_me_normal->button_debounce = false;
     78c:	8083      	strh	r3, [r0, #4]
	
}
     78e:	4770      	bx	lr

00000790 <button_read_button>:

//Read and handle buttonpress
bool button_read_button(button_lib_t * read_me)
{
     790:	1c03      	adds	r3, r0, #0
	if (read_me->pressed && !read_me->read)
     792:	7800      	ldrb	r0, [r0, #0]
     794:	b2c0      	uxtb	r0, r0
     796:	2800      	cmp	r0, #0
     798:	d006      	beq.n	7a8 <button_read_button+0x18>
     79a:	785a      	ldrb	r2, [r3, #1]
     79c:	2a00      	cmp	r2, #0
     79e:	d102      	bne.n	7a6 <button_read_button+0x16>
	{
		read_me->read = true;
     7a0:	2201      	movs	r2, #1
     7a2:	705a      	strb	r2, [r3, #1]
		return true;
     7a4:	e000      	b.n	7a8 <button_read_button+0x18>
	}
	return false;
     7a6:	2000      	movs	r0, #0
}
     7a8:	4770      	bx	lr
     7aa:	46c0      	nop			; (mov r8, r8)

000007ac <wait_for_button_press>:

//Wait for button on display to be pressed
void wait_for_button_press(const button_lib_t * read_me)
{
     7ac:	b538      	push	{r3, r4, r5, lr}
     7ae:	1c05      	adds	r5, r0, #0
	while (!button_read_button(read_me));
     7b0:	4c02      	ldr	r4, [pc, #8]	; (7bc <wait_for_button_press+0x10>)
     7b2:	1c28      	adds	r0, r5, #0
     7b4:	47a0      	blx	r4
     7b6:	2800      	cmp	r0, #0
     7b8:	d0fb      	beq.n	7b2 <wait_for_button_press+0x6>
}
     7ba:	bd38      	pop	{r3, r4, r5, pc}
     7bc:	00000791 	.word	0x00000791

000007c0 <button_handler>:
//Handler for button 
inline void button_handler(button_lib_t * btn_to_read)
{
	//Read button! Handle debounce and scroll
	//Read.?
	if (port_pin_get_input_level(btn_to_read->gpio_pin) == btn_to_read->active_high)
     7c0:	7883      	ldrb	r3, [r0, #2]
	uint8_t group_index = (gpio_pin / 32);

	/* Array of available ports */
	Port *const ports[PORT_INST_NUM] = PORT_INSTS;

	if (port_index < PORT_INST_NUM) {
     7c2:	09d9      	lsrs	r1, r3, #7
		return &(ports[port_index]->Group[group_index]);
	} else {
		Assert(false);
		return NULL;
     7c4:	2200      	movs	r2, #0
	uint8_t group_index = (gpio_pin / 32);

	/* Array of available ports */
	Port *const ports[PORT_INST_NUM] = PORT_INSTS;

	if (port_index < PORT_INST_NUM) {
     7c6:	2900      	cmp	r1, #0
     7c8:	d103      	bne.n	7d2 <button_handler+0x12>
		return &(ports[port_index]->Group[group_index]);
     7ca:	095a      	lsrs	r2, r3, #5
     7cc:	01d2      	lsls	r2, r2, #7
     7ce:	4912      	ldr	r1, [pc, #72]	; (818 <button_handler+0x58>)
     7d0:	1852      	adds	r2, r2, r1
		const uint8_t gpio_pin)
{
	PortGroup *const port_base = port_get_group_from_gpio_pin(gpio_pin);
	uint32_t pin_mask  = (1UL << (gpio_pin % 32));

	return (port_base->IN.reg & pin_mask);
     7d2:	6a12      	ldr	r2, [r2, #32]
 */
static inline bool port_pin_get_input_level(
		const uint8_t gpio_pin)
{
	PortGroup *const port_base = port_get_group_from_gpio_pin(gpio_pin);
	uint32_t pin_mask  = (1UL << (gpio_pin % 32));
     7d4:	211f      	movs	r1, #31
     7d6:	400b      	ands	r3, r1
     7d8:	2101      	movs	r1, #1
     7da:	4099      	lsls	r1, r3
     7dc:	1c0b      	adds	r3, r1, #0

	return (port_base->IN.reg & pin_mask);
     7de:	4013      	ands	r3, r2
     7e0:	1e5a      	subs	r2, r3, #1
     7e2:	4193      	sbcs	r3, r2
     7e4:	7a82      	ldrb	r2, [r0, #10]
     7e6:	429a      	cmp	r2, r3
     7e8:	d10d      	bne.n	806 <button_handler+0x46>
	{
		btn_to_read->button_debounce++;
     7ea:	8883      	ldrh	r3, [r0, #4]
     7ec:	3301      	adds	r3, #1
     7ee:	b29b      	uxth	r3, r3
     7f0:	8083      	strh	r3, [r0, #4]
		if (btn_to_read->button_debounce >= 100 && !btn_to_read->pressed)
     7f2:	2b63      	cmp	r3, #99	; 0x63
     7f4:	d90e      	bls.n	814 <button_handler+0x54>
     7f6:	7803      	ldrb	r3, [r0, #0]
     7f8:	2b00      	cmp	r3, #0
     7fa:	d10b      	bne.n	814 <button_handler+0x54>
		{
			btn_to_read->pressed = true;
     7fc:	2301      	movs	r3, #1
     7fe:	7003      	strb	r3, [r0, #0]
			btn_to_read->read = false;
     800:	2300      	movs	r3, #0
     802:	7043      	strb	r3, [r0, #1]
     804:	e006      	b.n	814 <button_handler+0x54>
		}
		
		}else{
		if (btn_to_read->read)
     806:	7843      	ldrb	r3, [r0, #1]
     808:	2b00      	cmp	r3, #0
     80a:	d001      	beq.n	810 <button_handler+0x50>
		{
			btn_to_read->pressed = false;
     80c:	2300      	movs	r3, #0
     80e:	7003      	strb	r3, [r0, #0]
		}
		btn_to_read->button_debounce = 0;
     810:	2300      	movs	r3, #0
     812:	8083      	strh	r3, [r0, #4]
	}
     814:	4770      	bx	lr
     816:	46c0      	nop			; (mov r8, r8)
     818:	41004400 	.word	0x41004400

0000081c <init_platform>:
 */ 
#include "longboard.h"

//Init all longboard specifics
void init_platform(void)
{
     81c:	b530      	push	{r4, r5, lr}
     81e:	b083      	sub	sp, #12
		button_get_defaults(&spi_btn);
     820:	4c0e      	ldr	r4, [pc, #56]	; (85c <init_platform+0x40>)
     822:	1c20      	adds	r0, r4, #0
     824:	4b0e      	ldr	r3, [pc, #56]	; (860 <init_platform+0x44>)
     826:	4798      	blx	r3
		spi_btn.gpio_pin = PIN_PA10;
     828:	230a      	movs	r3, #10
     82a:	70a3      	strb	r3, [r4, #2]
	/* Sanity check arguments */
	Assert(config);

	/* Default configuration values */
	config->direction  = PORT_PIN_DIR_INPUT;
	config->input_pull = PORT_PIN_PULL_UP;
     82c:	ac01      	add	r4, sp, #4
     82e:	2301      	movs	r3, #1
     830:	7063      	strb	r3, [r4, #1]
	config->powersave  = false;
     832:	2200      	movs	r2, #0
     834:	70a2      	strb	r2, [r4, #2]
		
		//setup outputs
		struct port_config pinconf;
		
		port_get_config_defaults(&pinconf);
		pinconf.direction = PORT_PIN_DIR_OUTPUT;
     836:	7023      	strb	r3, [r4, #0]
		
		port_pin_set_config(LED_SYS, &pinconf);		//led_sys
     838:	2011      	movs	r0, #17
     83a:	1c21      	adds	r1, r4, #0
     83c:	4d09      	ldr	r5, [pc, #36]	; (864 <init_platform+0x48>)
     83e:	47a8      	blx	r5
		port_pin_set_config(LED_usart, &pinconf);	//led_usart
     840:	2010      	movs	r0, #16
     842:	1c21      	adds	r1, r4, #0
     844:	47a8      	blx	r5
		port_pin_set_config(LED_ADC, &pinconf);		//led_adc
     846:	2012      	movs	r0, #18
     848:	1c21      	adds	r1, r4, #0
     84a:	47a8      	blx	r5
		
		
		//Config spi_sseg
		configure_spi_master();
     84c:	4b06      	ldr	r3, [pc, #24]	; (868 <init_platform+0x4c>)
     84e:	4798      	blx	r3
		
		//Set high brightness for now
		sseg_set_display_brightness(16);
     850:	2010      	movs	r0, #16
     852:	4b06      	ldr	r3, [pc, #24]	; (86c <init_platform+0x50>)
     854:	4798      	blx	r3
		
}
     856:	b003      	add	sp, #12
     858:	bd30      	pop	{r4, r5, pc}
     85a:	46c0      	nop			; (mov r8, r8)
     85c:	20000224 	.word	0x20000224
     860:	00000789 	.word	0x00000789
     864:	000018cd 	.word	0x000018cd
     868:	00000e75 	.word	0x00000e75
     86c:	00000d69 	.word	0x00000d69

00000870 <background_service_platform>:

//Update screen and buttons
void background_service_platform(void)
{
     870:	b500      	push	{lr}
     872:	b083      	sub	sp, #12
		//Read buttons
		button_handler(&spi_btn);
     874:	4808      	ldr	r0, [pc, #32]	; (898 <background_service_platform+0x28>)
     876:	4b09      	ldr	r3, [pc, #36]	; (89c <background_service_platform+0x2c>)
     878:	4798      	blx	r3
	/* Sanity check arguments */
	Assert(config);

	/* Default configuration values */
	config->mux_position = SYSTEM_PINMUX_GPIO;
	config->direction    = SYSTEM_PINMUX_PIN_DIR_INPUT;
     87a:	a901      	add	r1, sp, #4
     87c:	2300      	movs	r3, #0
     87e:	704b      	strb	r3, [r1, #1]
	config->input_pull   = SYSTEM_PINMUX_PIN_PULL_UP;
     880:	2201      	movs	r2, #1
     882:	708a      	strb	r2, [r1, #2]
	config->powersave    = false;
     884:	70cb      	strb	r3, [r1, #3]
		
		//Reactivate for spi
		struct system_pinmux_config config;
		system_pinmux_get_config_defaults(&config);
		
		config.mux_position = MUX_PA10C_SERCOM0_PAD2;
     886:	2302      	movs	r3, #2
     888:	700b      	strb	r3, [r1, #0]
		
		system_pinmux_pin_set_config(PIN_PA10, &config);
     88a:	200a      	movs	r0, #10
     88c:	4b04      	ldr	r3, [pc, #16]	; (8a0 <background_service_platform+0x30>)
     88e:	4798      	blx	r3
		
		sseg_update_display();
     890:	4b04      	ldr	r3, [pc, #16]	; (8a4 <background_service_platform+0x34>)
     892:	4798      	blx	r3
}
     894:	b003      	add	sp, #12
     896:	bd00      	pop	{pc}
     898:	20000224 	.word	0x20000224
     89c:	000007c1 	.word	0x000007c1
     8a0:	00002e21 	.word	0x00002e21
     8a4:	00000d75 	.word	0x00000d75

000008a8 <main_platform>:

//Main loop for longboard specifics
void main_platform(void)
{
     8a8:	b5f0      	push	{r4, r5, r6, r7, lr}
     8aa:	464f      	mov	r7, r9
     8ac:	4646      	mov	r6, r8
     8ae:	b4c0      	push	{r6, r7}
     8b0:	b087      	sub	sp, #28
	//what value we are displaying
	static uint8_t disp_val = 0;
	//Soft blink led
	static uint8_t led_ramp = 4, led_inc = 0;

	if (led_inc)
     8b2:	4b40      	ldr	r3, [pc, #256]	; (9b4 <main_platform+0x10c>)
     8b4:	781b      	ldrb	r3, [r3, #0]
     8b6:	2b00      	cmp	r3, #0
     8b8:	d004      	beq.n	8c4 <main_platform+0x1c>
	{
		led_ramp = led_ramp << 1;
     8ba:	4a3f      	ldr	r2, [pc, #252]	; (9b8 <main_platform+0x110>)
     8bc:	7811      	ldrb	r1, [r2, #0]
     8be:	0049      	lsls	r1, r1, #1
     8c0:	7011      	strb	r1, [r2, #0]
     8c2:	e003      	b.n	8cc <main_platform+0x24>
		}else{
		led_ramp = led_ramp >> 1;
     8c4:	4a3c      	ldr	r2, [pc, #240]	; (9b8 <main_platform+0x110>)
     8c6:	7811      	ldrb	r1, [r2, #0]
     8c8:	0849      	lsrs	r1, r1, #1
     8ca:	7011      	strb	r1, [r2, #0]
	}

	if ((led_ramp <= 1) || (led_ramp >= 128))
     8cc:	4a3a      	ldr	r2, [pc, #232]	; (9b8 <main_platform+0x110>)
     8ce:	7812      	ldrb	r2, [r2, #0]
     8d0:	3a02      	subs	r2, #2
     8d2:	2a7d      	cmp	r2, #125	; 0x7d
     8d4:	d902      	bls.n	8dc <main_platform+0x34>
	{
		led_inc ^= 0xFF;
     8d6:	43db      	mvns	r3, r3
     8d8:	4a36      	ldr	r2, [pc, #216]	; (9b4 <main_platform+0x10c>)
     8da:	7013      	strb	r3, [r2, #0]
	}

	if (button_read_button(&spi_btn))
     8dc:	4837      	ldr	r0, [pc, #220]	; (9bc <main_platform+0x114>)
     8de:	4b38      	ldr	r3, [pc, #224]	; (9c0 <main_platform+0x118>)
     8e0:	4798      	blx	r3
     8e2:	2800      	cmp	r0, #0
     8e4:	d005      	beq.n	8f2 <main_platform+0x4a>
	{
		disp_val++;
		disp_val %= 4;
     8e6:	4b37      	ldr	r3, [pc, #220]	; (9c4 <main_platform+0x11c>)
		led_inc ^= 0xFF;
	}

	if (button_read_button(&spi_btn))
	{
		disp_val++;
     8e8:	781a      	ldrb	r2, [r3, #0]
     8ea:	3201      	adds	r2, #1
		disp_val %= 4;
     8ec:	2103      	movs	r1, #3
     8ee:	400a      	ands	r2, r1
     8f0:	701a      	strb	r2, [r3, #0]
	}
	RGB_LED_t blink;
	switch(disp_val)
     8f2:	4b34      	ldr	r3, [pc, #208]	; (9c4 <main_platform+0x11c>)
     8f4:	781b      	ldrb	r3, [r3, #0]
     8f6:	2b01      	cmp	r3, #1
     8f8:	d012      	beq.n	920 <main_platform+0x78>
     8fa:	2b00      	cmp	r3, #0
     8fc:	d004      	beq.n	908 <main_platform+0x60>
     8fe:	2b02      	cmp	r3, #2
     900:	d01a      	beq.n	938 <main_platform+0x90>
     902:	2b03      	cmp	r3, #3
     904:	d024      	beq.n	950 <main_platform+0xa8>
     906:	e02e      	b.n	966 <main_platform+0xbe>
	{
		case 0:
		set_seg_disp_num(accelerometer.scaled_gforce.x);
     908:	4b2f      	ldr	r3, [pc, #188]	; (9c8 <main_platform+0x120>)
     90a:	6898      	ldr	r0, [r3, #8]
     90c:	4b2f      	ldr	r3, [pc, #188]	; (9cc <main_platform+0x124>)
     90e:	4798      	blx	r3
		blink.blue_set = 0;
     910:	ab05      	add	r3, sp, #20
     912:	2200      	movs	r2, #0
     914:	709a      	strb	r2, [r3, #2]
		blink.red_set = 0;
     916:	701a      	strb	r2, [r3, #0]
		blink.green_set = led_ramp;
     918:	4a27      	ldr	r2, [pc, #156]	; (9b8 <main_platform+0x110>)
     91a:	7812      	ldrb	r2, [r2, #0]
     91c:	705a      	strb	r2, [r3, #1]
		break;
     91e:	e022      	b.n	966 <main_platform+0xbe>
		case 1:
		set_seg_disp_num(accelerometer.scaled_gforce.y);
     920:	4b29      	ldr	r3, [pc, #164]	; (9c8 <main_platform+0x120>)
     922:	68d8      	ldr	r0, [r3, #12]
     924:	4b29      	ldr	r3, [pc, #164]	; (9cc <main_platform+0x124>)
     926:	4798      	blx	r3
		blink.blue_set = 0;
     928:	ab05      	add	r3, sp, #20
     92a:	2200      	movs	r2, #0
     92c:	709a      	strb	r2, [r3, #2]
		blink.red_set = led_ramp;
     92e:	4a22      	ldr	r2, [pc, #136]	; (9b8 <main_platform+0x110>)
     930:	7812      	ldrb	r2, [r2, #0]
     932:	701a      	strb	r2, [r3, #0]
		blink.green_set = led_ramp;
     934:	705a      	strb	r2, [r3, #1]
		break;
     936:	e016      	b.n	966 <main_platform+0xbe>
		case 2:
		set_seg_disp_num(accelerometer.scaled_gforce.z);
     938:	4b23      	ldr	r3, [pc, #140]	; (9c8 <main_platform+0x120>)
     93a:	6918      	ldr	r0, [r3, #16]
     93c:	4b23      	ldr	r3, [pc, #140]	; (9cc <main_platform+0x124>)
     93e:	4798      	blx	r3
		blink.blue_set = 0;
     940:	ab05      	add	r3, sp, #20
     942:	2200      	movs	r2, #0
     944:	709a      	strb	r2, [r3, #2]
		blink.red_set = led_ramp;
     946:	491c      	ldr	r1, [pc, #112]	; (9b8 <main_platform+0x110>)
     948:	7809      	ldrb	r1, [r1, #0]
     94a:	7019      	strb	r1, [r3, #0]
		blink.green_set = 0;
     94c:	705a      	strb	r2, [r3, #1]
		break;
     94e:	e00a      	b.n	966 <main_platform+0xbe>
		case 3:
		set_seg_disp_num(accelerometer.angle_x);
     950:	4b1d      	ldr	r3, [pc, #116]	; (9c8 <main_platform+0x120>)
     952:	6ad8      	ldr	r0, [r3, #44]	; 0x2c
     954:	4b1d      	ldr	r3, [pc, #116]	; (9cc <main_platform+0x124>)
     956:	4798      	blx	r3
		blink.blue_set = led_ramp;
     958:	ab05      	add	r3, sp, #20
     95a:	4a17      	ldr	r2, [pc, #92]	; (9b8 <main_platform+0x110>)
     95c:	7812      	ldrb	r2, [r2, #0]
     95e:	709a      	strb	r2, [r3, #2]
		blink.red_set = 0;
     960:	2200      	movs	r2, #0
     962:	701a      	strb	r2, [r3, #0]
		blink.green_set = 0;
     964:	705a      	strb	r2, [r3, #1]
		break;
	
	}
	set_disp_led(blink);
     966:	9805      	ldr	r0, [sp, #20]
     968:	4b19      	ldr	r3, [pc, #100]	; (9d0 <main_platform+0x128>)
     96a:	4798      	blx	r3
	PortGroup *const port_base = port_get_group_from_gpio_pin(gpio_pin);
	uint32_t pin_mask  = (1UL << (gpio_pin % 32));

	/* Set the pin to high or low atomically based on the requested level */
	if (level) {
		port_base->OUTSET.reg = pin_mask;
     96c:	4e19      	ldr	r6, [pc, #100]	; (9d4 <main_platform+0x12c>)
     96e:	2780      	movs	r7, #128	; 0x80
     970:	02bf      	lsls	r7, r7, #10
     972:	61b7      	str	r7, [r6, #24]

	port_pin_set_output_level(LED_SYS, true);

	printf("X: %.3f Y: %.3f Z: %.3f", accelerometer.scaled_gforce.x, accelerometer.scaled_gforce.y, accelerometer.scaled_gforce.z);
     974:	4b14      	ldr	r3, [pc, #80]	; (9c8 <main_platform+0x120>)
     976:	4699      	mov	r9, r3
     978:	4b17      	ldr	r3, [pc, #92]	; (9d8 <main_platform+0x130>)
     97a:	4698      	mov	r8, r3
     97c:	464b      	mov	r3, r9
     97e:	6898      	ldr	r0, [r3, #8]
     980:	47c0      	blx	r8
     982:	1c04      	adds	r4, r0, #0
     984:	1c0d      	adds	r5, r1, #0
     986:	464b      	mov	r3, r9
     988:	68d8      	ldr	r0, [r3, #12]
     98a:	47c0      	blx	r8
     98c:	9000      	str	r0, [sp, #0]
     98e:	9101      	str	r1, [sp, #4]
     990:	464b      	mov	r3, r9
     992:	6918      	ldr	r0, [r3, #16]
     994:	47c0      	blx	r8
     996:	9002      	str	r0, [sp, #8]
     998:	9103      	str	r1, [sp, #12]
     99a:	4810      	ldr	r0, [pc, #64]	; (9dc <main_platform+0x134>)
     99c:	1c22      	adds	r2, r4, #0
     99e:	1c2b      	adds	r3, r5, #0
     9a0:	4c0f      	ldr	r4, [pc, #60]	; (9e0 <main_platform+0x138>)
     9a2:	47a0      	blx	r4
	printf("\n\r");
     9a4:	480f      	ldr	r0, [pc, #60]	; (9e4 <main_platform+0x13c>)
     9a6:	47a0      	blx	r4
	} else {
		port_base->OUTCLR.reg = pin_mask;
     9a8:	6177      	str	r7, [r6, #20]

	port_pin_set_output_level(LED_SYS, false);
     9aa:	b007      	add	sp, #28
     9ac:	bc0c      	pop	{r2, r3}
     9ae:	4690      	mov	r8, r2
     9b0:	4699      	mov	r9, r3
     9b2:	bdf0      	pop	{r4, r5, r6, r7, pc}
     9b4:	200000ca 	.word	0x200000ca
     9b8:	20000001 	.word	0x20000001
     9bc:	20000224 	.word	0x20000224
     9c0:	00000791 	.word	0x00000791
     9c4:	200000c9 	.word	0x200000c9
     9c8:	200001f0 	.word	0x200001f0
     9cc:	00000a91 	.word	0x00000a91
     9d0:	00000a79 	.word	0x00000a79
     9d4:	41004400 	.word	0x41004400
     9d8:	00009565 	.word	0x00009565
     9dc:	0000995c 	.word	0x0000995c
     9e0:	000041bd 	.word	0x000041bd
     9e4:	00009830 	.word	0x00009830

000009e8 <spi_master_write_done>:
	spi_write_buffer_job(&spi_master_instance, buf, 2);

}

 void spi_master_write_done(struct spi_module *const module)
{
     9e8:	b500      	push	{lr}
     9ea:	b083      	sub	sp, #12
	spi_select_slave(&spi_master_instance, &slave, false);
     9ec:	4808      	ldr	r0, [pc, #32]	; (a10 <spi_master_write_done+0x28>)
     9ee:	4909      	ldr	r1, [pc, #36]	; (a14 <spi_master_write_done+0x2c>)
     9f0:	2200      	movs	r2, #0
     9f2:	4b09      	ldr	r3, [pc, #36]	; (a18 <spi_master_write_done+0x30>)
     9f4:	4798      	blx	r3
{
	/* Sanity check arguments */
	Assert(config);

	/* Default configuration values */
	config->mux_position = SYSTEM_PINMUX_GPIO;
     9f6:	a901      	add	r1, sp, #4
     9f8:	2380      	movs	r3, #128	; 0x80
     9fa:	700b      	strb	r3, [r1, #0]
	config->direction    = SYSTEM_PINMUX_PIN_DIR_INPUT;
     9fc:	2300      	movs	r3, #0
     9fe:	704b      	strb	r3, [r1, #1]
	config->input_pull   = SYSTEM_PINMUX_PIN_PULL_UP;
     a00:	2201      	movs	r2, #1
     a02:	708a      	strb	r2, [r1, #2]
	config->powersave    = false;
     a04:	70cb      	strb	r3, [r1, #3]
	
	config.direction   = SYSTEM_PINMUX_PIN_DIR_INPUT;
	config.input_pull   = SYSTEM_PINMUX_PIN_PULL_UP;
	config.mux_position = SYSTEM_PINMUX_GPIO;
	
	system_pinmux_pin_set_config(PIN_PA10, &config);	//Todo, set this to read from struct
     a06:	200a      	movs	r0, #10
     a08:	4b04      	ldr	r3, [pc, #16]	; (a1c <spi_master_write_done+0x34>)
     a0a:	4798      	blx	r3
}
     a0c:	b003      	add	sp, #12
     a0e:	bd00      	pop	{pc}
     a10:	20000230 	.word	0x20000230
     a14:	2000026c 	.word	0x2000026c
     a18:	00001e7d 	.word	0x00001e7d
     a1c:	00002e21 	.word	0x00002e21

00000a20 <set_disp_led_color>:
#define BCM_MIN_STEP 16


 void set_disp_led_color(LED_COLORS choice)
{
	sseg_leds.red_set = 0;
     a20:	4b13      	ldr	r3, [pc, #76]	; (a70 <set_disp_led_color+0x50>)
     a22:	2200      	movs	r2, #0
     a24:	701a      	strb	r2, [r3, #0]
	sseg_leds.green_set = 0;
     a26:	705a      	strb	r2, [r3, #1]
	sseg_leds.blue_set = 0;
     a28:	709a      	strb	r2, [r3, #2]
	
	switch(choice)
     a2a:	2805      	cmp	r0, #5
     a2c:	d81e      	bhi.n	a6c <set_disp_led_color+0x4c>
     a2e:	0080      	lsls	r0, r0, #2
     a30:	4b10      	ldr	r3, [pc, #64]	; (a74 <set_disp_led_color+0x54>)
     a32:	581b      	ldr	r3, [r3, r0]
     a34:	469f      	mov	pc, r3
	{
		case LED_RED:
		sseg_leds.red_set = 255;
     a36:	22ff      	movs	r2, #255	; 0xff
     a38:	4b0d      	ldr	r3, [pc, #52]	; (a70 <set_disp_led_color+0x50>)
     a3a:	701a      	strb	r2, [r3, #0]
		break;
     a3c:	e016      	b.n	a6c <set_disp_led_color+0x4c>
		case LED_GREEN:
		sseg_leds.green_set = 255;
     a3e:	22ff      	movs	r2, #255	; 0xff
     a40:	4b0b      	ldr	r3, [pc, #44]	; (a70 <set_disp_led_color+0x50>)
     a42:	705a      	strb	r2, [r3, #1]
		break;
     a44:	e012      	b.n	a6c <set_disp_led_color+0x4c>
		case LED_BLUE:
		sseg_leds.blue_set = 255;
     a46:	22ff      	movs	r2, #255	; 0xff
     a48:	4b09      	ldr	r3, [pc, #36]	; (a70 <set_disp_led_color+0x50>)
     a4a:	709a      	strb	r2, [r3, #2]
		break;
     a4c:	e00e      	b.n	a6c <set_disp_led_color+0x4c>
		case LED_PURPLE:
		sseg_leds.red_set = 255;
     a4e:	4b08      	ldr	r3, [pc, #32]	; (a70 <set_disp_led_color+0x50>)
     a50:	22ff      	movs	r2, #255	; 0xff
     a52:	701a      	strb	r2, [r3, #0]
		sseg_leds.blue_set = 255;
     a54:	709a      	strb	r2, [r3, #2]
		break;
     a56:	e009      	b.n	a6c <set_disp_led_color+0x4c>
		case LED_YELLOW:
		sseg_leds.green_set = 255;
     a58:	4b05      	ldr	r3, [pc, #20]	; (a70 <set_disp_led_color+0x50>)
     a5a:	22ff      	movs	r2, #255	; 0xff
     a5c:	705a      	strb	r2, [r3, #1]
		sseg_leds.red_set = 255;
     a5e:	701a      	strb	r2, [r3, #0]
		break;
     a60:	e004      	b.n	a6c <set_disp_led_color+0x4c>
		case LED_WHITE:
		sseg_leds.green_set = 111;
     a62:	4b03      	ldr	r3, [pc, #12]	; (a70 <set_disp_led_color+0x50>)
     a64:	226f      	movs	r2, #111	; 0x6f
     a66:	705a      	strb	r2, [r3, #1]
		sseg_leds.red_set = 111;
     a68:	701a      	strb	r2, [r3, #0]
		sseg_leds.blue_set = 111;
     a6a:	709a      	strb	r2, [r3, #2]
		break;
	}
}
     a6c:	4770      	bx	lr
     a6e:	46c0      	nop			; (mov r8, r8)
     a70:	200002b0 	.word	0x200002b0
     a74:	00009974 	.word	0x00009974

00000a78 <set_disp_led>:
 void set_disp_led(RGB_LED_t values)
 {
     a78:	b082      	sub	sp, #8
     a7a:	1c02      	adds	r2, r0, #0
     a7c:	0c00      	lsrs	r0, r0, #16
	sseg_leds = values;
     a7e:	4b02      	ldr	r3, [pc, #8]	; (a88 <set_disp_led+0x10>)
     a80:	801a      	strh	r2, [r3, #0]
     a82:	7098      	strb	r0, [r3, #2]
 }
     a84:	b002      	add	sp, #8
     a86:	4770      	bx	lr
     a88:	200002b0 	.word	0x200002b0
     a8c:	00000000 	.word	0x00000000

00000a90 <set_seg_disp_num>:
	 
	 return DISPLAY1[num%10];
 }
 
 void set_seg_disp_num(float num)
 {
     a90:	b5f0      	push	{r4, r5, r6, r7, lr}
     a92:	465f      	mov	r7, fp
     a94:	4656      	mov	r6, sl
     a96:	464d      	mov	r5, r9
     a98:	4644      	mov	r4, r8
     a9a:	b4f0      	push	{r4, r5, r6, r7}
     a9c:	b083      	sub	sp, #12
     a9e:	1c04      	adds	r4, r0, #0
	 if (num < 0)
     aa0:	2100      	movs	r1, #0
     aa2:	4ba1      	ldr	r3, [pc, #644]	; (d28 <set_seg_disp_num+0x298>)
     aa4:	4798      	blx	r3
     aa6:	2800      	cmp	r0, #0
     aa8:	d002      	beq.n	ab0 <set_seg_disp_num+0x20>
	 {
		 num =-num;
     aaa:	2380      	movs	r3, #128	; 0x80
     aac:	061b      	lsls	r3, r3, #24
     aae:	18e4      	adds	r4, r4, r3
	 }
	 if (num > 999.99)
     ab0:	1c20      	adds	r0, r4, #0
     ab2:	4b9e      	ldr	r3, [pc, #632]	; (d2c <set_seg_disp_num+0x29c>)
     ab4:	4798      	blx	r3
     ab6:	1c06      	adds	r6, r0, #0
     ab8:	1c0f      	adds	r7, r1, #0
     aba:	4b96      	ldr	r3, [pc, #600]	; (d14 <set_seg_disp_num+0x284>)
     abc:	4a94      	ldr	r2, [pc, #592]	; (d10 <set_seg_disp_num+0x280>)
     abe:	4d9c      	ldr	r5, [pc, #624]	; (d30 <set_seg_disp_num+0x2a0>)
     ac0:	47a8      	blx	r5
     ac2:	2800      	cmp	r0, #0
     ac4:	d035      	beq.n	b32 <set_seg_disp_num+0xa2>
	 {
		 sseg_num_num[0] = convert_to_7_seg((int)num/1000%10);
     ac6:	1c20      	adds	r0, r4, #0
     ac8:	4b9a      	ldr	r3, [pc, #616]	; (d34 <set_seg_disp_num+0x2a4>)
     aca:	4798      	blx	r3
     acc:	4680      	mov	r8, r0
     ace:	4c9a      	ldr	r4, [pc, #616]	; (d38 <set_seg_disp_num+0x2a8>)
 //Convert number to hex
 static uint8_t convert_to_7_seg(uint8_t num)
 {
	static const unsigned char DISPLAY1 [10] = {0x3F,0x06,0x5B,0x4F,0x66,0x6D,0x7D,0x07,0x7F,0x67};
	 
	 return DISPLAY1[num%10];
     ad0:	4d9a      	ldr	r5, [pc, #616]	; (d3c <set_seg_disp_num+0x2ac>)
	 {
		 num =-num;
	 }
	 if (num > 999.99)
	 {
		 sseg_num_num[0] = convert_to_7_seg((int)num/1000%10);
     ad2:	4b9b      	ldr	r3, [pc, #620]	; (d40 <set_seg_disp_num+0x2b0>)
     ad4:	4699      	mov	r9, r3
     ad6:	21fa      	movs	r1, #250	; 0xfa
     ad8:	0089      	lsls	r1, r1, #2
     ada:	4798      	blx	r3
     adc:	4f99      	ldr	r7, [pc, #612]	; (d44 <set_seg_disp_num+0x2b4>)
     ade:	210a      	movs	r1, #10
     ae0:	47b8      	blx	r7
 //Convert number to hex
 static uint8_t convert_to_7_seg(uint8_t num)
 {
	static const unsigned char DISPLAY1 [10] = {0x3F,0x06,0x5B,0x4F,0x66,0x6D,0x7D,0x07,0x7F,0x67};
	 
	 return DISPLAY1[num%10];
     ae2:	b2c8      	uxtb	r0, r1
     ae4:	4e98      	ldr	r6, [pc, #608]	; (d48 <set_seg_disp_num+0x2b8>)
     ae6:	210a      	movs	r1, #10
     ae8:	47b0      	blx	r6
     aea:	b2c9      	uxtb	r1, r1
	 {
		 num =-num;
	 }
	 if (num > 999.99)
	 {
		 sseg_num_num[0] = convert_to_7_seg((int)num/1000%10);
     aec:	5c6b      	ldrb	r3, [r5, r1]
     aee:	7023      	strb	r3, [r4, #0]
		 sseg_num_num[1] = convert_to_7_seg((int)num/100%10);
     af0:	4640      	mov	r0, r8
     af2:	2164      	movs	r1, #100	; 0x64
     af4:	47c8      	blx	r9
     af6:	210a      	movs	r1, #10
     af8:	47b8      	blx	r7
 //Convert number to hex
 static uint8_t convert_to_7_seg(uint8_t num)
 {
	static const unsigned char DISPLAY1 [10] = {0x3F,0x06,0x5B,0x4F,0x66,0x6D,0x7D,0x07,0x7F,0x67};
	 
	 return DISPLAY1[num%10];
     afa:	b2c8      	uxtb	r0, r1
     afc:	210a      	movs	r1, #10
     afe:	47b0      	blx	r6
     b00:	b2c9      	uxtb	r1, r1
		 num =-num;
	 }
	 if (num > 999.99)
	 {
		 sseg_num_num[0] = convert_to_7_seg((int)num/1000%10);
		 sseg_num_num[1] = convert_to_7_seg((int)num/100%10);
     b02:	5c6b      	ldrb	r3, [r5, r1]
     b04:	7063      	strb	r3, [r4, #1]
		 sseg_num_num[2] = convert_to_7_seg((int)num/10%10);
     b06:	4640      	mov	r0, r8
     b08:	210a      	movs	r1, #10
     b0a:	47c8      	blx	r9
     b0c:	210a      	movs	r1, #10
     b0e:	47b8      	blx	r7
 //Convert number to hex
 static uint8_t convert_to_7_seg(uint8_t num)
 {
	static const unsigned char DISPLAY1 [10] = {0x3F,0x06,0x5B,0x4F,0x66,0x6D,0x7D,0x07,0x7F,0x67};
	 
	 return DISPLAY1[num%10];
     b10:	b2c8      	uxtb	r0, r1
     b12:	210a      	movs	r1, #10
     b14:	47b0      	blx	r6
     b16:	b2c9      	uxtb	r1, r1
	 }
	 if (num > 999.99)
	 {
		 sseg_num_num[0] = convert_to_7_seg((int)num/1000%10);
		 sseg_num_num[1] = convert_to_7_seg((int)num/100%10);
		 sseg_num_num[2] = convert_to_7_seg((int)num/10%10);
     b18:	5c6b      	ldrb	r3, [r5, r1]
     b1a:	70a3      	strb	r3, [r4, #2]
		 sseg_num_num[3] = convert_to_7_seg((int)num%10) + 128;
     b1c:	4640      	mov	r0, r8
     b1e:	210a      	movs	r1, #10
     b20:	47b8      	blx	r7
 //Convert number to hex
 static uint8_t convert_to_7_seg(uint8_t num)
 {
	static const unsigned char DISPLAY1 [10] = {0x3F,0x06,0x5B,0x4F,0x66,0x6D,0x7D,0x07,0x7F,0x67};
	 
	 return DISPLAY1[num%10];
     b22:	b2c8      	uxtb	r0, r1
     b24:	210a      	movs	r1, #10
     b26:	47b0      	blx	r6
     b28:	b2c9      	uxtb	r1, r1
	 if (num > 999.99)
	 {
		 sseg_num_num[0] = convert_to_7_seg((int)num/1000%10);
		 sseg_num_num[1] = convert_to_7_seg((int)num/100%10);
		 sseg_num_num[2] = convert_to_7_seg((int)num/10%10);
		 sseg_num_num[3] = convert_to_7_seg((int)num%10) + 128;
     b2a:	5c6b      	ldrb	r3, [r5, r1]
     b2c:	3b80      	subs	r3, #128	; 0x80
     b2e:	70e3      	strb	r3, [r4, #3]
     b30:	e0de      	b.n	cf0 <set_seg_disp_num+0x260>
	 }else 	if (num > 99.99)
     b32:	1c30      	adds	r0, r6, #0
     b34:	1c39      	adds	r1, r7, #0
     b36:	4a78      	ldr	r2, [pc, #480]	; (d18 <set_seg_disp_num+0x288>)
     b38:	4b78      	ldr	r3, [pc, #480]	; (d1c <set_seg_disp_num+0x28c>)
     b3a:	4d7d      	ldr	r5, [pc, #500]	; (d30 <set_seg_disp_num+0x2a0>)
     b3c:	47a8      	blx	r5
     b3e:	2800      	cmp	r0, #0
     b40:	d03c      	beq.n	bbc <set_seg_disp_num+0x12c>
	 {
		 sseg_num_num[0] = convert_to_7_seg((int)num/100%10);
     b42:	1c20      	adds	r0, r4, #0
     b44:	4b7b      	ldr	r3, [pc, #492]	; (d34 <set_seg_disp_num+0x2a4>)
     b46:	4798      	blx	r3
     b48:	4680      	mov	r8, r0
     b4a:	4d7b      	ldr	r5, [pc, #492]	; (d38 <set_seg_disp_num+0x2a8>)
 //Convert number to hex
 static uint8_t convert_to_7_seg(uint8_t num)
 {
	static const unsigned char DISPLAY1 [10] = {0x3F,0x06,0x5B,0x4F,0x66,0x6D,0x7D,0x07,0x7F,0x67};
	 
	 return DISPLAY1[num%10];
     b4c:	4e7b      	ldr	r6, [pc, #492]	; (d3c <set_seg_disp_num+0x2ac>)
		 sseg_num_num[1] = convert_to_7_seg((int)num/100%10);
		 sseg_num_num[2] = convert_to_7_seg((int)num/10%10);
		 sseg_num_num[3] = convert_to_7_seg((int)num%10) + 128;
	 }else 	if (num > 99.99)
	 {
		 sseg_num_num[0] = convert_to_7_seg((int)num/100%10);
     b4e:	4b7c      	ldr	r3, [pc, #496]	; (d40 <set_seg_disp_num+0x2b0>)
     b50:	469a      	mov	sl, r3
     b52:	2164      	movs	r1, #100	; 0x64
     b54:	4798      	blx	r3
     b56:	4b7b      	ldr	r3, [pc, #492]	; (d44 <set_seg_disp_num+0x2b4>)
     b58:	4699      	mov	r9, r3
     b5a:	210a      	movs	r1, #10
     b5c:	4798      	blx	r3
 //Convert number to hex
 static uint8_t convert_to_7_seg(uint8_t num)
 {
	static const unsigned char DISPLAY1 [10] = {0x3F,0x06,0x5B,0x4F,0x66,0x6D,0x7D,0x07,0x7F,0x67};
	 
	 return DISPLAY1[num%10];
     b5e:	b2c8      	uxtb	r0, r1
     b60:	4f79      	ldr	r7, [pc, #484]	; (d48 <set_seg_disp_num+0x2b8>)
     b62:	210a      	movs	r1, #10
     b64:	47b8      	blx	r7
     b66:	b2c9      	uxtb	r1, r1
		 sseg_num_num[1] = convert_to_7_seg((int)num/100%10);
		 sseg_num_num[2] = convert_to_7_seg((int)num/10%10);
		 sseg_num_num[3] = convert_to_7_seg((int)num%10) + 128;
	 }else 	if (num > 99.99)
	 {
		 sseg_num_num[0] = convert_to_7_seg((int)num/100%10);
     b68:	5c73      	ldrb	r3, [r6, r1]
     b6a:	702b      	strb	r3, [r5, #0]
		 sseg_num_num[1] = convert_to_7_seg((int)num/10%10);
     b6c:	4640      	mov	r0, r8
     b6e:	210a      	movs	r1, #10
     b70:	47d0      	blx	sl
     b72:	210a      	movs	r1, #10
     b74:	47c8      	blx	r9
 //Convert number to hex
 static uint8_t convert_to_7_seg(uint8_t num)
 {
	static const unsigned char DISPLAY1 [10] = {0x3F,0x06,0x5B,0x4F,0x66,0x6D,0x7D,0x07,0x7F,0x67};
	 
	 return DISPLAY1[num%10];
     b76:	b2c8      	uxtb	r0, r1
     b78:	210a      	movs	r1, #10
     b7a:	47b8      	blx	r7
     b7c:	b2c9      	uxtb	r1, r1
		 sseg_num_num[2] = convert_to_7_seg((int)num/10%10);
		 sseg_num_num[3] = convert_to_7_seg((int)num%10) + 128;
	 }else 	if (num > 99.99)
	 {
		 sseg_num_num[0] = convert_to_7_seg((int)num/100%10);
		 sseg_num_num[1] = convert_to_7_seg((int)num/10%10);
     b7e:	5c73      	ldrb	r3, [r6, r1]
     b80:	706b      	strb	r3, [r5, #1]
		 sseg_num_num[2] = convert_to_7_seg((int)num%10) + 128;
     b82:	4640      	mov	r0, r8
     b84:	210a      	movs	r1, #10
     b86:	47c8      	blx	r9
 //Convert number to hex
 static uint8_t convert_to_7_seg(uint8_t num)
 {
	static const unsigned char DISPLAY1 [10] = {0x3F,0x06,0x5B,0x4F,0x66,0x6D,0x7D,0x07,0x7F,0x67};
	 
	 return DISPLAY1[num%10];
     b88:	b2c8      	uxtb	r0, r1
     b8a:	210a      	movs	r1, #10
     b8c:	47b8      	blx	r7
     b8e:	b2c9      	uxtb	r1, r1
		 sseg_num_num[3] = convert_to_7_seg((int)num%10) + 128;
	 }else 	if (num > 99.99)
	 {
		 sseg_num_num[0] = convert_to_7_seg((int)num/100%10);
		 sseg_num_num[1] = convert_to_7_seg((int)num/10%10);
		 sseg_num_num[2] = convert_to_7_seg((int)num%10) + 128;
     b90:	5c73      	ldrb	r3, [r6, r1]
     b92:	3b80      	subs	r3, #128	; 0x80
     b94:	70ab      	strb	r3, [r5, #2]
		 sseg_num_num[3] = convert_to_7_seg((num - (int)num)*10);
     b96:	4640      	mov	r0, r8
     b98:	4b6c      	ldr	r3, [pc, #432]	; (d4c <set_seg_disp_num+0x2bc>)
     b9a:	4798      	blx	r3
     b9c:	1c01      	adds	r1, r0, #0
     b9e:	1c20      	adds	r0, r4, #0
     ba0:	4b6b      	ldr	r3, [pc, #428]	; (d50 <set_seg_disp_num+0x2c0>)
     ba2:	4798      	blx	r3
     ba4:	496b      	ldr	r1, [pc, #428]	; (d54 <set_seg_disp_num+0x2c4>)
     ba6:	4b6c      	ldr	r3, [pc, #432]	; (d58 <set_seg_disp_num+0x2c8>)
     ba8:	4798      	blx	r3
     baa:	4b6c      	ldr	r3, [pc, #432]	; (d5c <set_seg_disp_num+0x2cc>)
     bac:	4798      	blx	r3
 //Convert number to hex
 static uint8_t convert_to_7_seg(uint8_t num)
 {
	static const unsigned char DISPLAY1 [10] = {0x3F,0x06,0x5B,0x4F,0x66,0x6D,0x7D,0x07,0x7F,0x67};
	 
	 return DISPLAY1[num%10];
     bae:	b2c0      	uxtb	r0, r0
     bb0:	210a      	movs	r1, #10
     bb2:	47b8      	blx	r7
     bb4:	b2c9      	uxtb	r1, r1
	 }else 	if (num > 99.99)
	 {
		 sseg_num_num[0] = convert_to_7_seg((int)num/100%10);
		 sseg_num_num[1] = convert_to_7_seg((int)num/10%10);
		 sseg_num_num[2] = convert_to_7_seg((int)num%10) + 128;
		 sseg_num_num[3] = convert_to_7_seg((num - (int)num)*10);
     bb6:	5c73      	ldrb	r3, [r6, r1]
     bb8:	70eb      	strb	r3, [r5, #3]
     bba:	e099      	b.n	cf0 <set_seg_disp_num+0x260>
	 }else if (num > 9.999)
     bbc:	1c30      	adds	r0, r6, #0
     bbe:	1c39      	adds	r1, r7, #0
     bc0:	4a57      	ldr	r2, [pc, #348]	; (d20 <set_seg_disp_num+0x290>)
     bc2:	4b58      	ldr	r3, [pc, #352]	; (d24 <set_seg_disp_num+0x294>)
     bc4:	4d5a      	ldr	r5, [pc, #360]	; (d30 <set_seg_disp_num+0x2a0>)
     bc6:	47a8      	blx	r5
     bc8:	2800      	cmp	r0, #0
     bca:	d047      	beq.n	c5c <set_seg_disp_num+0x1cc>
	 {
		 sseg_num_num[0] = convert_to_7_seg((int)num/10%10);
     bcc:	4b59      	ldr	r3, [pc, #356]	; (d34 <set_seg_disp_num+0x2a4>)
     bce:	469b      	mov	fp, r3
     bd0:	1c20      	adds	r0, r4, #0
     bd2:	4798      	blx	r3
     bd4:	4680      	mov	r8, r0
     bd6:	4d58      	ldr	r5, [pc, #352]	; (d38 <set_seg_disp_num+0x2a8>)
 //Convert number to hex
 static uint8_t convert_to_7_seg(uint8_t num)
 {
	static const unsigned char DISPLAY1 [10] = {0x3F,0x06,0x5B,0x4F,0x66,0x6D,0x7D,0x07,0x7F,0x67};
	 
	 return DISPLAY1[num%10];
     bd8:	4e58      	ldr	r6, [pc, #352]	; (d3c <set_seg_disp_num+0x2ac>)
		 sseg_num_num[1] = convert_to_7_seg((int)num/10%10);
		 sseg_num_num[2] = convert_to_7_seg((int)num%10) + 128;
		 sseg_num_num[3] = convert_to_7_seg((num - (int)num)*10);
	 }else if (num > 9.999)
	 {
		 sseg_num_num[0] = convert_to_7_seg((int)num/10%10);
     bda:	210a      	movs	r1, #10
     bdc:	4b58      	ldr	r3, [pc, #352]	; (d40 <set_seg_disp_num+0x2b0>)
     bde:	4798      	blx	r3
     be0:	4b58      	ldr	r3, [pc, #352]	; (d44 <set_seg_disp_num+0x2b4>)
     be2:	4699      	mov	r9, r3
     be4:	210a      	movs	r1, #10
     be6:	4798      	blx	r3
 //Convert number to hex
 static uint8_t convert_to_7_seg(uint8_t num)
 {
	static const unsigned char DISPLAY1 [10] = {0x3F,0x06,0x5B,0x4F,0x66,0x6D,0x7D,0x07,0x7F,0x67};
	 
	 return DISPLAY1[num%10];
     be8:	b2c8      	uxtb	r0, r1
     bea:	4f57      	ldr	r7, [pc, #348]	; (d48 <set_seg_disp_num+0x2b8>)
     bec:	210a      	movs	r1, #10
     bee:	47b8      	blx	r7
     bf0:	b2c9      	uxtb	r1, r1
		 sseg_num_num[1] = convert_to_7_seg((int)num/10%10);
		 sseg_num_num[2] = convert_to_7_seg((int)num%10) + 128;
		 sseg_num_num[3] = convert_to_7_seg((num - (int)num)*10);
	 }else if (num > 9.999)
	 {
		 sseg_num_num[0] = convert_to_7_seg((int)num/10%10);
     bf2:	5c73      	ldrb	r3, [r6, r1]
     bf4:	702b      	strb	r3, [r5, #0]
		 sseg_num_num[1] = convert_to_7_seg((int)num%10) + 128;
     bf6:	4640      	mov	r0, r8
     bf8:	210a      	movs	r1, #10
     bfa:	47c8      	blx	r9
 //Convert number to hex
 static uint8_t convert_to_7_seg(uint8_t num)
 {
	static const unsigned char DISPLAY1 [10] = {0x3F,0x06,0x5B,0x4F,0x66,0x6D,0x7D,0x07,0x7F,0x67};
	 
	 return DISPLAY1[num%10];
     bfc:	b2c8      	uxtb	r0, r1
     bfe:	210a      	movs	r1, #10
     c00:	47b8      	blx	r7
     c02:	b2c9      	uxtb	r1, r1
		 sseg_num_num[2] = convert_to_7_seg((int)num%10) + 128;
		 sseg_num_num[3] = convert_to_7_seg((num - (int)num)*10);
	 }else if (num > 9.999)
	 {
		 sseg_num_num[0] = convert_to_7_seg((int)num/10%10);
		 sseg_num_num[1] = convert_to_7_seg((int)num%10) + 128;
     c04:	5c73      	ldrb	r3, [r6, r1]
     c06:	3b80      	subs	r3, #128	; 0x80
     c08:	706b      	strb	r3, [r5, #1]
		 sseg_num_num[2] = convert_to_7_seg((num - (int)num)*10);
     c0a:	4b50      	ldr	r3, [pc, #320]	; (d4c <set_seg_disp_num+0x2bc>)
     c0c:	469a      	mov	sl, r3
     c0e:	4640      	mov	r0, r8
     c10:	4798      	blx	r3
     c12:	1c01      	adds	r1, r0, #0
     c14:	4b4e      	ldr	r3, [pc, #312]	; (d50 <set_seg_disp_num+0x2c0>)
     c16:	4699      	mov	r9, r3
     c18:	1c20      	adds	r0, r4, #0
     c1a:	4798      	blx	r3
     c1c:	4b4e      	ldr	r3, [pc, #312]	; (d58 <set_seg_disp_num+0x2c8>)
     c1e:	4698      	mov	r8, r3
     c20:	494c      	ldr	r1, [pc, #304]	; (d54 <set_seg_disp_num+0x2c4>)
     c22:	4798      	blx	r3
     c24:	4b4d      	ldr	r3, [pc, #308]	; (d5c <set_seg_disp_num+0x2cc>)
     c26:	4798      	blx	r3
 //Convert number to hex
 static uint8_t convert_to_7_seg(uint8_t num)
 {
	static const unsigned char DISPLAY1 [10] = {0x3F,0x06,0x5B,0x4F,0x66,0x6D,0x7D,0x07,0x7F,0x67};
	 
	 return DISPLAY1[num%10];
     c28:	b2c0      	uxtb	r0, r0
     c2a:	210a      	movs	r1, #10
     c2c:	47b8      	blx	r7
     c2e:	b2c9      	uxtb	r1, r1
		 sseg_num_num[3] = convert_to_7_seg((num - (int)num)*10);
	 }else if (num > 9.999)
	 {
		 sseg_num_num[0] = convert_to_7_seg((int)num/10%10);
		 sseg_num_num[1] = convert_to_7_seg((int)num%10) + 128;
		 sseg_num_num[2] = convert_to_7_seg((num - (int)num)*10);
     c30:	5c73      	ldrb	r3, [r6, r1]
     c32:	70ab      	strb	r3, [r5, #2]
		 sseg_num_num[3] = convert_to_7_seg((num * 10 - (int)(num* 10))*10);
     c34:	1c20      	adds	r0, r4, #0
     c36:	4947      	ldr	r1, [pc, #284]	; (d54 <set_seg_disp_num+0x2c4>)
     c38:	47c0      	blx	r8
     c3a:	1c04      	adds	r4, r0, #0
     c3c:	47d8      	blx	fp
     c3e:	47d0      	blx	sl
     c40:	1c01      	adds	r1, r0, #0
     c42:	1c20      	adds	r0, r4, #0
     c44:	47c8      	blx	r9
     c46:	4943      	ldr	r1, [pc, #268]	; (d54 <set_seg_disp_num+0x2c4>)
     c48:	47c0      	blx	r8
     c4a:	4b44      	ldr	r3, [pc, #272]	; (d5c <set_seg_disp_num+0x2cc>)
     c4c:	4798      	blx	r3
 //Convert number to hex
 static uint8_t convert_to_7_seg(uint8_t num)
 {
	static const unsigned char DISPLAY1 [10] = {0x3F,0x06,0x5B,0x4F,0x66,0x6D,0x7D,0x07,0x7F,0x67};
	 
	 return DISPLAY1[num%10];
     c4e:	b2c0      	uxtb	r0, r0
     c50:	210a      	movs	r1, #10
     c52:	47b8      	blx	r7
     c54:	b2c9      	uxtb	r1, r1
	 }else if (num > 9.999)
	 {
		 sseg_num_num[0] = convert_to_7_seg((int)num/10%10);
		 sseg_num_num[1] = convert_to_7_seg((int)num%10) + 128;
		 sseg_num_num[2] = convert_to_7_seg((num - (int)num)*10);
		 sseg_num_num[3] = convert_to_7_seg((num * 10 - (int)(num* 10))*10);
     c56:	5c73      	ldrb	r3, [r6, r1]
     c58:	70eb      	strb	r3, [r5, #3]
     c5a:	e049      	b.n	cf0 <set_seg_disp_num+0x260>
	 }else
	 {
		 sseg_num_num[0] = convert_to_7_seg((int)num) + 128;
     c5c:	4b35      	ldr	r3, [pc, #212]	; (d34 <set_seg_disp_num+0x2a4>)
     c5e:	469a      	mov	sl, r3
     c60:	1c20      	adds	r0, r4, #0
     c62:	4798      	blx	r3
     c64:	1c05      	adds	r5, r0, #0
     c66:	4e34      	ldr	r6, [pc, #208]	; (d38 <set_seg_disp_num+0x2a8>)
 //Convert number to hex
 static uint8_t convert_to_7_seg(uint8_t num)
 {
	static const unsigned char DISPLAY1 [10] = {0x3F,0x06,0x5B,0x4F,0x66,0x6D,0x7D,0x07,0x7F,0x67};
	 
	 return DISPLAY1[num%10];
     c68:	4f34      	ldr	r7, [pc, #208]	; (d3c <set_seg_disp_num+0x2ac>)
     c6a:	b2c0      	uxtb	r0, r0
     c6c:	4b36      	ldr	r3, [pc, #216]	; (d48 <set_seg_disp_num+0x2b8>)
     c6e:	4698      	mov	r8, r3
     c70:	210a      	movs	r1, #10
     c72:	4798      	blx	r3
     c74:	b2c9      	uxtb	r1, r1
		 sseg_num_num[1] = convert_to_7_seg((int)num%10) + 128;
		 sseg_num_num[2] = convert_to_7_seg((num - (int)num)*10);
		 sseg_num_num[3] = convert_to_7_seg((num * 10 - (int)(num* 10))*10);
	 }else
	 {
		 sseg_num_num[0] = convert_to_7_seg((int)num) + 128;
     c76:	5c7b      	ldrb	r3, [r7, r1]
     c78:	3b80      	subs	r3, #128	; 0x80
     c7a:	7033      	strb	r3, [r6, #0]
		 sseg_num_num[1] = convert_to_7_seg((num - (int)num)*10);
     c7c:	4b33      	ldr	r3, [pc, #204]	; (d4c <set_seg_disp_num+0x2bc>)
     c7e:	4699      	mov	r9, r3
     c80:	1c28      	adds	r0, r5, #0
     c82:	4798      	blx	r3
     c84:	1c01      	adds	r1, r0, #0
     c86:	1c20      	adds	r0, r4, #0
     c88:	4b31      	ldr	r3, [pc, #196]	; (d50 <set_seg_disp_num+0x2c0>)
     c8a:	4798      	blx	r3
     c8c:	4d32      	ldr	r5, [pc, #200]	; (d58 <set_seg_disp_num+0x2c8>)
     c8e:	4931      	ldr	r1, [pc, #196]	; (d54 <set_seg_disp_num+0x2c4>)
     c90:	47a8      	blx	r5
     c92:	4b32      	ldr	r3, [pc, #200]	; (d5c <set_seg_disp_num+0x2cc>)
     c94:	469b      	mov	fp, r3
     c96:	4798      	blx	r3
 //Convert number to hex
 static uint8_t convert_to_7_seg(uint8_t num)
 {
	static const unsigned char DISPLAY1 [10] = {0x3F,0x06,0x5B,0x4F,0x66,0x6D,0x7D,0x07,0x7F,0x67};
	 
	 return DISPLAY1[num%10];
     c98:	b2c0      	uxtb	r0, r0
     c9a:	210a      	movs	r1, #10
     c9c:	47c0      	blx	r8
     c9e:	b2c9      	uxtb	r1, r1
		 sseg_num_num[2] = convert_to_7_seg((num - (int)num)*10);
		 sseg_num_num[3] = convert_to_7_seg((num * 10 - (int)(num* 10))*10);
	 }else
	 {
		 sseg_num_num[0] = convert_to_7_seg((int)num) + 128;
		 sseg_num_num[1] = convert_to_7_seg((num - (int)num)*10);
     ca0:	5c7b      	ldrb	r3, [r7, r1]
     ca2:	7073      	strb	r3, [r6, #1]
		 sseg_num_num[2] = convert_to_7_seg((num * 10 - (int)(num* 10))*10);
     ca4:	1c20      	adds	r0, r4, #0
     ca6:	492b      	ldr	r1, [pc, #172]	; (d54 <set_seg_disp_num+0x2c4>)
     ca8:	47a8      	blx	r5
     caa:	9001      	str	r0, [sp, #4]
     cac:	47d0      	blx	sl
     cae:	47c8      	blx	r9
     cb0:	1c01      	adds	r1, r0, #0
     cb2:	9801      	ldr	r0, [sp, #4]
     cb4:	4b26      	ldr	r3, [pc, #152]	; (d50 <set_seg_disp_num+0x2c0>)
     cb6:	4798      	blx	r3
     cb8:	4926      	ldr	r1, [pc, #152]	; (d54 <set_seg_disp_num+0x2c4>)
     cba:	47a8      	blx	r5
     cbc:	47d8      	blx	fp
 //Convert number to hex
 static uint8_t convert_to_7_seg(uint8_t num)
 {
	static const unsigned char DISPLAY1 [10] = {0x3F,0x06,0x5B,0x4F,0x66,0x6D,0x7D,0x07,0x7F,0x67};
	 
	 return DISPLAY1[num%10];
     cbe:	b2c0      	uxtb	r0, r0
     cc0:	210a      	movs	r1, #10
     cc2:	47c0      	blx	r8
     cc4:	b2c9      	uxtb	r1, r1
		 sseg_num_num[3] = convert_to_7_seg((num * 10 - (int)(num* 10))*10);
	 }else
	 {
		 sseg_num_num[0] = convert_to_7_seg((int)num) + 128;
		 sseg_num_num[1] = convert_to_7_seg((num - (int)num)*10);
		 sseg_num_num[2] = convert_to_7_seg((num * 10 - (int)(num* 10))*10);
     cc6:	5c7b      	ldrb	r3, [r7, r1]
     cc8:	70b3      	strb	r3, [r6, #2]
		 sseg_num_num[3] = convert_to_7_seg((num * 100 - (int)(num* 100))*10);
     cca:	1c20      	adds	r0, r4, #0
     ccc:	4924      	ldr	r1, [pc, #144]	; (d60 <set_seg_disp_num+0x2d0>)
     cce:	47a8      	blx	r5
     cd0:	1c04      	adds	r4, r0, #0
     cd2:	47d0      	blx	sl
     cd4:	47c8      	blx	r9
     cd6:	1c01      	adds	r1, r0, #0
     cd8:	1c20      	adds	r0, r4, #0
     cda:	4b1d      	ldr	r3, [pc, #116]	; (d50 <set_seg_disp_num+0x2c0>)
     cdc:	4798      	blx	r3
     cde:	491d      	ldr	r1, [pc, #116]	; (d54 <set_seg_disp_num+0x2c4>)
     ce0:	47a8      	blx	r5
     ce2:	47d8      	blx	fp
 //Convert number to hex
 static uint8_t convert_to_7_seg(uint8_t num)
 {
	static const unsigned char DISPLAY1 [10] = {0x3F,0x06,0x5B,0x4F,0x66,0x6D,0x7D,0x07,0x7F,0x67};
	 
	 return DISPLAY1[num%10];
     ce4:	b2c0      	uxtb	r0, r0
     ce6:	210a      	movs	r1, #10
     ce8:	47c0      	blx	r8
     cea:	b2c9      	uxtb	r1, r1
	 }else
	 {
		 sseg_num_num[0] = convert_to_7_seg((int)num) + 128;
		 sseg_num_num[1] = convert_to_7_seg((num - (int)num)*10);
		 sseg_num_num[2] = convert_to_7_seg((num * 10 - (int)(num* 10))*10);
		 sseg_num_num[3] = convert_to_7_seg((num * 100 - (int)(num* 100))*10);
     cec:	5c7b      	ldrb	r3, [r7, r1]
     cee:	70f3      	strb	r3, [r6, #3]
	 }
	 //Failsafe for brightness, always turn display on at least the lowest brightness
	 if (sseg_brightness < BCM_MIN_STEP)
     cf0:	4b1c      	ldr	r3, [pc, #112]	; (d64 <set_seg_disp_num+0x2d4>)
     cf2:	781b      	ldrb	r3, [r3, #0]
     cf4:	b2db      	uxtb	r3, r3
     cf6:	2b0f      	cmp	r3, #15
     cf8:	d802      	bhi.n	d00 <set_seg_disp_num+0x270>
	 {
		 sseg_brightness = BCM_MIN_STEP;
     cfa:	2210      	movs	r2, #16
     cfc:	4b19      	ldr	r3, [pc, #100]	; (d64 <set_seg_disp_num+0x2d4>)
     cfe:	701a      	strb	r2, [r3, #0]
	 }

 }
     d00:	b003      	add	sp, #12
     d02:	bc3c      	pop	{r2, r3, r4, r5}
     d04:	4690      	mov	r8, r2
     d06:	4699      	mov	r9, r3
     d08:	46a2      	mov	sl, r4
     d0a:	46ab      	mov	fp, r5
     d0c:	bdf0      	pop	{r4, r5, r6, r7, pc}
     d0e:	46c0      	nop			; (mov r8, r8)
     d10:	851eb852 	.word	0x851eb852
     d14:	408f3feb 	.word	0x408f3feb
     d18:	28f5c28f 	.word	0x28f5c28f
     d1c:	4058ff5c 	.word	0x4058ff5c
     d20:	ed916873 	.word	0xed916873
     d24:	4023ff7c 	.word	0x4023ff7c
     d28:	00006b3d 	.word	0x00006b3d
     d2c:	00009565 	.word	0x00009565
     d30:	00006af1 	.word	0x00006af1
     d34:	000077e1 	.word	0x000077e1
     d38:	200002b4 	.word	0x200002b4
     d3c:	0000998c 	.word	0x0000998c
     d40:	000069d9 	.word	0x000069d9
     d44:	00006a85 	.word	0x00006a85
     d48:	000069c5 	.word	0x000069c5
     d4c:	00007821 	.word	0x00007821
     d50:	000074f5 	.word	0x000074f5
     d54:	41200000 	.word	0x41200000
     d58:	000072a1 	.word	0x000072a1
     d5c:	00006bd1 	.word	0x00006bd1
     d60:	42c80000 	.word	0x42c80000
     d64:	200002bc 	.word	0x200002bc

00000d68 <sseg_set_display_brightness>:

//Set screen brightness
void sseg_set_display_brightness(uint8_t level)
{
	sseg_brightness = level;
     d68:	4b01      	ldr	r3, [pc, #4]	; (d70 <sseg_set_display_brightness+0x8>)
     d6a:	7018      	strb	r0, [r3, #0]
}
     d6c:	4770      	bx	lr
     d6e:	46c0      	nop			; (mov r8, r8)
     d70:	200002bc 	.word	0x200002bc

00000d74 <sseg_update_display>:

//Redraw display and handle leds
void sseg_update_display(void)
{
     d74:	b508      	push	{r3, lr}

	static uint8_t bcm_cycle = 16;
	static uint8_t active_num = 0;
	static uint8_t buf[2];

	active_num ++;
     d76:	4b33      	ldr	r3, [pc, #204]	; (e44 <sseg_update_display+0xd0>)
     d78:	781b      	ldrb	r3, [r3, #0]
     d7a:	3301      	adds	r3, #1
     d7c:	b2db      	uxtb	r3, r3
	if (active_num >= 4)
     d7e:	2b03      	cmp	r3, #3
     d80:	d802      	bhi.n	d88 <sseg_update_display+0x14>

	static uint8_t bcm_cycle = 16;
	static uint8_t active_num = 0;
	static uint8_t buf[2];

	active_num ++;
     d82:	4a30      	ldr	r2, [pc, #192]	; (e44 <sseg_update_display+0xd0>)
     d84:	7013      	strb	r3, [r2, #0]
     d86:	e013      	b.n	db0 <sseg_update_display+0x3c>
	if (active_num >= 4)
	{
		active_num = 0;
     d88:	2200      	movs	r2, #0
     d8a:	4b2e      	ldr	r3, [pc, #184]	; (e44 <sseg_update_display+0xd0>)
     d8c:	701a      	strb	r2, [r3, #0]
		//all segs done, go to next level
		bcm_cycle = bcm_cycle << 1;
     d8e:	4b2e      	ldr	r3, [pc, #184]	; (e48 <sseg_update_display+0xd4>)
     d90:	781b      	ldrb	r3, [r3, #0]
     d92:	005b      	lsls	r3, r3, #1
     d94:	b2db      	uxtb	r3, r3
		//reset
		if (bcm_cycle == 0)
     d96:	2b00      	cmp	r3, #0
     d98:	d002      	beq.n	da0 <sseg_update_display+0x2c>
	active_num ++;
	if (active_num >= 4)
	{
		active_num = 0;
		//all segs done, go to next level
		bcm_cycle = bcm_cycle << 1;
     d9a:	4a2b      	ldr	r2, [pc, #172]	; (e48 <sseg_update_display+0xd4>)
     d9c:	7013      	strb	r3, [r2, #0]
     d9e:	e002      	b.n	da6 <sseg_update_display+0x32>
		//reset
		if (bcm_cycle == 0)
		{
			bcm_cycle = BCM_MIN_STEP;
     da0:	2210      	movs	r2, #16
     da2:	4b29      	ldr	r3, [pc, #164]	; (e48 <sseg_update_display+0xd4>)
     da4:	701a      	strb	r2, [r3, #0]
		}
		tc_set_top_value(&display_timer_instance, bcm_cycle);
     da6:	4b28      	ldr	r3, [pc, #160]	; (e48 <sseg_update_display+0xd4>)
     da8:	7819      	ldrb	r1, [r3, #0]
     daa:	4828      	ldr	r0, [pc, #160]	; (e4c <sseg_update_display+0xd8>)
     dac:	4b28      	ldr	r3, [pc, #160]	; (e50 <sseg_update_display+0xdc>)
     dae:	4798      	blx	r3
	}

	// 	//Get the proper number
	buf[0] = (sseg_num_num[active_num] & 0xf0);	//high 7seg nibble + rgb
     db0:	4b24      	ldr	r3, [pc, #144]	; (e44 <sseg_update_display+0xd0>)
     db2:	781b      	ldrb	r3, [r3, #0]
     db4:	4a27      	ldr	r2, [pc, #156]	; (e54 <sseg_update_display+0xe0>)
     db6:	5cd2      	ldrb	r2, [r2, r3]
     db8:	230f      	movs	r3, #15
     dba:	1c11      	adds	r1, r2, #0
     dbc:	4399      	bics	r1, r3
     dbe:	4b26      	ldr	r3, [pc, #152]	; (e58 <sseg_update_display+0xe4>)
     dc0:	7019      	strb	r1, [r3, #0]

	//Light led for each bcm level
	if(!(sseg_leds.red_set & bcm_cycle))
     dc2:	4b21      	ldr	r3, [pc, #132]	; (e48 <sseg_update_display+0xd4>)
     dc4:	781b      	ldrb	r3, [r3, #0]
     dc6:	4825      	ldr	r0, [pc, #148]	; (e5c <sseg_update_display+0xe8>)
     dc8:	7800      	ldrb	r0, [r0, #0]
     dca:	4218      	tst	r0, r3
     dcc:	d102      	bne.n	dd4 <sseg_update_display+0x60>
	{
		buf[0] += RED_LED_BIT;
     dce:	3104      	adds	r1, #4
     dd0:	4821      	ldr	r0, [pc, #132]	; (e58 <sseg_update_display+0xe4>)
     dd2:	7001      	strb	r1, [r0, #0]
	}
	if(!(sseg_leds.green_set & bcm_cycle))
     dd4:	4921      	ldr	r1, [pc, #132]	; (e5c <sseg_update_display+0xe8>)
     dd6:	7849      	ldrb	r1, [r1, #1]
     dd8:	4219      	tst	r1, r3
     dda:	d103      	bne.n	de4 <sseg_update_display+0x70>
	{
		buf[0] += GREEN_LED_BIT;
     ddc:	491e      	ldr	r1, [pc, #120]	; (e58 <sseg_update_display+0xe4>)
     dde:	7808      	ldrb	r0, [r1, #0]
     de0:	3002      	adds	r0, #2
     de2:	7008      	strb	r0, [r1, #0]
	}
	if(!(sseg_leds.blue_set & bcm_cycle))
     de4:	491d      	ldr	r1, [pc, #116]	; (e5c <sseg_update_display+0xe8>)
     de6:	7889      	ldrb	r1, [r1, #2]
     de8:	4219      	tst	r1, r3
     dea:	d103      	bne.n	df4 <sseg_update_display+0x80>
	{
		buf[0] += BLUE_LED_BIT;
     dec:	4b1a      	ldr	r3, [pc, #104]	; (e58 <sseg_update_display+0xe4>)
     dee:	7819      	ldrb	r1, [r3, #0]
     df0:	3108      	adds	r1, #8
     df2:	7019      	strb	r1, [r3, #0]
	}

	buf[1] = (sseg_num_num[active_num] & 0x0f) ;	//U1!!!!!!!!!!!!!!!!!!	//low 7seg nibble	&& segment select is at high nibble
     df4:	230f      	movs	r3, #15
     df6:	401a      	ands	r2, r3
     df8:	4b17      	ldr	r3, [pc, #92]	; (e58 <sseg_update_display+0xe4>)
     dfa:	705a      	strb	r2, [r3, #1]

	spi_select_slave(&spi_master_instance, &slave, true);
     dfc:	4818      	ldr	r0, [pc, #96]	; (e60 <sseg_update_display+0xec>)
     dfe:	4919      	ldr	r1, [pc, #100]	; (e64 <sseg_update_display+0xf0>)
     e00:	2201      	movs	r2, #1
     e02:	4b19      	ldr	r3, [pc, #100]	; (e68 <sseg_update_display+0xf4>)
     e04:	4798      	blx	r3

	if(sseg_brightness & bcm_cycle)
     e06:	4b19      	ldr	r3, [pc, #100]	; (e6c <sseg_update_display+0xf8>)
     e08:	781a      	ldrb	r2, [r3, #0]
     e0a:	4b0f      	ldr	r3, [pc, #60]	; (e48 <sseg_update_display+0xd4>)
     e0c:	781b      	ldrb	r3, [r3, #0]
     e0e:	421a      	tst	r2, r3
     e10:	d00d      	beq.n	e2e <sseg_update_display+0xba>
	{
		buf[1] +=  (~(1 << (7 - active_num)) & 0xf0);
     e12:	4b11      	ldr	r3, [pc, #68]	; (e58 <sseg_update_display+0xe4>)
     e14:	4a0b      	ldr	r2, [pc, #44]	; (e44 <sseg_update_display+0xd0>)
     e16:	7812      	ldrb	r2, [r2, #0]
     e18:	2107      	movs	r1, #7
     e1a:	1a8a      	subs	r2, r1, r2
     e1c:	2101      	movs	r1, #1
     e1e:	4091      	lsls	r1, r2
     e20:	43ca      	mvns	r2, r1
     e22:	210f      	movs	r1, #15
     e24:	438a      	bics	r2, r1
     e26:	7859      	ldrb	r1, [r3, #1]
     e28:	1852      	adds	r2, r2, r1
     e2a:	705a      	strb	r2, [r3, #1]
     e2c:	e003      	b.n	e36 <sseg_update_display+0xc2>
	
	}else{
		buf[1] += 0xF0;
     e2e:	4b0a      	ldr	r3, [pc, #40]	; (e58 <sseg_update_display+0xe4>)
     e30:	785a      	ldrb	r2, [r3, #1]
     e32:	3a10      	subs	r2, #16
     e34:	705a      	strb	r2, [r3, #1]
	}

	spi_write_buffer_job(&spi_master_instance, buf, 2);
     e36:	480a      	ldr	r0, [pc, #40]	; (e60 <sseg_update_display+0xec>)
     e38:	4907      	ldr	r1, [pc, #28]	; (e58 <sseg_update_display+0xe4>)
     e3a:	2202      	movs	r2, #2
     e3c:	4b0c      	ldr	r3, [pc, #48]	; (e70 <sseg_update_display+0xfc>)
     e3e:	4798      	blx	r3

}
     e40:	bd08      	pop	{r3, pc}
     e42:	46c0      	nop			; (mov r8, r8)
     e44:	200000d0 	.word	0x200000d0
     e48:	20000002 	.word	0x20000002
     e4c:	20000270 	.word	0x20000270
     e50:	00003129 	.word	0x00003129
     e54:	200002b4 	.word	0x200002b4
     e58:	200000cc 	.word	0x200000cc
     e5c:	200002b0 	.word	0x200002b0
     e60:	20000230 	.word	0x20000230
     e64:	2000026c 	.word	0x2000026c
     e68:	00001e7d 	.word	0x00001e7d
     e6c:	200002bc 	.word	0x200002bc
     e70:	00001f81 	.word	0x00001f81

00000e74 <configure_spi_master>:
	
	system_pinmux_pin_set_config(PIN_PA10, &config);	//Todo, set this to read from struct
}

 void configure_spi_master(void)
{
     e74:	b5f0      	push	{r4, r5, r6, r7, lr}
     e76:	b091      	sub	sp, #68	; 0x44
		const struct spi_slave_inst_config *const config)
{
	Assert(slave);
	Assert(config);

	slave->ss_pin          = config->ss_pin;
     e78:	4c2c      	ldr	r4, [pc, #176]	; (f2c <configure_spi_master+0xb8>)
     e7a:	2309      	movs	r3, #9
     e7c:	7023      	strb	r3, [r4, #0]
	slave->address_enabled = config->address_enabled;
     e7e:	2300      	movs	r3, #0
     e80:	7063      	strb	r3, [r4, #1]
	slave->address         = config->address;
     e82:	70a3      	strb	r3, [r4, #2]
	/* Sanity check arguments */
	Assert(config);

	/* Default configuration values */
	config->direction  = PORT_PIN_DIR_INPUT;
	config->input_pull = PORT_PIN_PULL_UP;
     e84:	a901      	add	r1, sp, #4
     e86:	2201      	movs	r2, #1
     e88:	704a      	strb	r2, [r1, #1]
	config->powersave  = false;
     e8a:	708b      	strb	r3, [r1, #2]
	/* Get default config for pin */
	struct port_config pin_conf;
	port_get_config_defaults(&pin_conf);

	/* Edit config to set the pin as output */
	pin_conf.direction = PORT_PIN_DIR_OUTPUT;
     e8c:	700a      	strb	r2, [r1, #0]

	/* Set config on Slave Select pin */
	port_pin_set_config(slave->ss_pin, &pin_conf);
     e8e:	2009      	movs	r0, #9
     e90:	4b27      	ldr	r3, [pc, #156]	; (f30 <configure_spi_master+0xbc>)
     e92:	4798      	blx	r3
	port_pin_set_output_level(slave->ss_pin, true);
     e94:	7823      	ldrb	r3, [r4, #0]
	uint8_t group_index = (gpio_pin / 32);

	/* Array of available ports */
	Port *const ports[PORT_INST_NUM] = PORT_INSTS;

	if (port_index < PORT_INST_NUM) {
     e96:	09d9      	lsrs	r1, r3, #7
		return &(ports[port_index]->Group[group_index]);
	} else {
		Assert(false);
		return NULL;
     e98:	2200      	movs	r2, #0
	uint8_t group_index = (gpio_pin / 32);

	/* Array of available ports */
	Port *const ports[PORT_INST_NUM] = PORT_INSTS;

	if (port_index < PORT_INST_NUM) {
     e9a:	2900      	cmp	r1, #0
     e9c:	d103      	bne.n	ea6 <configure_spi_master+0x32>
		return &(ports[port_index]->Group[group_index]);
     e9e:	095a      	lsrs	r2, r3, #5
     ea0:	01d2      	lsls	r2, r2, #7
     ea2:	4924      	ldr	r1, [pc, #144]	; (f34 <configure_spi_master+0xc0>)
     ea4:	1852      	adds	r2, r2, r1
static inline void port_pin_set_output_level(
		const uint8_t gpio_pin,
		const bool level)
{
	PortGroup *const port_base = port_get_group_from_gpio_pin(gpio_pin);
	uint32_t pin_mask  = (1UL << (gpio_pin % 32));
     ea6:	271f      	movs	r7, #31
     ea8:	403b      	ands	r3, r7
     eaa:	2401      	movs	r4, #1
     eac:	1c21      	adds	r1, r4, #0
     eae:	4099      	lsls	r1, r3

	/* Set the pin to high or low atomically based on the requested level */
	if (level) {
		port_base->OUTSET.reg = pin_mask;
     eb0:	6191      	str	r1, [r2, #24]
{
	/* Sanity check arguments */
	Assert(config);

	/* Default configuration values */
	config->mode             = SPI_MODE_MASTER;
     eb2:	aa02      	add	r2, sp, #8
     eb4:	7014      	strb	r4, [r2, #0]
	config->data_order       = SPI_DATA_ORDER_MSB;
     eb6:	2300      	movs	r3, #0
     eb8:	6053      	str	r3, [r2, #4]
	config->transfer_mode    = SPI_TRANSFER_MODE_0;
     eba:	6093      	str	r3, [r2, #8]
	config->mux_setting      = SPI_SIGNAL_MUX_SETTING_E;	//do pad 1, di pad 0
     ebc:	2180      	movs	r1, #128	; 0x80
     ebe:	0249      	lsls	r1, r1, #9
     ec0:	60d1      	str	r1, [r2, #12]
	config->character_size   = SPI_CHARACTER_SIZE_8BIT;
     ec2:	7413      	strb	r3, [r2, #16]
	config->run_in_standby   = false;
     ec4:	7453      	strb	r3, [r2, #17]
	config->receiver_enable  = true;
     ec6:	7494      	strb	r4, [r2, #18]
#  ifdef FEATURE_SPI_SLAVE_SELECT_LOW_DETECT
	config->select_slave_low_detect_enable= true;
     ec8:	74d4      	strb	r4, [r2, #19]
#  endif
#  ifdef FEATURE_SPI_HARDWARE_SLAVE_SELECT
	config->master_slave_select_enable= false;
     eca:	7513      	strb	r3, [r2, #20]
#  endif
	config->generator_source = GCLK_GENERATOR_0;
     ecc:	2124      	movs	r1, #36	; 0x24
     ece:	5453      	strb	r3, [r2, r1]

	/* Clear mode specific config */
	memset(&(config->mode_specific), 0, sizeof(config->mode_specific));
     ed0:	9309      	str	r3, [sp, #36]	; 0x24
     ed2:	930a      	str	r3, [sp, #40]	; 0x28

	/* Master config defaults */
	config->mode_specific.master.baudrate = 1000000;
     ed4:	4b18      	ldr	r3, [pc, #96]	; (f38 <configure_spi_master+0xc4>)
     ed6:	6193      	str	r3, [r2, #24]
	spi_get_config_defaults(&config_spi_master);
	
	config_spi_master.mux_setting = SPI_SIGNAL_MUX_SETTING_E;
	
	/* Configure pad 0 for data in */
	config_spi_master.pinmux_pad0 = PINMUX_UNUSED;
     ed8:	2301      	movs	r3, #1
     eda:	425b      	negs	r3, r3
     edc:	6293      	str	r3, [r2, #40]	; 0x28
	/* Configure pad 1 as unused */
	config_spi_master.pinmux_pad1 = PINMUX_UNUSED;
     ede:	62d3      	str	r3, [r2, #44]	; 0x2c
	/* Configure pad 2 for data out */
	config_spi_master.pinmux_pad2 = PINMUX_PA10C_SERCOM0_PAD2;
     ee0:	4b16      	ldr	r3, [pc, #88]	; (f3c <configure_spi_master+0xc8>)
     ee2:	6313      	str	r3, [r2, #48]	; 0x30
	/* Configure pad 3 for SCK */
	config_spi_master.pinmux_pad3 = PINMUX_PA11C_SERCOM0_PAD3;
     ee4:	4b16      	ldr	r3, [pc, #88]	; (f40 <configure_spi_master+0xcc>)
     ee6:	6353      	str	r3, [r2, #52]	; 0x34
	
	spi_init(&spi_master_instance, SERCOM0, &config_spi_master);
     ee8:	4e16      	ldr	r6, [pc, #88]	; (f44 <configure_spi_master+0xd0>)
     eea:	1c30      	adds	r0, r6, #0
     eec:	4916      	ldr	r1, [pc, #88]	; (f48 <configure_spi_master+0xd4>)
     eee:	4b17      	ldr	r3, [pc, #92]	; (f4c <configure_spi_master+0xd8>)
     ef0:	4798      	blx	r3
{
	/* Sanity check arguments */
	Assert(module);
	Assert(module->hw);

	SercomSpi *const spi_module = &(module->hw->SPI);
     ef2:	6835      	ldr	r5, [r6, #0]

#  if SPI_CALLBACK_MODE == true
	system_interrupt_enable(_sercom_get_interrupt_vector(module->hw));
     ef4:	1c28      	adds	r0, r5, #0
     ef6:	4b16      	ldr	r3, [pc, #88]	; (f50 <configure_spi_master+0xdc>)
     ef8:	4798      	blx	r3
     efa:	4007      	ands	r7, r0
     efc:	40bc      	lsls	r4, r7
     efe:	4b15      	ldr	r3, [pc, #84]	; (f54 <configure_spi_master+0xe0>)
     f00:	601c      	str	r4, [r3, #0]
{
	/* Sanity check arguments */
	Assert(module);
	Assert(module->hw);

	SercomSpi *const spi_module = &(module->hw->SPI);
     f02:	6832      	ldr	r2, [r6, #0]

#  ifdef FEATURE_SPI_SYNC_SCHEME_VERSION_2
	/* Return synchronization status */
	return (spi_module->SYNCBUSY.reg);
     f04:	69d3      	ldr	r3, [r2, #28]

#  if SPI_CALLBACK_MODE == true
	system_interrupt_enable(_sercom_get_interrupt_vector(module->hw));
#  endif

	while (spi_is_syncing(module)) {
     f06:	2b00      	cmp	r3, #0
     f08:	d1fc      	bne.n	f04 <configure_spi_master+0x90>
		/* Wait until the synchronization is complete */
	}

	/* Enable SPI */
	spi_module->CTRLA.reg |= SERCOM_SPI_CTRLA_ENABLE;
     f0a:	682a      	ldr	r2, [r5, #0]
     f0c:	2302      	movs	r3, #2
     f0e:	4313      	orrs	r3, r2
     f10:	602b      	str	r3, [r5, #0]
	spi_enable(&spi_master_instance);
	
	spi_register_callback(&spi_master_instance, spi_master_write_done, SPI_CALLBACK_BUFFER_TRANSMITTED);
     f12:	4c0c      	ldr	r4, [pc, #48]	; (f44 <configure_spi_master+0xd0>)
     f14:	1c20      	adds	r0, r4, #0
     f16:	4910      	ldr	r1, [pc, #64]	; (f58 <configure_spi_master+0xe4>)
     f18:	2200      	movs	r2, #0
     f1a:	4b10      	ldr	r3, [pc, #64]	; (f5c <configure_spi_master+0xe8>)
     f1c:	4798      	blx	r3
{
	/* Sanity check arguments */
	Assert(module);

	/* Enable callback */
	module->enabled_callback |= (1 << callback_type);
     f1e:	2337      	movs	r3, #55	; 0x37
     f20:	5ce1      	ldrb	r1, [r4, r3]
     f22:	2201      	movs	r2, #1
     f24:	430a      	orrs	r2, r1
     f26:	54e2      	strb	r2, [r4, r3]
	spi_enable_callback(&spi_master_instance, SPI_CALLBACK_BUFFER_TRANSMITTED);
}
     f28:	b011      	add	sp, #68	; 0x44
     f2a:	bdf0      	pop	{r4, r5, r6, r7, pc}
     f2c:	2000026c 	.word	0x2000026c
     f30:	000018cd 	.word	0x000018cd
     f34:	41004400 	.word	0x41004400
     f38:	000f4240 	.word	0x000f4240
     f3c:	000a0002 	.word	0x000a0002
     f40:	000b0002 	.word	0x000b0002
     f44:	20000230 	.word	0x20000230
     f48:	42000800 	.word	0x42000800
     f4c:	00001c65 	.word	0x00001c65
     f50:	00002205 	.word	0x00002205
     f54:	e000e100 	.word	0xe000e100
     f58:	000009e9 	.word	0x000009e9
     f5c:	00001f69 	.word	0x00001f69

00000f60 <configure_tc>:
     f60:	b510      	push	{r4, lr}
     f62:	b08e      	sub	sp, #56	; 0x38
     f64:	aa01      	add	r2, sp, #4
     f66:	2300      	movs	r3, #0
     f68:	2100      	movs	r1, #0
     f6a:	7013      	strb	r3, [r2, #0]
     f6c:	7193      	strb	r3, [r2, #6]
     f6e:	2400      	movs	r4, #0
     f70:	8113      	strh	r3, [r2, #8]
     f72:	7054      	strb	r4, [r2, #1]
     f74:	7291      	strb	r1, [r2, #10]
     f76:	72d1      	strb	r1, [r2, #11]
     f78:	7311      	strb	r1, [r2, #12]
     f7a:	7391      	strb	r1, [r2, #14]
     f7c:	7351      	strb	r1, [r2, #13]
     f7e:	7411      	strb	r1, [r2, #16]
     f80:	6153      	str	r3, [r2, #20]
     f82:	6193      	str	r3, [r2, #24]
     f84:	7711      	strb	r1, [r2, #28]
     f86:	6213      	str	r3, [r2, #32]
     f88:	6253      	str	r3, [r2, #36]	; 0x24
     f8a:	8553      	strh	r3, [r2, #42]	; 0x2a
     f8c:	8593      	strh	r3, [r2, #44]	; 0x2c
     f8e:	2304      	movs	r3, #4
     f90:	7093      	strb	r3, [r2, #2]
     f92:	23a0      	movs	r3, #160	; 0xa0
     f94:	00db      	lsls	r3, r3, #3
     f96:	8093      	strh	r3, [r2, #4]
     f98:	232a      	movs	r3, #42	; 0x2a
     f9a:	54d0      	strb	r0, [r2, r3]
     f9c:	2329      	movs	r3, #41	; 0x29
     f9e:	54d0      	strb	r0, [r2, r3]
     fa0:	2328      	movs	r3, #40	; 0x28
     fa2:	54d4      	strb	r4, [r2, r3]
     fa4:	4c07      	ldr	r4, [pc, #28]	; (fc4 <configure_tc+0x64>)
     fa6:	1c20      	adds	r0, r4, #0
     fa8:	4907      	ldr	r1, [pc, #28]	; (fc8 <configure_tc+0x68>)
     faa:	4b08      	ldr	r3, [pc, #32]	; (fcc <configure_tc+0x6c>)
     fac:	4798      	blx	r3
     fae:	6822      	ldr	r2, [r4, #0]
     fb0:	217f      	movs	r1, #127	; 0x7f
     fb2:	7bd3      	ldrb	r3, [r2, #15]
     fb4:	438b      	bics	r3, r1
     fb6:	d1fc      	bne.n	fb2 <configure_tc+0x52>
     fb8:	8811      	ldrh	r1, [r2, #0]
     fba:	2302      	movs	r3, #2
     fbc:	430b      	orrs	r3, r1
     fbe:	8013      	strh	r3, [r2, #0]
     fc0:	b00e      	add	sp, #56	; 0x38
     fc2:	bd10      	pop	{r4, pc}
     fc4:	20000270 	.word	0x20000270
     fc8:	42002c00 	.word	0x42002c00
     fcc:	00002eb5 	.word	0x00002eb5

00000fd0 <configure_tc_callbacks>:
     fd0:	b510      	push	{r4, lr}
     fd2:	1c01      	adds	r1, r0, #0
     fd4:	4c0c      	ldr	r4, [pc, #48]	; (1008 <configure_tc_callbacks+0x38>)
     fd6:	1c20      	adds	r0, r4, #0
     fd8:	2200      	movs	r2, #0
     fda:	4b0c      	ldr	r3, [pc, #48]	; (100c <configure_tc_callbacks+0x3c>)
     fdc:	4798      	blx	r3
     fde:	6820      	ldr	r0, [r4, #0]
     fe0:	4b0b      	ldr	r3, [pc, #44]	; (1010 <configure_tc_callbacks+0x40>)
     fe2:	4798      	blx	r3
     fe4:	4b0b      	ldr	r3, [pc, #44]	; (1014 <configure_tc_callbacks+0x44>)
     fe6:	5c1b      	ldrb	r3, [r3, r0]
     fe8:	211f      	movs	r1, #31
     fea:	4019      	ands	r1, r3
     fec:	2301      	movs	r3, #1
     fee:	1c1a      	adds	r2, r3, #0
     ff0:	408a      	lsls	r2, r1
     ff2:	1c11      	adds	r1, r2, #0
     ff4:	4a08      	ldr	r2, [pc, #32]	; (1018 <configure_tc_callbacks+0x48>)
     ff6:	6011      	str	r1, [r2, #0]
     ff8:	7e61      	ldrb	r1, [r4, #25]
     ffa:	2201      	movs	r2, #1
     ffc:	430a      	orrs	r2, r1
     ffe:	7662      	strb	r2, [r4, #25]
    1000:	6822      	ldr	r2, [r4, #0]
    1002:	7353      	strb	r3, [r2, #13]
    1004:	bd10      	pop	{r4, pc}
    1006:	46c0      	nop			; (mov r8, r8)
    1008:	20000270 	.word	0x20000270
    100c:	00003161 	.word	0x00003161
    1010:	00002e7d 	.word	0x00002e7d
    1014:	00009998 	.word	0x00009998
    1018:	e000e100 	.word	0xe000e100

0000101c <delay_init>:
    101c:	b510      	push	{r4, lr}
    101e:	2000      	movs	r0, #0
    1020:	4b08      	ldr	r3, [pc, #32]	; (1044 <delay_init+0x28>)
    1022:	4798      	blx	r3
    1024:	4c08      	ldr	r4, [pc, #32]	; (1048 <delay_init+0x2c>)
    1026:	21fa      	movs	r1, #250	; 0xfa
    1028:	0089      	lsls	r1, r1, #2
    102a:	47a0      	blx	r4
    102c:	4b07      	ldr	r3, [pc, #28]	; (104c <delay_init+0x30>)
    102e:	6018      	str	r0, [r3, #0]
    1030:	21fa      	movs	r1, #250	; 0xfa
    1032:	0089      	lsls	r1, r1, #2
    1034:	47a0      	blx	r4
    1036:	4b06      	ldr	r3, [pc, #24]	; (1050 <delay_init+0x34>)
    1038:	6018      	str	r0, [r3, #0]
    103a:	2205      	movs	r2, #5
    103c:	4b05      	ldr	r3, [pc, #20]	; (1054 <delay_init+0x38>)
    103e:	601a      	str	r2, [r3, #0]
    1040:	bd10      	pop	{r4, pc}
    1042:	46c0      	nop			; (mov r8, r8)
    1044:	00002c2d 	.word	0x00002c2d
    1048:	0000693d 	.word	0x0000693d
    104c:	20000008 	.word	0x20000008
    1050:	20000004 	.word	0x20000004
    1054:	e000e010 	.word	0xe000e010

00001058 <delay_cycles_ms>:
    1058:	b530      	push	{r4, r5, lr}
    105a:	4b08      	ldr	r3, [pc, #32]	; (107c <delay_cycles_ms+0x24>)
    105c:	681c      	ldr	r4, [r3, #0]
    105e:	4a08      	ldr	r2, [pc, #32]	; (1080 <delay_cycles_ms+0x28>)
    1060:	2500      	movs	r5, #0
    1062:	2180      	movs	r1, #128	; 0x80
    1064:	0249      	lsls	r1, r1, #9
    1066:	e006      	b.n	1076 <delay_cycles_ms+0x1e>
    1068:	2c00      	cmp	r4, #0
    106a:	d004      	beq.n	1076 <delay_cycles_ms+0x1e>
    106c:	6054      	str	r4, [r2, #4]
    106e:	6095      	str	r5, [r2, #8]
    1070:	6813      	ldr	r3, [r2, #0]
    1072:	420b      	tst	r3, r1
    1074:	d0fc      	beq.n	1070 <delay_cycles_ms+0x18>
    1076:	3801      	subs	r0, #1
    1078:	d2f6      	bcs.n	1068 <delay_cycles_ms+0x10>
    107a:	bd30      	pop	{r4, r5, pc}
    107c:	20000008 	.word	0x20000008
    1080:	e000e010 	.word	0xe000e010

00001084 <adc_get_config_defaults>:
    1084:	b510      	push	{r4, lr}
    1086:	2200      	movs	r2, #0
    1088:	2300      	movs	r3, #0
    108a:	7002      	strb	r2, [r0, #0]
    108c:	7042      	strb	r2, [r0, #1]
    108e:	2100      	movs	r1, #0
    1090:	8042      	strh	r2, [r0, #2]
    1092:	7101      	strb	r1, [r0, #4]
    1094:	7603      	strb	r3, [r0, #24]
    1096:	6202      	str	r2, [r0, #32]
    1098:	61c2      	str	r2, [r0, #28]
    109a:	6082      	str	r2, [r0, #8]
    109c:	7303      	strb	r3, [r0, #12]
    109e:	24c0      	movs	r4, #192	; 0xc0
    10a0:	0164      	lsls	r4, r4, #5
    10a2:	81c4      	strh	r4, [r0, #14]
    10a4:	7403      	strb	r3, [r0, #16]
    10a6:	7443      	strb	r3, [r0, #17]
    10a8:	7483      	strb	r3, [r0, #18]
    10aa:	74c3      	strb	r3, [r0, #19]
    10ac:	7503      	strb	r3, [r0, #20]
    10ae:	242a      	movs	r4, #42	; 0x2a
    10b0:	5503      	strb	r3, [r0, r4]
    10b2:	7543      	strb	r3, [r0, #21]
    10b4:	7583      	strb	r3, [r0, #22]
    10b6:	2424      	movs	r4, #36	; 0x24
    10b8:	5503      	strb	r3, [r0, r4]
    10ba:	84c2      	strh	r2, [r0, #38]	; 0x26
    10bc:	8502      	strh	r2, [r0, #40]	; 0x28
    10be:	75c1      	strb	r1, [r0, #23]
    10c0:	232b      	movs	r3, #43	; 0x2b
    10c2:	54c1      	strb	r1, [r0, r3]
    10c4:	232c      	movs	r3, #44	; 0x2c
    10c6:	54c1      	strb	r1, [r0, r3]
    10c8:	bd10      	pop	{r4, pc}
    10ca:	46c0      	nop			; (mov r8, r8)

000010cc <adc_init>:
    10cc:	b5f0      	push	{r4, r5, r6, r7, lr}
    10ce:	465f      	mov	r7, fp
    10d0:	4656      	mov	r6, sl
    10d2:	464d      	mov	r5, r9
    10d4:	4644      	mov	r4, r8
    10d6:	b4f0      	push	{r4, r5, r6, r7}
    10d8:	b099      	sub	sp, #100	; 0x64
    10da:	1c06      	adds	r6, r0, #0
    10dc:	1c14      	adds	r4, r2, #0
    10de:	6001      	str	r1, [r0, #0]
    10e0:	4bbc      	ldr	r3, [pc, #752]	; (13d4 <adc_init+0x308>)
    10e2:	6a18      	ldr	r0, [r3, #32]
    10e4:	2280      	movs	r2, #128	; 0x80
    10e6:	0252      	lsls	r2, r2, #9
    10e8:	4302      	orrs	r2, r0
    10ea:	621a      	str	r2, [r3, #32]
    10ec:	780b      	ldrb	r3, [r1, #0]
    10ee:	2005      	movs	r0, #5
    10f0:	07da      	lsls	r2, r3, #31
    10f2:	d500      	bpl.n	10f6 <adc_init+0x2a>
    10f4:	e1f6      	b.n	14e4 <adc_init+0x418>
    10f6:	780b      	ldrb	r3, [r1, #0]
    10f8:	201c      	movs	r0, #28
    10fa:	0799      	lsls	r1, r3, #30
    10fc:	d500      	bpl.n	1100 <adc_init+0x34>
    10fe:	e1f1      	b.n	14e4 <adc_init+0x418>
    1100:	7863      	ldrb	r3, [r4, #1]
    1102:	7133      	strb	r3, [r6, #4]
    1104:	2b00      	cmp	r3, #0
    1106:	d000      	beq.n	110a <adc_init+0x3e>
    1108:	e1dc      	b.n	14c4 <adc_init+0x3f8>
    110a:	4bb3      	ldr	r3, [pc, #716]	; (13d8 <adc_init+0x30c>)
    110c:	6c19      	ldr	r1, [r3, #64]	; 0x40
    110e:	2204      	movs	r2, #4
    1110:	430a      	orrs	r2, r1
    1112:	641a      	str	r2, [r3, #64]	; 0x40
    1114:	e1d6      	b.n	14c4 <adc_init+0x3f8>
    1116:	7d23      	ldrb	r3, [r4, #20]
    1118:	2b00      	cmp	r3, #0
    111a:	d102      	bne.n	1122 <adc_init+0x56>
    111c:	2301      	movs	r3, #1
    111e:	7773      	strb	r3, [r6, #29]
    1120:	e001      	b.n	1126 <adc_init+0x5a>
    1122:	2300      	movs	r3, #0
    1124:	7773      	strb	r3, [r6, #29]
    1126:	6832      	ldr	r2, [r6, #0]
    1128:	9201      	str	r2, [sp, #4]
    112a:	7823      	ldrb	r3, [r4, #0]
    112c:	4668      	mov	r0, sp
    112e:	7203      	strb	r3, [r0, #8]
    1130:	201e      	movs	r0, #30
    1132:	a902      	add	r1, sp, #8
    1134:	4ba9      	ldr	r3, [pc, #676]	; (13dc <adc_init+0x310>)
    1136:	4798      	blx	r3
    1138:	201e      	movs	r0, #30
    113a:	4ba9      	ldr	r3, [pc, #676]	; (13e0 <adc_init+0x314>)
    113c:	4798      	blx	r3
    113e:	232c      	movs	r3, #44	; 0x2c
    1140:	5ce3      	ldrb	r3, [r4, r3]
    1142:	2b00      	cmp	r3, #0
    1144:	d042      	beq.n	11cc <adc_init+0x100>
    1146:	222b      	movs	r2, #43	; 0x2b
    1148:	5ca5      	ldrb	r5, [r4, r2]
    114a:	7b21      	ldrb	r1, [r4, #12]
    114c:	4688      	mov	r8, r1
    114e:	194a      	adds	r2, r1, r5
    1150:	b2d2      	uxtb	r2, r2
    1152:	18d3      	adds	r3, r2, r3
    1154:	b2db      	uxtb	r3, r3
    1156:	4699      	mov	r9, r3
    1158:	429a      	cmp	r2, r3
    115a:	d221      	bcs.n	11a0 <adc_init+0xd4>
    115c:	4aa1      	ldr	r2, [pc, #644]	; (13e4 <adc_init+0x318>)
    115e:	4693      	mov	fp, r2
    1160:	4ba1      	ldr	r3, [pc, #644]	; (13e8 <adc_init+0x31c>)
    1162:	469a      	mov	sl, r3
    1164:	270f      	movs	r7, #15
    1166:	402f      	ands	r7, r5
    1168:	7b23      	ldrb	r3, [r4, #12]
    116a:	18ff      	adds	r7, r7, r3
    116c:	a804      	add	r0, sp, #16
    116e:	4659      	mov	r1, fp
    1170:	2250      	movs	r2, #80	; 0x50
    1172:	47d0      	blx	sl
    1174:	2f13      	cmp	r7, #19
    1176:	d80c      	bhi.n	1192 <adc_init+0xc6>
    1178:	00bf      	lsls	r7, r7, #2
    117a:	ab04      	add	r3, sp, #16
    117c:	58f8      	ldr	r0, [r7, r3]
    117e:	a903      	add	r1, sp, #12
    1180:	2300      	movs	r3, #0
    1182:	704b      	strb	r3, [r1, #1]
    1184:	70cb      	strb	r3, [r1, #3]
    1186:	708b      	strb	r3, [r1, #2]
    1188:	2301      	movs	r3, #1
    118a:	700b      	strb	r3, [r1, #0]
    118c:	b2c0      	uxtb	r0, r0
    118e:	4a97      	ldr	r2, [pc, #604]	; (13ec <adc_init+0x320>)
    1190:	4790      	blx	r2
    1192:	3501      	adds	r5, #1
    1194:	b2ed      	uxtb	r5, r5
    1196:	4640      	mov	r0, r8
    1198:	1943      	adds	r3, r0, r5
    119a:	b2db      	uxtb	r3, r3
    119c:	454b      	cmp	r3, r9
    119e:	d3e1      	bcc.n	1164 <adc_init+0x98>
    11a0:	89e5      	ldrh	r5, [r4, #14]
    11a2:	a804      	add	r0, sp, #16
    11a4:	498f      	ldr	r1, [pc, #572]	; (13e4 <adc_init+0x318>)
    11a6:	2250      	movs	r2, #80	; 0x50
    11a8:	4b8f      	ldr	r3, [pc, #572]	; (13e8 <adc_init+0x31c>)
    11aa:	4798      	blx	r3
    11ac:	2d13      	cmp	r5, #19
    11ae:	d837      	bhi.n	1220 <adc_init+0x154>
    11b0:	00ad      	lsls	r5, r5, #2
    11b2:	ab04      	add	r3, sp, #16
    11b4:	58e8      	ldr	r0, [r5, r3]
    11b6:	a903      	add	r1, sp, #12
    11b8:	2300      	movs	r3, #0
    11ba:	704b      	strb	r3, [r1, #1]
    11bc:	70cb      	strb	r3, [r1, #3]
    11be:	708b      	strb	r3, [r1, #2]
    11c0:	2301      	movs	r3, #1
    11c2:	700b      	strb	r3, [r1, #0]
    11c4:	b2c0      	uxtb	r0, r0
    11c6:	4b89      	ldr	r3, [pc, #548]	; (13ec <adc_init+0x320>)
    11c8:	4798      	blx	r3
    11ca:	e029      	b.n	1220 <adc_init+0x154>
    11cc:	7b25      	ldrb	r5, [r4, #12]
    11ce:	a804      	add	r0, sp, #16
    11d0:	4984      	ldr	r1, [pc, #528]	; (13e4 <adc_init+0x318>)
    11d2:	2250      	movs	r2, #80	; 0x50
    11d4:	4b84      	ldr	r3, [pc, #528]	; (13e8 <adc_init+0x31c>)
    11d6:	4798      	blx	r3
    11d8:	2d13      	cmp	r5, #19
    11da:	d80c      	bhi.n	11f6 <adc_init+0x12a>
    11dc:	00ad      	lsls	r5, r5, #2
    11de:	ab04      	add	r3, sp, #16
    11e0:	58e8      	ldr	r0, [r5, r3]
    11e2:	a903      	add	r1, sp, #12
    11e4:	2300      	movs	r3, #0
    11e6:	704b      	strb	r3, [r1, #1]
    11e8:	70cb      	strb	r3, [r1, #3]
    11ea:	708b      	strb	r3, [r1, #2]
    11ec:	2301      	movs	r3, #1
    11ee:	700b      	strb	r3, [r1, #0]
    11f0:	b2c0      	uxtb	r0, r0
    11f2:	4b7e      	ldr	r3, [pc, #504]	; (13ec <adc_init+0x320>)
    11f4:	4798      	blx	r3
    11f6:	89e5      	ldrh	r5, [r4, #14]
    11f8:	a804      	add	r0, sp, #16
    11fa:	497a      	ldr	r1, [pc, #488]	; (13e4 <adc_init+0x318>)
    11fc:	2250      	movs	r2, #80	; 0x50
    11fe:	4b7a      	ldr	r3, [pc, #488]	; (13e8 <adc_init+0x31c>)
    1200:	4798      	blx	r3
    1202:	2d13      	cmp	r5, #19
    1204:	d80c      	bhi.n	1220 <adc_init+0x154>
    1206:	00ad      	lsls	r5, r5, #2
    1208:	ab04      	add	r3, sp, #16
    120a:	58e8      	ldr	r0, [r5, r3]
    120c:	a903      	add	r1, sp, #12
    120e:	2300      	movs	r3, #0
    1210:	704b      	strb	r3, [r1, #1]
    1212:	70cb      	strb	r3, [r1, #3]
    1214:	708b      	strb	r3, [r1, #2]
    1216:	2301      	movs	r3, #1
    1218:	700b      	strb	r3, [r1, #0]
    121a:	b2c0      	uxtb	r0, r0
    121c:	4b73      	ldr	r3, [pc, #460]	; (13ec <adc_init+0x320>)
    121e:	4798      	blx	r3
    1220:	7d63      	ldrb	r3, [r4, #21]
    1222:	009b      	lsls	r3, r3, #2
    1224:	b2db      	uxtb	r3, r3
    1226:	9901      	ldr	r1, [sp, #4]
    1228:	700b      	strb	r3, [r1, #0]
    122a:	7da3      	ldrb	r3, [r4, #22]
    122c:	01db      	lsls	r3, r3, #7
    122e:	7862      	ldrb	r2, [r4, #1]
    1230:	4313      	orrs	r3, r2
    1232:	b2db      	uxtb	r3, r3
    1234:	704b      	strb	r3, [r1, #1]
    1236:	7923      	ldrb	r3, [r4, #4]
    1238:	2b34      	cmp	r3, #52	; 0x34
    123a:	d900      	bls.n	123e <adc_init+0x172>
    123c:	e140      	b.n	14c0 <adc_init+0x3f4>
    123e:	009b      	lsls	r3, r3, #2
    1240:	4a6b      	ldr	r2, [pc, #428]	; (13f0 <adc_init+0x324>)
    1242:	58d3      	ldr	r3, [r2, r3]
    1244:	469f      	mov	pc, r3
    1246:	2202      	movs	r2, #2
    1248:	2510      	movs	r5, #16
    124a:	2301      	movs	r3, #1
    124c:	e01a      	b.n	1284 <adc_init+0x1b8>
    124e:	7c63      	ldrb	r3, [r4, #17]
    1250:	7c22      	ldrb	r2, [r4, #16]
    1252:	2510      	movs	r5, #16
    1254:	e016      	b.n	1284 <adc_init+0x1b8>
    1256:	2206      	movs	r2, #6
    1258:	2510      	movs	r5, #16
    125a:	2301      	movs	r3, #1
    125c:	e012      	b.n	1284 <adc_init+0x1b8>
    125e:	2208      	movs	r2, #8
    1260:	2510      	movs	r5, #16
    1262:	2300      	movs	r3, #0
    1264:	e00e      	b.n	1284 <adc_init+0x1b8>
    1266:	2200      	movs	r2, #0
    1268:	2530      	movs	r5, #48	; 0x30
    126a:	2300      	movs	r3, #0
    126c:	e00a      	b.n	1284 <adc_init+0x1b8>
    126e:	2200      	movs	r2, #0
    1270:	2520      	movs	r5, #32
    1272:	2300      	movs	r3, #0
    1274:	e006      	b.n	1284 <adc_init+0x1b8>
    1276:	2200      	movs	r2, #0
    1278:	2500      	movs	r5, #0
    127a:	2300      	movs	r3, #0
    127c:	e002      	b.n	1284 <adc_init+0x1b8>
    127e:	2204      	movs	r2, #4
    1280:	2510      	movs	r5, #16
    1282:	2302      	movs	r3, #2
    1284:	011b      	lsls	r3, r3, #4
    1286:	2170      	movs	r1, #112	; 0x70
    1288:	400b      	ands	r3, r1
    128a:	4313      	orrs	r3, r2
    128c:	9a01      	ldr	r2, [sp, #4]
    128e:	7093      	strb	r3, [r2, #2]
    1290:	7de3      	ldrb	r3, [r4, #23]
    1292:	2017      	movs	r0, #23
    1294:	2b3f      	cmp	r3, #63	; 0x3f
    1296:	d900      	bls.n	129a <adc_init+0x1ce>
    1298:	e124      	b.n	14e4 <adc_init+0x418>
    129a:	70d3      	strb	r3, [r2, #3]
    129c:	6832      	ldr	r2, [r6, #0]
    129e:	7e53      	ldrb	r3, [r2, #25]
    12a0:	b25b      	sxtb	r3, r3
    12a2:	2b00      	cmp	r3, #0
    12a4:	dbfb      	blt.n	129e <adc_init+0x1d2>
    12a6:	7ce2      	ldrb	r2, [r4, #19]
    12a8:	8863      	ldrh	r3, [r4, #2]
    12aa:	4313      	orrs	r3, r2
    12ac:	2224      	movs	r2, #36	; 0x24
    12ae:	5ca2      	ldrb	r2, [r4, r2]
    12b0:	00d2      	lsls	r2, r2, #3
    12b2:	4313      	orrs	r3, r2
    12b4:	7d22      	ldrb	r2, [r4, #20]
    12b6:	0092      	lsls	r2, r2, #2
    12b8:	4313      	orrs	r3, r2
    12ba:	7ca2      	ldrb	r2, [r4, #18]
    12bc:	0052      	lsls	r2, r2, #1
    12be:	4313      	orrs	r3, r2
    12c0:	432b      	orrs	r3, r5
    12c2:	9801      	ldr	r0, [sp, #4]
    12c4:	8083      	strh	r3, [r0, #4]
    12c6:	7e23      	ldrb	r3, [r4, #24]
    12c8:	2b00      	cmp	r3, #0
    12ca:	d101      	bne.n	12d0 <adc_init+0x204>
    12cc:	6831      	ldr	r1, [r6, #0]
    12ce:	e097      	b.n	1400 <adc_init+0x334>
    12d0:	2d10      	cmp	r5, #16
    12d2:	d05f      	beq.n	1394 <adc_init+0x2c8>
    12d4:	d802      	bhi.n	12dc <adc_init+0x210>
    12d6:	2d00      	cmp	r5, #0
    12d8:	d03c      	beq.n	1354 <adc_init+0x288>
    12da:	e7f7      	b.n	12cc <adc_init+0x200>
    12dc:	2d20      	cmp	r5, #32
    12de:	d019      	beq.n	1314 <adc_init+0x248>
    12e0:	2d30      	cmp	r5, #48	; 0x30
    12e2:	d1f3      	bne.n	12cc <adc_init+0x200>
    12e4:	7ce2      	ldrb	r2, [r4, #19]
    12e6:	2a00      	cmp	r2, #0
    12e8:	d00a      	beq.n	1300 <adc_init+0x234>
    12ea:	69e2      	ldr	r2, [r4, #28]
    12ec:	3280      	adds	r2, #128	; 0x80
    12ee:	2017      	movs	r0, #23
    12f0:	2aff      	cmp	r2, #255	; 0xff
    12f2:	d900      	bls.n	12f6 <adc_init+0x22a>
    12f4:	e0f6      	b.n	14e4 <adc_init+0x418>
    12f6:	6a22      	ldr	r2, [r4, #32]
    12f8:	3280      	adds	r2, #128	; 0x80
    12fa:	2aff      	cmp	r2, #255	; 0xff
    12fc:	d900      	bls.n	1300 <adc_init+0x234>
    12fe:	e0f1      	b.n	14e4 <adc_init+0x418>
    1300:	2017      	movs	r0, #23
    1302:	69e1      	ldr	r1, [r4, #28]
    1304:	29ff      	cmp	r1, #255	; 0xff
    1306:	dd00      	ble.n	130a <adc_init+0x23e>
    1308:	e0ec      	b.n	14e4 <adc_init+0x418>
    130a:	6a22      	ldr	r2, [r4, #32]
    130c:	2aff      	cmp	r2, #255	; 0xff
    130e:	dd00      	ble.n	1312 <adc_init+0x246>
    1310:	e0e8      	b.n	14e4 <adc_init+0x418>
    1312:	e7db      	b.n	12cc <adc_init+0x200>
    1314:	7ce2      	ldrb	r2, [r4, #19]
    1316:	2a00      	cmp	r2, #0
    1318:	d011      	beq.n	133e <adc_init+0x272>
    131a:	69e0      	ldr	r0, [r4, #28]
    131c:	2280      	movs	r2, #128	; 0x80
    131e:	0092      	lsls	r2, r2, #2
    1320:	1881      	adds	r1, r0, r2
    1322:	2017      	movs	r0, #23
    1324:	4a33      	ldr	r2, [pc, #204]	; (13f4 <adc_init+0x328>)
    1326:	4291      	cmp	r1, r2
    1328:	d900      	bls.n	132c <adc_init+0x260>
    132a:	e0db      	b.n	14e4 <adc_init+0x418>
    132c:	6a20      	ldr	r0, [r4, #32]
    132e:	2280      	movs	r2, #128	; 0x80
    1330:	0092      	lsls	r2, r2, #2
    1332:	1881      	adds	r1, r0, r2
    1334:	2017      	movs	r0, #23
    1336:	4a2f      	ldr	r2, [pc, #188]	; (13f4 <adc_init+0x328>)
    1338:	4291      	cmp	r1, r2
    133a:	d900      	bls.n	133e <adc_init+0x272>
    133c:	e0d2      	b.n	14e4 <adc_init+0x418>
    133e:	2017      	movs	r0, #23
    1340:	4a2c      	ldr	r2, [pc, #176]	; (13f4 <adc_init+0x328>)
    1342:	69e1      	ldr	r1, [r4, #28]
    1344:	4291      	cmp	r1, r2
    1346:	dd00      	ble.n	134a <adc_init+0x27e>
    1348:	e0cc      	b.n	14e4 <adc_init+0x418>
    134a:	6a21      	ldr	r1, [r4, #32]
    134c:	4291      	cmp	r1, r2
    134e:	dd00      	ble.n	1352 <adc_init+0x286>
    1350:	e0c8      	b.n	14e4 <adc_init+0x418>
    1352:	e7bb      	b.n	12cc <adc_init+0x200>
    1354:	7ce2      	ldrb	r2, [r4, #19]
    1356:	2a00      	cmp	r2, #0
    1358:	d011      	beq.n	137e <adc_init+0x2b2>
    135a:	69e2      	ldr	r2, [r4, #28]
    135c:	2080      	movs	r0, #128	; 0x80
    135e:	0100      	lsls	r0, r0, #4
    1360:	1811      	adds	r1, r2, r0
    1362:	2017      	movs	r0, #23
    1364:	4a24      	ldr	r2, [pc, #144]	; (13f8 <adc_init+0x32c>)
    1366:	4291      	cmp	r1, r2
    1368:	d900      	bls.n	136c <adc_init+0x2a0>
    136a:	e0bb      	b.n	14e4 <adc_init+0x418>
    136c:	6a22      	ldr	r2, [r4, #32]
    136e:	2080      	movs	r0, #128	; 0x80
    1370:	0100      	lsls	r0, r0, #4
    1372:	1811      	adds	r1, r2, r0
    1374:	2017      	movs	r0, #23
    1376:	4a20      	ldr	r2, [pc, #128]	; (13f8 <adc_init+0x32c>)
    1378:	4291      	cmp	r1, r2
    137a:	d900      	bls.n	137e <adc_init+0x2b2>
    137c:	e0b2      	b.n	14e4 <adc_init+0x418>
    137e:	2017      	movs	r0, #23
    1380:	4a1d      	ldr	r2, [pc, #116]	; (13f8 <adc_init+0x32c>)
    1382:	69e1      	ldr	r1, [r4, #28]
    1384:	4291      	cmp	r1, r2
    1386:	dd00      	ble.n	138a <adc_init+0x2be>
    1388:	e0ac      	b.n	14e4 <adc_init+0x418>
    138a:	6a21      	ldr	r1, [r4, #32]
    138c:	4291      	cmp	r1, r2
    138e:	dd00      	ble.n	1392 <adc_init+0x2c6>
    1390:	e0a8      	b.n	14e4 <adc_init+0x418>
    1392:	e79b      	b.n	12cc <adc_init+0x200>
    1394:	7ce2      	ldrb	r2, [r4, #19]
    1396:	2a00      	cmp	r2, #0
    1398:	d011      	beq.n	13be <adc_init+0x2f2>
    139a:	69e2      	ldr	r2, [r4, #28]
    139c:	2080      	movs	r0, #128	; 0x80
    139e:	0200      	lsls	r0, r0, #8
    13a0:	1811      	adds	r1, r2, r0
    13a2:	2017      	movs	r0, #23
    13a4:	4a15      	ldr	r2, [pc, #84]	; (13fc <adc_init+0x330>)
    13a6:	4291      	cmp	r1, r2
    13a8:	d900      	bls.n	13ac <adc_init+0x2e0>
    13aa:	e09b      	b.n	14e4 <adc_init+0x418>
    13ac:	6a22      	ldr	r2, [r4, #32]
    13ae:	2080      	movs	r0, #128	; 0x80
    13b0:	0200      	lsls	r0, r0, #8
    13b2:	1811      	adds	r1, r2, r0
    13b4:	2017      	movs	r0, #23
    13b6:	4a11      	ldr	r2, [pc, #68]	; (13fc <adc_init+0x330>)
    13b8:	4291      	cmp	r1, r2
    13ba:	d900      	bls.n	13be <adc_init+0x2f2>
    13bc:	e092      	b.n	14e4 <adc_init+0x418>
    13be:	2017      	movs	r0, #23
    13c0:	4a0e      	ldr	r2, [pc, #56]	; (13fc <adc_init+0x330>)
    13c2:	69e1      	ldr	r1, [r4, #28]
    13c4:	4291      	cmp	r1, r2
    13c6:	dd00      	ble.n	13ca <adc_init+0x2fe>
    13c8:	e08c      	b.n	14e4 <adc_init+0x418>
    13ca:	6a21      	ldr	r1, [r4, #32]
    13cc:	4291      	cmp	r1, r2
    13ce:	dd00      	ble.n	13d2 <adc_init+0x306>
    13d0:	e088      	b.n	14e4 <adc_init+0x418>
    13d2:	e77b      	b.n	12cc <adc_init+0x200>
    13d4:	40000400 	.word	0x40000400
    13d8:	40000800 	.word	0x40000800
    13dc:	00002d45 	.word	0x00002d45
    13e0:	00002cb9 	.word	0x00002cb9
    13e4:	00009a70 	.word	0x00009a70
    13e8:	00004199 	.word	0x00004199
    13ec:	00002e21 	.word	0x00002e21
    13f0:	0000999c 	.word	0x0000999c
    13f4:	000003ff 	.word	0x000003ff
    13f8:	00000fff 	.word	0x00000fff
    13fc:	0000ffff 	.word	0x0000ffff
    1400:	7e4a      	ldrb	r2, [r1, #25]
    1402:	b252      	sxtb	r2, r2
    1404:	2a00      	cmp	r2, #0
    1406:	dbfb      	blt.n	1400 <adc_init+0x334>
    1408:	9a01      	ldr	r2, [sp, #4]
    140a:	7213      	strb	r3, [r2, #8]
    140c:	6832      	ldr	r2, [r6, #0]
    140e:	7e53      	ldrb	r3, [r2, #25]
    1410:	b25b      	sxtb	r3, r3
    1412:	2b00      	cmp	r3, #0
    1414:	dbfb      	blt.n	140e <adc_init+0x342>
    1416:	8ba3      	ldrh	r3, [r4, #28]
    1418:	9801      	ldr	r0, [sp, #4]
    141a:	8383      	strh	r3, [r0, #28]
    141c:	6832      	ldr	r2, [r6, #0]
    141e:	7e53      	ldrb	r3, [r2, #25]
    1420:	b25b      	sxtb	r3, r3
    1422:	2b00      	cmp	r3, #0
    1424:	dbfb      	blt.n	141e <adc_init+0x352>
    1426:	8c23      	ldrh	r3, [r4, #32]
    1428:	9901      	ldr	r1, [sp, #4]
    142a:	840b      	strh	r3, [r1, #32]
    142c:	232c      	movs	r3, #44	; 0x2c
    142e:	5ce3      	ldrb	r3, [r4, r3]
    1430:	2b00      	cmp	r3, #0
    1432:	d004      	beq.n	143e <adc_init+0x372>
    1434:	3b01      	subs	r3, #1
    1436:	b2db      	uxtb	r3, r3
    1438:	2017      	movs	r0, #23
    143a:	2b0f      	cmp	r3, #15
    143c:	d852      	bhi.n	14e4 <adc_init+0x418>
    143e:	222b      	movs	r2, #43	; 0x2b
    1440:	5ca2      	ldrb	r2, [r4, r2]
    1442:	2017      	movs	r0, #23
    1444:	2a0f      	cmp	r2, #15
    1446:	d84d      	bhi.n	14e4 <adc_init+0x418>
    1448:	6831      	ldr	r1, [r6, #0]
    144a:	7e48      	ldrb	r0, [r1, #25]
    144c:	b240      	sxtb	r0, r0
    144e:	2800      	cmp	r0, #0
    1450:	dbfb      	blt.n	144a <adc_init+0x37e>
    1452:	89e0      	ldrh	r0, [r4, #14]
    1454:	7b21      	ldrb	r1, [r4, #12]
    1456:	4301      	orrs	r1, r0
    1458:	68a0      	ldr	r0, [r4, #8]
    145a:	4301      	orrs	r1, r0
    145c:	0512      	lsls	r2, r2, #20
    145e:	430a      	orrs	r2, r1
    1460:	041b      	lsls	r3, r3, #16
    1462:	4313      	orrs	r3, r2
    1464:	9901      	ldr	r1, [sp, #4]
    1466:	610b      	str	r3, [r1, #16]
    1468:	232a      	movs	r3, #42	; 0x2a
    146a:	5ce3      	ldrb	r3, [r4, r3]
    146c:	750b      	strb	r3, [r1, #20]
    146e:	230f      	movs	r3, #15
    1470:	758b      	strb	r3, [r1, #22]
    1472:	2324      	movs	r3, #36	; 0x24
    1474:	5ce3      	ldrb	r3, [r4, r3]
    1476:	2b00      	cmp	r3, #0
    1478:	d010      	beq.n	149c <adc_init+0x3d0>
    147a:	8ce3      	ldrh	r3, [r4, #38]	; 0x26
    147c:	2017      	movs	r0, #23
    147e:	4a1d      	ldr	r2, [pc, #116]	; (14f4 <adc_init+0x428>)
    1480:	4293      	cmp	r3, r2
    1482:	d82f      	bhi.n	14e4 <adc_init+0x418>
    1484:	848b      	strh	r3, [r1, #36]	; 0x24
    1486:	8d23      	ldrh	r3, [r4, #40]	; 0x28
    1488:	2080      	movs	r0, #128	; 0x80
    148a:	0100      	lsls	r0, r0, #4
    148c:	1819      	adds	r1, r3, r0
    148e:	b289      	uxth	r1, r1
    1490:	2017      	movs	r0, #23
    1492:	4a18      	ldr	r2, [pc, #96]	; (14f4 <adc_init+0x428>)
    1494:	4291      	cmp	r1, r2
    1496:	d825      	bhi.n	14e4 <adc_init+0x418>
    1498:	9901      	ldr	r1, [sp, #4]
    149a:	84cb      	strh	r3, [r1, #38]	; 0x26
    149c:	4b16      	ldr	r3, [pc, #88]	; (14f8 <adc_init+0x42c>)
    149e:	681a      	ldr	r2, [r3, #0]
    14a0:	0152      	lsls	r2, r2, #5
    14a2:	23e0      	movs	r3, #224	; 0xe0
    14a4:	00db      	lsls	r3, r3, #3
    14a6:	401a      	ands	r2, r3
    14a8:	4b14      	ldr	r3, [pc, #80]	; (14fc <adc_init+0x430>)
    14aa:	6858      	ldr	r0, [r3, #4]
    14ac:	0141      	lsls	r1, r0, #5
    14ae:	681b      	ldr	r3, [r3, #0]
    14b0:	0edb      	lsrs	r3, r3, #27
    14b2:	430b      	orrs	r3, r1
    14b4:	b2db      	uxtb	r3, r3
    14b6:	4313      	orrs	r3, r2
    14b8:	9901      	ldr	r1, [sp, #4]
    14ba:	850b      	strh	r3, [r1, #40]	; 0x28
    14bc:	2000      	movs	r0, #0
    14be:	e011      	b.n	14e4 <adc_init+0x418>
    14c0:	2017      	movs	r0, #23
    14c2:	e00f      	b.n	14e4 <adc_init+0x418>
    14c4:	2300      	movs	r3, #0
    14c6:	60b3      	str	r3, [r6, #8]
    14c8:	60f3      	str	r3, [r6, #12]
    14ca:	6133      	str	r3, [r6, #16]
    14cc:	76b3      	strb	r3, [r6, #26]
    14ce:	76f3      	strb	r3, [r6, #27]
    14d0:	8333      	strh	r3, [r6, #24]
    14d2:	7733      	strb	r3, [r6, #28]
    14d4:	4b0a      	ldr	r3, [pc, #40]	; (1500 <adc_init+0x434>)
    14d6:	601e      	str	r6, [r3, #0]
    14d8:	232a      	movs	r3, #42	; 0x2a
    14da:	5ce3      	ldrb	r3, [r4, r3]
    14dc:	2b00      	cmp	r3, #0
    14de:	d100      	bne.n	14e2 <adc_init+0x416>
    14e0:	e619      	b.n	1116 <adc_init+0x4a>
    14e2:	e61e      	b.n	1122 <adc_init+0x56>
    14e4:	b019      	add	sp, #100	; 0x64
    14e6:	bc3c      	pop	{r2, r3, r4, r5}
    14e8:	4690      	mov	r8, r2
    14ea:	4699      	mov	r9, r3
    14ec:	46a2      	mov	sl, r4
    14ee:	46ab      	mov	fp, r5
    14f0:	bdf0      	pop	{r4, r5, r6, r7, pc}
    14f2:	46c0      	nop			; (mov r8, r8)
    14f4:	00000fff 	.word	0x00000fff
    14f8:	00806024 	.word	0x00806024
    14fc:	00806020 	.word	0x00806020
    1500:	200002c0 	.word	0x200002c0

00001504 <ADC_Handler>:
    1504:	b538      	push	{r3, r4, r5, lr}
    1506:	4b2d      	ldr	r3, [pc, #180]	; (15bc <ADC_Handler+0xb8>)
    1508:	681c      	ldr	r4, [r3, #0]
    150a:	6823      	ldr	r3, [r4, #0]
    150c:	7e1d      	ldrb	r5, [r3, #24]
    150e:	b2ed      	uxtb	r5, r5
    1510:	07e9      	lsls	r1, r5, #31
    1512:	d535      	bpl.n	1580 <ADC_Handler+0x7c>
    1514:	7ee2      	ldrb	r2, [r4, #27]
    1516:	07d1      	lsls	r1, r2, #31
    1518:	d532      	bpl.n	1580 <ADC_Handler+0x7c>
    151a:	7ea2      	ldrb	r2, [r4, #26]
    151c:	07d1      	lsls	r1, r2, #31
    151e:	d52f      	bpl.n	1580 <ADC_Handler+0x7c>
    1520:	2201      	movs	r2, #1
    1522:	761a      	strb	r2, [r3, #24]
    1524:	6822      	ldr	r2, [r4, #0]
    1526:	7e53      	ldrb	r3, [r2, #25]
    1528:	b25b      	sxtb	r3, r3
    152a:	2b00      	cmp	r3, #0
    152c:	dbfb      	blt.n	1526 <ADC_Handler+0x22>
    152e:	6963      	ldr	r3, [r4, #20]
    1530:	1c99      	adds	r1, r3, #2
    1532:	6161      	str	r1, [r4, #20]
    1534:	8b52      	ldrh	r2, [r2, #26]
    1536:	b292      	uxth	r2, r2
    1538:	801a      	strh	r2, [r3, #0]
    153a:	8b23      	ldrh	r3, [r4, #24]
    153c:	3b01      	subs	r3, #1
    153e:	b29b      	uxth	r3, r3
    1540:	8323      	strh	r3, [r4, #24]
    1542:	2b00      	cmp	r3, #0
    1544:	d011      	beq.n	156a <ADC_Handler+0x66>
    1546:	7f63      	ldrb	r3, [r4, #29]
    1548:	2b00      	cmp	r3, #0
    154a:	d019      	beq.n	1580 <ADC_Handler+0x7c>
    154c:	6823      	ldr	r3, [r4, #0]
    154e:	7e5a      	ldrb	r2, [r3, #25]
    1550:	b252      	sxtb	r2, r2
    1552:	2a00      	cmp	r2, #0
    1554:	dbfb      	blt.n	154e <ADC_Handler+0x4a>
    1556:	7b19      	ldrb	r1, [r3, #12]
    1558:	2202      	movs	r2, #2
    155a:	430a      	orrs	r2, r1
    155c:	731a      	strb	r2, [r3, #12]
    155e:	6822      	ldr	r2, [r4, #0]
    1560:	7e53      	ldrb	r3, [r2, #25]
    1562:	b25b      	sxtb	r3, r3
    1564:	2b00      	cmp	r3, #0
    1566:	dbfb      	blt.n	1560 <ADC_Handler+0x5c>
    1568:	e00a      	b.n	1580 <ADC_Handler+0x7c>
    156a:	7f23      	ldrb	r3, [r4, #28]
    156c:	2b05      	cmp	r3, #5
    156e:	d107      	bne.n	1580 <ADC_Handler+0x7c>
    1570:	2300      	movs	r3, #0
    1572:	7723      	strb	r3, [r4, #28]
    1574:	2301      	movs	r3, #1
    1576:	6822      	ldr	r2, [r4, #0]
    1578:	7593      	strb	r3, [r2, #22]
    157a:	1c20      	adds	r0, r4, #0
    157c:	68a3      	ldr	r3, [r4, #8]
    157e:	4798      	blx	r3
    1580:	0769      	lsls	r1, r5, #29
    1582:	d50b      	bpl.n	159c <ADC_Handler+0x98>
    1584:	2304      	movs	r3, #4
    1586:	6822      	ldr	r2, [r4, #0]
    1588:	7613      	strb	r3, [r2, #24]
    158a:	7ee3      	ldrb	r3, [r4, #27]
    158c:	0799      	lsls	r1, r3, #30
    158e:	d505      	bpl.n	159c <ADC_Handler+0x98>
    1590:	7ea3      	ldrb	r3, [r4, #26]
    1592:	079a      	lsls	r2, r3, #30
    1594:	d502      	bpl.n	159c <ADC_Handler+0x98>
    1596:	1c20      	adds	r0, r4, #0
    1598:	68e3      	ldr	r3, [r4, #12]
    159a:	4798      	blx	r3
    159c:	07a9      	lsls	r1, r5, #30
    159e:	d50b      	bpl.n	15b8 <ADC_Handler+0xb4>
    15a0:	2302      	movs	r3, #2
    15a2:	6822      	ldr	r2, [r4, #0]
    15a4:	7613      	strb	r3, [r2, #24]
    15a6:	7ee3      	ldrb	r3, [r4, #27]
    15a8:	0759      	lsls	r1, r3, #29
    15aa:	d505      	bpl.n	15b8 <ADC_Handler+0xb4>
    15ac:	7ea3      	ldrb	r3, [r4, #26]
    15ae:	075a      	lsls	r2, r3, #29
    15b0:	d502      	bpl.n	15b8 <ADC_Handler+0xb4>
    15b2:	6923      	ldr	r3, [r4, #16]
    15b4:	1c20      	adds	r0, r4, #0
    15b6:	4798      	blx	r3
    15b8:	bd38      	pop	{r3, r4, r5, pc}
    15ba:	46c0      	nop			; (mov r8, r8)
    15bc:	200002c0 	.word	0x200002c0

000015c0 <adc_register_callback>:
    15c0:	1c93      	adds	r3, r2, #2
    15c2:	009b      	lsls	r3, r3, #2
    15c4:	5019      	str	r1, [r3, r0]
    15c6:	2301      	movs	r3, #1
    15c8:	4093      	lsls	r3, r2
    15ca:	1c1a      	adds	r2, r3, #0
    15cc:	7e83      	ldrb	r3, [r0, #26]
    15ce:	431a      	orrs	r2, r3
    15d0:	7682      	strb	r2, [r0, #26]
    15d2:	4770      	bx	lr

000015d4 <adc_read_buffer_job>:
    15d4:	b510      	push	{r4, lr}
    15d6:	1c03      	adds	r3, r0, #0
    15d8:	8b04      	ldrh	r4, [r0, #24]
    15da:	b2a4      	uxth	r4, r4
    15dc:	2005      	movs	r0, #5
    15de:	2c00      	cmp	r4, #0
    15e0:	d11d      	bne.n	161e <adc_read_buffer_job+0x4a>
    15e2:	7f18      	ldrb	r0, [r3, #28]
    15e4:	b2c0      	uxtb	r0, r0
    15e6:	2805      	cmp	r0, #5
    15e8:	d019      	beq.n	161e <adc_read_buffer_job+0x4a>
    15ea:	2005      	movs	r0, #5
    15ec:	7718      	strb	r0, [r3, #28]
    15ee:	831a      	strh	r2, [r3, #24]
    15f0:	6159      	str	r1, [r3, #20]
    15f2:	2201      	movs	r2, #1
    15f4:	6819      	ldr	r1, [r3, #0]
    15f6:	75ca      	strb	r2, [r1, #23]
    15f8:	7f5a      	ldrb	r2, [r3, #29]
    15fa:	2000      	movs	r0, #0
    15fc:	2a00      	cmp	r2, #0
    15fe:	d00e      	beq.n	161e <adc_read_buffer_job+0x4a>
    1600:	681a      	ldr	r2, [r3, #0]
    1602:	7e51      	ldrb	r1, [r2, #25]
    1604:	b249      	sxtb	r1, r1
    1606:	2900      	cmp	r1, #0
    1608:	dbfb      	blt.n	1602 <adc_read_buffer_job+0x2e>
    160a:	7b10      	ldrb	r0, [r2, #12]
    160c:	2102      	movs	r1, #2
    160e:	4301      	orrs	r1, r0
    1610:	7311      	strb	r1, [r2, #12]
    1612:	681a      	ldr	r2, [r3, #0]
    1614:	7e53      	ldrb	r3, [r2, #25]
    1616:	b25b      	sxtb	r3, r3
    1618:	2b00      	cmp	r3, #0
    161a:	dbfb      	blt.n	1614 <adc_read_buffer_job+0x40>
    161c:	2000      	movs	r0, #0
    161e:	bd10      	pop	{r4, pc}

00001620 <nvm_set_config>:
    1620:	b510      	push	{r4, lr}
    1622:	1c02      	adds	r2, r0, #0
    1624:	4b1c      	ldr	r3, [pc, #112]	; (1698 <nvm_set_config+0x78>)
    1626:	69d8      	ldr	r0, [r3, #28]
    1628:	2104      	movs	r1, #4
    162a:	4301      	orrs	r1, r0
    162c:	61d9      	str	r1, [r3, #28]
    162e:	4b1b      	ldr	r3, [pc, #108]	; (169c <nvm_set_config+0x7c>)
    1630:	8b18      	ldrh	r0, [r3, #24]
    1632:	2120      	movs	r1, #32
    1634:	31ff      	adds	r1, #255	; 0xff
    1636:	4301      	orrs	r1, r0
    1638:	8319      	strh	r1, [r3, #24]
    163a:	7d1b      	ldrb	r3, [r3, #20]
    163c:	2005      	movs	r0, #5
    163e:	07d9      	lsls	r1, r3, #31
    1640:	d528      	bpl.n	1694 <nvm_set_config+0x74>
    1642:	7811      	ldrb	r1, [r2, #0]
    1644:	0209      	lsls	r1, r1, #8
    1646:	23c0      	movs	r3, #192	; 0xc0
    1648:	009b      	lsls	r3, r3, #2
    164a:	4019      	ands	r1, r3
    164c:	7853      	ldrb	r3, [r2, #1]
    164e:	01db      	lsls	r3, r3, #7
    1650:	20ff      	movs	r0, #255	; 0xff
    1652:	4003      	ands	r3, r0
    1654:	4319      	orrs	r1, r3
    1656:	78d3      	ldrb	r3, [r2, #3]
    1658:	049b      	lsls	r3, r3, #18
    165a:	4319      	orrs	r1, r3
    165c:	7893      	ldrb	r3, [r2, #2]
    165e:	005b      	lsls	r3, r3, #1
    1660:	201e      	movs	r0, #30
    1662:	4003      	ands	r3, r0
    1664:	4319      	orrs	r1, r3
    1666:	7910      	ldrb	r0, [r2, #4]
    1668:	0400      	lsls	r0, r0, #16
    166a:	23c0      	movs	r3, #192	; 0xc0
    166c:	029b      	lsls	r3, r3, #10
    166e:	4003      	ands	r3, r0
    1670:	4319      	orrs	r1, r3
    1672:	4b0a      	ldr	r3, [pc, #40]	; (169c <nvm_set_config+0x7c>)
    1674:	6059      	str	r1, [r3, #4]
    1676:	6898      	ldr	r0, [r3, #8]
    1678:	0340      	lsls	r0, r0, #13
    167a:	0f40      	lsrs	r0, r0, #29
    167c:	4908      	ldr	r1, [pc, #32]	; (16a0 <nvm_set_config+0x80>)
    167e:	2408      	movs	r4, #8
    1680:	4084      	lsls	r4, r0
    1682:	800c      	strh	r4, [r1, #0]
    1684:	6898      	ldr	r0, [r3, #8]
    1686:	8048      	strh	r0, [r1, #2]
    1688:	7852      	ldrb	r2, [r2, #1]
    168a:	710a      	strb	r2, [r1, #4]
    168c:	8b18      	ldrh	r0, [r3, #24]
    168e:	05c0      	lsls	r0, r0, #23
    1690:	0fc0      	lsrs	r0, r0, #31
    1692:	0100      	lsls	r0, r0, #4
    1694:	bd10      	pop	{r4, pc}
    1696:	46c0      	nop			; (mov r8, r8)
    1698:	40000400 	.word	0x40000400
    169c:	41004000 	.word	0x41004000
    16a0:	200000d4 	.word	0x200000d4

000016a4 <nvm_execute_command>:
    16a4:	b530      	push	{r4, r5, lr}
    16a6:	4b1d      	ldr	r3, [pc, #116]	; (171c <nvm_execute_command+0x78>)
    16a8:	885a      	ldrh	r2, [r3, #2]
    16aa:	881b      	ldrh	r3, [r3, #0]
    16ac:	435a      	muls	r2, r3
    16ae:	2318      	movs	r3, #24
    16b0:	428a      	cmp	r2, r1
    16b2:	d331      	bcc.n	1718 <nvm_execute_command+0x74>
    16b4:	4b1a      	ldr	r3, [pc, #104]	; (1720 <nvm_execute_command+0x7c>)
    16b6:	685c      	ldr	r4, [r3, #4]
    16b8:	2280      	movs	r2, #128	; 0x80
    16ba:	02d2      	lsls	r2, r2, #11
    16bc:	4322      	orrs	r2, r4
    16be:	605a      	str	r2, [r3, #4]
    16c0:	8b1d      	ldrh	r5, [r3, #24]
    16c2:	2220      	movs	r2, #32
    16c4:	32ff      	adds	r2, #255	; 0xff
    16c6:	432a      	orrs	r2, r5
    16c8:	831a      	strh	r2, [r3, #24]
    16ca:	7d1a      	ldrb	r2, [r3, #20]
    16cc:	2305      	movs	r3, #5
    16ce:	07d5      	lsls	r5, r2, #31
    16d0:	d522      	bpl.n	1718 <nvm_execute_command+0x74>
    16d2:	2845      	cmp	r0, #69	; 0x45
    16d4:	d81f      	bhi.n	1716 <nvm_execute_command+0x72>
    16d6:	0083      	lsls	r3, r0, #2
    16d8:	4a12      	ldr	r2, [pc, #72]	; (1724 <nvm_execute_command+0x80>)
    16da:	58d3      	ldr	r3, [r2, r3]
    16dc:	469f      	mov	pc, r3
    16de:	4b10      	ldr	r3, [pc, #64]	; (1720 <nvm_execute_command+0x7c>)
    16e0:	8b1a      	ldrh	r2, [r3, #24]
    16e2:	2310      	movs	r3, #16
    16e4:	05d5      	lsls	r5, r2, #23
    16e6:	d417      	bmi.n	1718 <nvm_execute_command+0x74>
    16e8:	0889      	lsrs	r1, r1, #2
    16ea:	0049      	lsls	r1, r1, #1
    16ec:	4b0c      	ldr	r3, [pc, #48]	; (1720 <nvm_execute_command+0x7c>)
    16ee:	61d9      	str	r1, [r3, #28]
    16f0:	e003      	b.n	16fa <nvm_execute_command+0x56>
    16f2:	0889      	lsrs	r1, r1, #2
    16f4:	0049      	lsls	r1, r1, #1
    16f6:	4b0a      	ldr	r3, [pc, #40]	; (1720 <nvm_execute_command+0x7c>)
    16f8:	61d9      	str	r1, [r3, #28]
    16fa:	23a5      	movs	r3, #165	; 0xa5
    16fc:	021b      	lsls	r3, r3, #8
    16fe:	4318      	orrs	r0, r3
    1700:	4b07      	ldr	r3, [pc, #28]	; (1720 <nvm_execute_command+0x7c>)
    1702:	8018      	strh	r0, [r3, #0]
    1704:	1c19      	adds	r1, r3, #0
    1706:	2201      	movs	r2, #1
    1708:	7d0b      	ldrb	r3, [r1, #20]
    170a:	4213      	tst	r3, r2
    170c:	d0fc      	beq.n	1708 <nvm_execute_command+0x64>
    170e:	4b04      	ldr	r3, [pc, #16]	; (1720 <nvm_execute_command+0x7c>)
    1710:	605c      	str	r4, [r3, #4]
    1712:	2300      	movs	r3, #0
    1714:	e000      	b.n	1718 <nvm_execute_command+0x74>
    1716:	2317      	movs	r3, #23
    1718:	1c18      	adds	r0, r3, #0
    171a:	bd30      	pop	{r4, r5, pc}
    171c:	200000d4 	.word	0x200000d4
    1720:	41004000 	.word	0x41004000
    1724:	00009ac0 	.word	0x00009ac0

00001728 <nvm_write_buffer>:
    1728:	b5f8      	push	{r3, r4, r5, r6, r7, lr}
    172a:	1c05      	adds	r5, r0, #0
    172c:	4b1d      	ldr	r3, [pc, #116]	; (17a4 <nvm_write_buffer+0x7c>)
    172e:	881c      	ldrh	r4, [r3, #0]
    1730:	885b      	ldrh	r3, [r3, #2]
    1732:	4363      	muls	r3, r4
    1734:	2018      	movs	r0, #24
    1736:	42ab      	cmp	r3, r5
    1738:	d333      	bcc.n	17a2 <nvm_write_buffer+0x7a>
    173a:	1e63      	subs	r3, r4, #1
    173c:	422b      	tst	r3, r5
    173e:	d130      	bne.n	17a2 <nvm_write_buffer+0x7a>
    1740:	2017      	movs	r0, #23
    1742:	4294      	cmp	r4, r2
    1744:	d32d      	bcc.n	17a2 <nvm_write_buffer+0x7a>
    1746:	4b18      	ldr	r3, [pc, #96]	; (17a8 <nvm_write_buffer+0x80>)
    1748:	7d1b      	ldrb	r3, [r3, #20]
    174a:	2005      	movs	r0, #5
    174c:	07dc      	lsls	r4, r3, #31
    174e:	d528      	bpl.n	17a2 <nvm_write_buffer+0x7a>
    1750:	4816      	ldr	r0, [pc, #88]	; (17ac <nvm_write_buffer+0x84>)
    1752:	4b15      	ldr	r3, [pc, #84]	; (17a8 <nvm_write_buffer+0x80>)
    1754:	8018      	strh	r0, [r3, #0]
    1756:	1c1c      	adds	r4, r3, #0
    1758:	2001      	movs	r0, #1
    175a:	7d23      	ldrb	r3, [r4, #20]
    175c:	4203      	tst	r3, r0
    175e:	d0fc      	beq.n	175a <nvm_write_buffer+0x32>
    1760:	4b11      	ldr	r3, [pc, #68]	; (17a8 <nvm_write_buffer+0x80>)
    1762:	8b1c      	ldrh	r4, [r3, #24]
    1764:	2020      	movs	r0, #32
    1766:	30ff      	adds	r0, #255	; 0xff
    1768:	4320      	orrs	r0, r4
    176a:	8318      	strh	r0, [r3, #24]
    176c:	0868      	lsrs	r0, r5, #1
    176e:	2a00      	cmp	r2, #0
    1770:	d012      	beq.n	1798 <nvm_write_buffer+0x70>
    1772:	0040      	lsls	r0, r0, #1
    1774:	2300      	movs	r3, #0
    1776:	1e56      	subs	r6, r2, #1
    1778:	5ccc      	ldrb	r4, [r1, r3]
    177a:	42b3      	cmp	r3, r6
    177c:	da03      	bge.n	1786 <nvm_write_buffer+0x5e>
    177e:	18cf      	adds	r7, r1, r3
    1780:	787f      	ldrb	r7, [r7, #1]
    1782:	023f      	lsls	r7, r7, #8
    1784:	433c      	orrs	r4, r7
    1786:	8004      	strh	r4, [r0, #0]
    1788:	3302      	adds	r3, #2
    178a:	b29b      	uxth	r3, r3
    178c:	3002      	adds	r0, #2
    178e:	429a      	cmp	r2, r3
    1790:	d8f2      	bhi.n	1778 <nvm_write_buffer+0x50>
    1792:	2000      	movs	r0, #0
    1794:	2a3f      	cmp	r2, #63	; 0x3f
    1796:	d804      	bhi.n	17a2 <nvm_write_buffer+0x7a>
    1798:	2004      	movs	r0, #4
    179a:	1c29      	adds	r1, r5, #0
    179c:	2200      	movs	r2, #0
    179e:	4b04      	ldr	r3, [pc, #16]	; (17b0 <nvm_write_buffer+0x88>)
    17a0:	4798      	blx	r3
    17a2:	bdf8      	pop	{r3, r4, r5, r6, r7, pc}
    17a4:	200000d4 	.word	0x200000d4
    17a8:	41004000 	.word	0x41004000
    17ac:	ffffa544 	.word	0xffffa544
    17b0:	000016a5 	.word	0x000016a5

000017b4 <nvm_read_buffer>:
    17b4:	b570      	push	{r4, r5, r6, lr}
    17b6:	4b19      	ldr	r3, [pc, #100]	; (181c <nvm_read_buffer+0x68>)
    17b8:	881c      	ldrh	r4, [r3, #0]
    17ba:	885d      	ldrh	r5, [r3, #2]
    17bc:	4365      	muls	r5, r4
    17be:	2318      	movs	r3, #24
    17c0:	4285      	cmp	r5, r0
    17c2:	d329      	bcc.n	1818 <nvm_read_buffer+0x64>
    17c4:	1e65      	subs	r5, r4, #1
    17c6:	4205      	tst	r5, r0
    17c8:	d126      	bne.n	1818 <nvm_read_buffer+0x64>
    17ca:	2317      	movs	r3, #23
    17cc:	4294      	cmp	r4, r2
    17ce:	d323      	bcc.n	1818 <nvm_read_buffer+0x64>
    17d0:	4b13      	ldr	r3, [pc, #76]	; (1820 <nvm_read_buffer+0x6c>)
    17d2:	7d1c      	ldrb	r4, [r3, #20]
    17d4:	2305      	movs	r3, #5
    17d6:	07e5      	lsls	r5, r4, #31
    17d8:	d51e      	bpl.n	1818 <nvm_read_buffer+0x64>
    17da:	4b11      	ldr	r3, [pc, #68]	; (1820 <nvm_read_buffer+0x6c>)
    17dc:	8b1d      	ldrh	r5, [r3, #24]
    17de:	2420      	movs	r4, #32
    17e0:	34ff      	adds	r4, #255	; 0xff
    17e2:	432c      	orrs	r4, r5
    17e4:	831c      	strh	r4, [r3, #24]
    17e6:	0840      	lsrs	r0, r0, #1
    17e8:	2a00      	cmp	r2, #0
    17ea:	d012      	beq.n	1812 <nvm_read_buffer+0x5e>
    17ec:	0040      	lsls	r0, r0, #1
    17ee:	2300      	movs	r3, #0
    17f0:	1e56      	subs	r6, r2, #1
    17f2:	181c      	adds	r4, r3, r0
    17f4:	8825      	ldrh	r5, [r4, #0]
    17f6:	b2ad      	uxth	r5, r5
    17f8:	041c      	lsls	r4, r3, #16
    17fa:	0c24      	lsrs	r4, r4, #16
    17fc:	550d      	strb	r5, [r1, r4]
    17fe:	42b4      	cmp	r4, r6
    1800:	da02      	bge.n	1808 <nvm_read_buffer+0x54>
    1802:	190c      	adds	r4, r1, r4
    1804:	0a2d      	lsrs	r5, r5, #8
    1806:	7065      	strb	r5, [r4, #1]
    1808:	3302      	adds	r3, #2
    180a:	b29c      	uxth	r4, r3
    180c:	42a2      	cmp	r2, r4
    180e:	d8f0      	bhi.n	17f2 <nvm_read_buffer+0x3e>
    1810:	e001      	b.n	1816 <nvm_read_buffer+0x62>
    1812:	2300      	movs	r3, #0
    1814:	e000      	b.n	1818 <nvm_read_buffer+0x64>
    1816:	2300      	movs	r3, #0
    1818:	1c18      	adds	r0, r3, #0
    181a:	bd70      	pop	{r4, r5, r6, pc}
    181c:	200000d4 	.word	0x200000d4
    1820:	41004000 	.word	0x41004000

00001824 <nvm_erase_row>:
    1824:	4b0e      	ldr	r3, [pc, #56]	; (1860 <nvm_erase_row+0x3c>)
    1826:	881a      	ldrh	r2, [r3, #0]
    1828:	8859      	ldrh	r1, [r3, #2]
    182a:	4351      	muls	r1, r2
    182c:	2318      	movs	r3, #24
    182e:	4281      	cmp	r1, r0
    1830:	d314      	bcc.n	185c <nvm_erase_row+0x38>
    1832:	0092      	lsls	r2, r2, #2
    1834:	3a01      	subs	r2, #1
    1836:	4210      	tst	r0, r2
    1838:	d110      	bne.n	185c <nvm_erase_row+0x38>
    183a:	4b0a      	ldr	r3, [pc, #40]	; (1864 <nvm_erase_row+0x40>)
    183c:	7d1a      	ldrb	r2, [r3, #20]
    183e:	2305      	movs	r3, #5
    1840:	07d1      	lsls	r1, r2, #31
    1842:	d50b      	bpl.n	185c <nvm_erase_row+0x38>
    1844:	4b07      	ldr	r3, [pc, #28]	; (1864 <nvm_erase_row+0x40>)
    1846:	8b19      	ldrh	r1, [r3, #24]
    1848:	2220      	movs	r2, #32
    184a:	32ff      	adds	r2, #255	; 0xff
    184c:	430a      	orrs	r2, r1
    184e:	831a      	strh	r2, [r3, #24]
    1850:	0880      	lsrs	r0, r0, #2
    1852:	0040      	lsls	r0, r0, #1
    1854:	61d8      	str	r0, [r3, #28]
    1856:	4a04      	ldr	r2, [pc, #16]	; (1868 <nvm_erase_row+0x44>)
    1858:	801a      	strh	r2, [r3, #0]
    185a:	2300      	movs	r3, #0
    185c:	1c18      	adds	r0, r3, #0
    185e:	4770      	bx	lr
    1860:	200000d4 	.word	0x200000d4
    1864:	41004000 	.word	0x41004000
    1868:	ffffa502 	.word	0xffffa502

0000186c <nvm_get_parameters>:
    186c:	4b15      	ldr	r3, [pc, #84]	; (18c4 <nvm_get_parameters+0x58>)
    186e:	8b19      	ldrh	r1, [r3, #24]
    1870:	2220      	movs	r2, #32
    1872:	32ff      	adds	r2, #255	; 0xff
    1874:	430a      	orrs	r2, r1
    1876:	831a      	strh	r2, [r3, #24]
    1878:	689b      	ldr	r3, [r3, #8]
    187a:	035a      	lsls	r2, r3, #13
    187c:	0f52      	lsrs	r2, r2, #29
    187e:	2108      	movs	r1, #8
    1880:	4091      	lsls	r1, r2
    1882:	7001      	strb	r1, [r0, #0]
    1884:	8043      	strh	r3, [r0, #2]
    1886:	4b10      	ldr	r3, [pc, #64]	; (18c8 <nvm_get_parameters+0x5c>)
    1888:	881b      	ldrh	r3, [r3, #0]
    188a:	065b      	lsls	r3, r3, #25
    188c:	0f5b      	lsrs	r3, r3, #29
    188e:	b29a      	uxth	r2, r3
    1890:	2a07      	cmp	r2, #7
    1892:	d102      	bne.n	189a <nvm_get_parameters+0x2e>
    1894:	2300      	movs	r3, #0
    1896:	6043      	str	r3, [r0, #4]
    1898:	e004      	b.n	18a4 <nvm_get_parameters+0x38>
    189a:	2206      	movs	r2, #6
    189c:	1ad3      	subs	r3, r2, r3
    189e:	2204      	movs	r2, #4
    18a0:	409a      	lsls	r2, r3
    18a2:	6042      	str	r2, [r0, #4]
    18a4:	4b08      	ldr	r3, [pc, #32]	; (18c8 <nvm_get_parameters+0x5c>)
    18a6:	881a      	ldrh	r2, [r3, #0]
    18a8:	2307      	movs	r3, #7
    18aa:	4013      	ands	r3, r2
    18ac:	2b07      	cmp	r3, #7
    18ae:	d102      	bne.n	18b6 <nvm_get_parameters+0x4a>
    18b0:	2300      	movs	r3, #0
    18b2:	6083      	str	r3, [r0, #8]
    18b4:	e004      	b.n	18c0 <nvm_get_parameters+0x54>
    18b6:	2207      	movs	r2, #7
    18b8:	1ad3      	subs	r3, r2, r3
    18ba:	2204      	movs	r2, #4
    18bc:	409a      	lsls	r2, r3
    18be:	6082      	str	r2, [r0, #8]
    18c0:	4770      	bx	lr
    18c2:	46c0      	nop			; (mov r8, r8)
    18c4:	41004000 	.word	0x41004000
    18c8:	00804000 	.word	0x00804000

000018cc <port_pin_set_config>:
    18cc:	b500      	push	{lr}
    18ce:	b083      	sub	sp, #12
    18d0:	ab01      	add	r3, sp, #4
    18d2:	2280      	movs	r2, #128	; 0x80
    18d4:	701a      	strb	r2, [r3, #0]
    18d6:	780a      	ldrb	r2, [r1, #0]
    18d8:	705a      	strb	r2, [r3, #1]
    18da:	784a      	ldrb	r2, [r1, #1]
    18dc:	709a      	strb	r2, [r3, #2]
    18de:	788a      	ldrb	r2, [r1, #2]
    18e0:	70da      	strb	r2, [r3, #3]
    18e2:	1c19      	adds	r1, r3, #0
    18e4:	4b01      	ldr	r3, [pc, #4]	; (18ec <port_pin_set_config+0x20>)
    18e6:	4798      	blx	r3
    18e8:	b003      	add	sp, #12
    18ea:	bd00      	pop	{pc}
    18ec:	00002e21 	.word	0x00002e21

000018f0 <_sercom_get_sync_baud_val>:
    18f0:	b510      	push	{r4, lr}
    18f2:	1c03      	adds	r3, r0, #0
    18f4:	0849      	lsrs	r1, r1, #1
    18f6:	2040      	movs	r0, #64	; 0x40
    18f8:	4299      	cmp	r1, r3
    18fa:	d30c      	bcc.n	1916 <_sercom_get_sync_baud_val+0x26>
    18fc:	2400      	movs	r4, #0
    18fe:	1ac9      	subs	r1, r1, r3
    1900:	1c60      	adds	r0, r4, #1
    1902:	b280      	uxth	r0, r0
    1904:	428b      	cmp	r3, r1
    1906:	d801      	bhi.n	190c <_sercom_get_sync_baud_val+0x1c>
    1908:	1c04      	adds	r4, r0, #0
    190a:	e7f8      	b.n	18fe <_sercom_get_sync_baud_val+0xe>
    190c:	2040      	movs	r0, #64	; 0x40
    190e:	2cff      	cmp	r4, #255	; 0xff
    1910:	d801      	bhi.n	1916 <_sercom_get_sync_baud_val+0x26>
    1912:	8014      	strh	r4, [r2, #0]
    1914:	2000      	movs	r0, #0
    1916:	bd10      	pop	{r4, pc}

00001918 <_sercom_get_async_baud_val>:
    1918:	b5f0      	push	{r4, r5, r6, r7, lr}
    191a:	465f      	mov	r7, fp
    191c:	4656      	mov	r6, sl
    191e:	464d      	mov	r5, r9
    1920:	4644      	mov	r4, r8
    1922:	b4f0      	push	{r4, r5, r6, r7}
    1924:	b087      	sub	sp, #28
    1926:	1c06      	adds	r6, r0, #0
    1928:	1c0d      	adds	r5, r1, #0
    192a:	9204      	str	r2, [sp, #16]
    192c:	aa10      	add	r2, sp, #64	; 0x40
    192e:	7810      	ldrb	r0, [r2, #0]
    1930:	1c32      	adds	r2, r6, #0
    1932:	4342      	muls	r2, r0
    1934:	2440      	movs	r4, #64	; 0x40
    1936:	428a      	cmp	r2, r1
    1938:	d900      	bls.n	193c <_sercom_get_async_baud_val+0x24>
    193a:	e0b3      	b.n	1aa4 <_sercom_get_async_baud_val+0x18c>
    193c:	2b00      	cmp	r3, #0
    193e:	d14b      	bne.n	19d8 <_sercom_get_async_baud_val+0xc0>
    1940:	2100      	movs	r1, #0
    1942:	1c32      	adds	r2, r6, #0
    1944:	4c5e      	ldr	r4, [pc, #376]	; (1ac0 <_sercom_get_async_baud_val+0x1a8>)
    1946:	47a0      	blx	r4
    1948:	4683      	mov	fp, r0
    194a:	1c2e      	adds	r6, r5, #0
    194c:	2700      	movs	r7, #0
    194e:	2000      	movs	r0, #0
    1950:	2100      	movs	r1, #0
    1952:	2200      	movs	r2, #0
    1954:	2300      	movs	r3, #0
    1956:	243f      	movs	r4, #63	; 0x3f
    1958:	46a4      	mov	ip, r4
    195a:	2501      	movs	r5, #1
    195c:	46a8      	mov	r8, r5
    195e:	9002      	str	r0, [sp, #8]
    1960:	9103      	str	r1, [sp, #12]
    1962:	4661      	mov	r1, ip
    1964:	3920      	subs	r1, #32
    1966:	d403      	bmi.n	1970 <_sercom_get_async_baud_val+0x58>
    1968:	4640      	mov	r0, r8
    196a:	4088      	lsls	r0, r1
    196c:	4681      	mov	r9, r0
    196e:	e005      	b.n	197c <_sercom_get_async_baud_val+0x64>
    1970:	2120      	movs	r1, #32
    1972:	4665      	mov	r5, ip
    1974:	1b4c      	subs	r4, r1, r5
    1976:	4640      	mov	r0, r8
    1978:	40e0      	lsrs	r0, r4
    197a:	4681      	mov	r9, r0
    197c:	4641      	mov	r1, r8
    197e:	4664      	mov	r4, ip
    1980:	40a1      	lsls	r1, r4
    1982:	468a      	mov	sl, r1
    1984:	1c10      	adds	r0, r2, #0
    1986:	1c19      	adds	r1, r3, #0
    1988:	1880      	adds	r0, r0, r2
    198a:	4159      	adcs	r1, r3
    198c:	1c02      	adds	r2, r0, #0
    198e:	1c0b      	adds	r3, r1, #0
    1990:	465d      	mov	r5, fp
    1992:	464c      	mov	r4, r9
    1994:	4225      	tst	r5, r4
    1996:	d002      	beq.n	199e <_sercom_get_async_baud_val+0x86>
    1998:	4642      	mov	r2, r8
    199a:	4302      	orrs	r2, r0
    199c:	1c0b      	adds	r3, r1, #0
    199e:	429f      	cmp	r7, r3
    19a0:	d80c      	bhi.n	19bc <_sercom_get_async_baud_val+0xa4>
    19a2:	d101      	bne.n	19a8 <_sercom_get_async_baud_val+0x90>
    19a4:	4296      	cmp	r6, r2
    19a6:	d809      	bhi.n	19bc <_sercom_get_async_baud_val+0xa4>
    19a8:	1b92      	subs	r2, r2, r6
    19aa:	41bb      	sbcs	r3, r7
    19ac:	4650      	mov	r0, sl
    19ae:	9d02      	ldr	r5, [sp, #8]
    19b0:	4328      	orrs	r0, r5
    19b2:	4649      	mov	r1, r9
    19b4:	9c03      	ldr	r4, [sp, #12]
    19b6:	4321      	orrs	r1, r4
    19b8:	9002      	str	r0, [sp, #8]
    19ba:	9103      	str	r1, [sp, #12]
    19bc:	4665      	mov	r5, ip
    19be:	3d01      	subs	r5, #1
    19c0:	46ac      	mov	ip, r5
    19c2:	d2ce      	bcs.n	1962 <_sercom_get_async_baud_val+0x4a>
    19c4:	9802      	ldr	r0, [sp, #8]
    19c6:	9903      	ldr	r1, [sp, #12]
    19c8:	4b3c      	ldr	r3, [pc, #240]	; (1abc <_sercom_get_async_baud_val+0x1a4>)
    19ca:	4a3b      	ldr	r2, [pc, #236]	; (1ab8 <_sercom_get_async_baud_val+0x1a0>)
    19cc:	1a12      	subs	r2, r2, r0
    19ce:	418b      	sbcs	r3, r1
    19d0:	0c12      	lsrs	r2, r2, #16
    19d2:	041b      	lsls	r3, r3, #16
    19d4:	431a      	orrs	r2, r3
    19d6:	e062      	b.n	1a9e <_sercom_get_async_baud_val+0x186>
    19d8:	2200      	movs	r2, #0
    19da:	2b01      	cmp	r3, #1
    19dc:	d15f      	bne.n	1a9e <_sercom_get_async_baud_val+0x186>
    19de:	0f4f      	lsrs	r7, r1, #29
    19e0:	46b9      	mov	r9, r7
    19e2:	00cd      	lsls	r5, r1, #3
    19e4:	46ab      	mov	fp, r5
    19e6:	2100      	movs	r1, #0
    19e8:	1c32      	adds	r2, r6, #0
    19ea:	2300      	movs	r3, #0
    19ec:	4c34      	ldr	r4, [pc, #208]	; (1ac0 <_sercom_get_async_baud_val+0x1a8>)
    19ee:	47a0      	blx	r4
    19f0:	1c06      	adds	r6, r0, #0
    19f2:	1c0f      	adds	r7, r1, #0
    19f4:	2300      	movs	r3, #0
    19f6:	2501      	movs	r5, #1
    19f8:	9602      	str	r6, [sp, #8]
    19fa:	9703      	str	r7, [sp, #12]
    19fc:	469a      	mov	sl, r3
    19fe:	4650      	mov	r0, sl
    1a00:	b2c0      	uxtb	r0, r0
    1a02:	9005      	str	r0, [sp, #20]
    1a04:	2100      	movs	r1, #0
    1a06:	4688      	mov	r8, r1
    1a08:	2200      	movs	r2, #0
    1a0a:	2300      	movs	r3, #0
    1a0c:	243f      	movs	r4, #63	; 0x3f
    1a0e:	1c27      	adds	r7, r4, #0
    1a10:	3f20      	subs	r7, #32
    1a12:	d403      	bmi.n	1a1c <_sercom_get_async_baud_val+0x104>
    1a14:	1c2e      	adds	r6, r5, #0
    1a16:	40be      	lsls	r6, r7
    1a18:	9601      	str	r6, [sp, #4]
    1a1a:	e004      	b.n	1a26 <_sercom_get_async_baud_val+0x10e>
    1a1c:	2020      	movs	r0, #32
    1a1e:	1b07      	subs	r7, r0, r4
    1a20:	1c29      	adds	r1, r5, #0
    1a22:	40f9      	lsrs	r1, r7
    1a24:	9101      	str	r1, [sp, #4]
    1a26:	1c2e      	adds	r6, r5, #0
    1a28:	40a6      	lsls	r6, r4
    1a2a:	9600      	str	r6, [sp, #0]
    1a2c:	1c10      	adds	r0, r2, #0
    1a2e:	1c19      	adds	r1, r3, #0
    1a30:	1880      	adds	r0, r0, r2
    1a32:	4159      	adcs	r1, r3
    1a34:	1c02      	adds	r2, r0, #0
    1a36:	1c0b      	adds	r3, r1, #0
    1a38:	465f      	mov	r7, fp
    1a3a:	4037      	ands	r7, r6
    1a3c:	46bc      	mov	ip, r7
    1a3e:	9e01      	ldr	r6, [sp, #4]
    1a40:	464f      	mov	r7, r9
    1a42:	403e      	ands	r6, r7
    1a44:	4667      	mov	r7, ip
    1a46:	433e      	orrs	r6, r7
    1a48:	d002      	beq.n	1a50 <_sercom_get_async_baud_val+0x138>
    1a4a:	1c2a      	adds	r2, r5, #0
    1a4c:	4302      	orrs	r2, r0
    1a4e:	1c0b      	adds	r3, r1, #0
    1a50:	9803      	ldr	r0, [sp, #12]
    1a52:	4298      	cmp	r0, r3
    1a54:	d80b      	bhi.n	1a6e <_sercom_get_async_baud_val+0x156>
    1a56:	d102      	bne.n	1a5e <_sercom_get_async_baud_val+0x146>
    1a58:	9902      	ldr	r1, [sp, #8]
    1a5a:	4291      	cmp	r1, r2
    1a5c:	d807      	bhi.n	1a6e <_sercom_get_async_baud_val+0x156>
    1a5e:	9e02      	ldr	r6, [sp, #8]
    1a60:	9f03      	ldr	r7, [sp, #12]
    1a62:	1b92      	subs	r2, r2, r6
    1a64:	41bb      	sbcs	r3, r7
    1a66:	4647      	mov	r7, r8
    1a68:	9800      	ldr	r0, [sp, #0]
    1a6a:	4307      	orrs	r7, r0
    1a6c:	46b8      	mov	r8, r7
    1a6e:	3c01      	subs	r4, #1
    1a70:	d2cd      	bcs.n	1a0e <_sercom_get_async_baud_val+0xf6>
    1a72:	4641      	mov	r1, r8
    1a74:	4652      	mov	r2, sl
    1a76:	1a8b      	subs	r3, r1, r2
    1a78:	08db      	lsrs	r3, r3, #3
    1a7a:	4c12      	ldr	r4, [pc, #72]	; (1ac4 <_sercom_get_async_baud_val+0x1ac>)
    1a7c:	42a3      	cmp	r3, r4
    1a7e:	d908      	bls.n	1a92 <_sercom_get_async_baud_val+0x17a>
    1a80:	9a05      	ldr	r2, [sp, #20]
    1a82:	3201      	adds	r2, #1
    1a84:	b2d2      	uxtb	r2, r2
    1a86:	9205      	str	r2, [sp, #20]
    1a88:	2601      	movs	r6, #1
    1a8a:	44b2      	add	sl, r6
    1a8c:	4657      	mov	r7, sl
    1a8e:	2f08      	cmp	r7, #8
    1a90:	d1b5      	bne.n	19fe <_sercom_get_async_baud_val+0xe6>
    1a92:	2440      	movs	r4, #64	; 0x40
    1a94:	9805      	ldr	r0, [sp, #20]
    1a96:	2808      	cmp	r0, #8
    1a98:	d004      	beq.n	1aa4 <_sercom_get_async_baud_val+0x18c>
    1a9a:	0342      	lsls	r2, r0, #13
    1a9c:	431a      	orrs	r2, r3
    1a9e:	9c04      	ldr	r4, [sp, #16]
    1aa0:	8022      	strh	r2, [r4, #0]
    1aa2:	2400      	movs	r4, #0
    1aa4:	1c20      	adds	r0, r4, #0
    1aa6:	b007      	add	sp, #28
    1aa8:	bc3c      	pop	{r2, r3, r4, r5}
    1aaa:	4690      	mov	r8, r2
    1aac:	4699      	mov	r9, r3
    1aae:	46a2      	mov	sl, r4
    1ab0:	46ab      	mov	fp, r5
    1ab2:	bdf0      	pop	{r4, r5, r6, r7, pc}
    1ab4:	46c0      	nop			; (mov r8, r8)
    1ab6:	46c0      	nop			; (mov r8, r8)
    1ab8:	00000000 	.word	0x00000000
    1abc:	00000001 	.word	0x00000001
    1ac0:	00006b8d 	.word	0x00006b8d
    1ac4:	00001fff 	.word	0x00001fff

00001ac8 <sercom_set_gclk_generator>:
    1ac8:	b510      	push	{r4, lr}
    1aca:	b082      	sub	sp, #8
    1acc:	1c04      	adds	r4, r0, #0
    1ace:	4b0f      	ldr	r3, [pc, #60]	; (1b0c <sercom_set_gclk_generator+0x44>)
    1ad0:	781b      	ldrb	r3, [r3, #0]
    1ad2:	2b00      	cmp	r3, #0
    1ad4:	d001      	beq.n	1ada <sercom_set_gclk_generator+0x12>
    1ad6:	2900      	cmp	r1, #0
    1ad8:	d00d      	beq.n	1af6 <sercom_set_gclk_generator+0x2e>
    1ada:	a901      	add	r1, sp, #4
    1adc:	700c      	strb	r4, [r1, #0]
    1ade:	2013      	movs	r0, #19
    1ae0:	4b0b      	ldr	r3, [pc, #44]	; (1b10 <sercom_set_gclk_generator+0x48>)
    1ae2:	4798      	blx	r3
    1ae4:	2013      	movs	r0, #19
    1ae6:	4b0b      	ldr	r3, [pc, #44]	; (1b14 <sercom_set_gclk_generator+0x4c>)
    1ae8:	4798      	blx	r3
    1aea:	4b08      	ldr	r3, [pc, #32]	; (1b0c <sercom_set_gclk_generator+0x44>)
    1aec:	705c      	strb	r4, [r3, #1]
    1aee:	2201      	movs	r2, #1
    1af0:	701a      	strb	r2, [r3, #0]
    1af2:	2000      	movs	r0, #0
    1af4:	e007      	b.n	1b06 <sercom_set_gclk_generator+0x3e>
    1af6:	4b05      	ldr	r3, [pc, #20]	; (1b0c <sercom_set_gclk_generator+0x44>)
    1af8:	785a      	ldrb	r2, [r3, #1]
    1afa:	201d      	movs	r0, #29
    1afc:	1b14      	subs	r4, r2, r4
    1afe:	1e62      	subs	r2, r4, #1
    1b00:	4194      	sbcs	r4, r2
    1b02:	4264      	negs	r4, r4
    1b04:	4020      	ands	r0, r4
    1b06:	b002      	add	sp, #8
    1b08:	bd10      	pop	{r4, pc}
    1b0a:	46c0      	nop			; (mov r8, r8)
    1b0c:	200000dc 	.word	0x200000dc
    1b10:	00002d45 	.word	0x00002d45
    1b14:	00002cb9 	.word	0x00002cb9

00001b18 <_sercom_get_default_pad>:
    1b18:	4b2e      	ldr	r3, [pc, #184]	; (1bd4 <_sercom_get_default_pad+0xbc>)
    1b1a:	4298      	cmp	r0, r3
    1b1c:	d01c      	beq.n	1b58 <_sercom_get_default_pad+0x40>
    1b1e:	d803      	bhi.n	1b28 <_sercom_get_default_pad+0x10>
    1b20:	4b2d      	ldr	r3, [pc, #180]	; (1bd8 <_sercom_get_default_pad+0xc0>)
    1b22:	4298      	cmp	r0, r3
    1b24:	d007      	beq.n	1b36 <_sercom_get_default_pad+0x1e>
    1b26:	e04a      	b.n	1bbe <_sercom_get_default_pad+0xa6>
    1b28:	4b2c      	ldr	r3, [pc, #176]	; (1bdc <_sercom_get_default_pad+0xc4>)
    1b2a:	4298      	cmp	r0, r3
    1b2c:	d025      	beq.n	1b7a <_sercom_get_default_pad+0x62>
    1b2e:	4b2c      	ldr	r3, [pc, #176]	; (1be0 <_sercom_get_default_pad+0xc8>)
    1b30:	4298      	cmp	r0, r3
    1b32:	d033      	beq.n	1b9c <_sercom_get_default_pad+0x84>
    1b34:	e043      	b.n	1bbe <_sercom_get_default_pad+0xa6>
    1b36:	2901      	cmp	r1, #1
    1b38:	d043      	beq.n	1bc2 <_sercom_get_default_pad+0xaa>
    1b3a:	2900      	cmp	r1, #0
    1b3c:	d004      	beq.n	1b48 <_sercom_get_default_pad+0x30>
    1b3e:	2902      	cmp	r1, #2
    1b40:	d006      	beq.n	1b50 <_sercom_get_default_pad+0x38>
    1b42:	2903      	cmp	r1, #3
    1b44:	d006      	beq.n	1b54 <_sercom_get_default_pad+0x3c>
    1b46:	e001      	b.n	1b4c <_sercom_get_default_pad+0x34>
    1b48:	4826      	ldr	r0, [pc, #152]	; (1be4 <_sercom_get_default_pad+0xcc>)
    1b4a:	e041      	b.n	1bd0 <_sercom_get_default_pad+0xb8>
    1b4c:	2000      	movs	r0, #0
    1b4e:	e03f      	b.n	1bd0 <_sercom_get_default_pad+0xb8>
    1b50:	4825      	ldr	r0, [pc, #148]	; (1be8 <_sercom_get_default_pad+0xd0>)
    1b52:	e03d      	b.n	1bd0 <_sercom_get_default_pad+0xb8>
    1b54:	4825      	ldr	r0, [pc, #148]	; (1bec <_sercom_get_default_pad+0xd4>)
    1b56:	e03b      	b.n	1bd0 <_sercom_get_default_pad+0xb8>
    1b58:	2901      	cmp	r1, #1
    1b5a:	d034      	beq.n	1bc6 <_sercom_get_default_pad+0xae>
    1b5c:	2900      	cmp	r1, #0
    1b5e:	d004      	beq.n	1b6a <_sercom_get_default_pad+0x52>
    1b60:	2902      	cmp	r1, #2
    1b62:	d006      	beq.n	1b72 <_sercom_get_default_pad+0x5a>
    1b64:	2903      	cmp	r1, #3
    1b66:	d006      	beq.n	1b76 <_sercom_get_default_pad+0x5e>
    1b68:	e001      	b.n	1b6e <_sercom_get_default_pad+0x56>
    1b6a:	2003      	movs	r0, #3
    1b6c:	e030      	b.n	1bd0 <_sercom_get_default_pad+0xb8>
    1b6e:	2000      	movs	r0, #0
    1b70:	e02e      	b.n	1bd0 <_sercom_get_default_pad+0xb8>
    1b72:	481f      	ldr	r0, [pc, #124]	; (1bf0 <_sercom_get_default_pad+0xd8>)
    1b74:	e02c      	b.n	1bd0 <_sercom_get_default_pad+0xb8>
    1b76:	481f      	ldr	r0, [pc, #124]	; (1bf4 <_sercom_get_default_pad+0xdc>)
    1b78:	e02a      	b.n	1bd0 <_sercom_get_default_pad+0xb8>
    1b7a:	2901      	cmp	r1, #1
    1b7c:	d025      	beq.n	1bca <_sercom_get_default_pad+0xb2>
    1b7e:	2900      	cmp	r1, #0
    1b80:	d004      	beq.n	1b8c <_sercom_get_default_pad+0x74>
    1b82:	2902      	cmp	r1, #2
    1b84:	d006      	beq.n	1b94 <_sercom_get_default_pad+0x7c>
    1b86:	2903      	cmp	r1, #3
    1b88:	d006      	beq.n	1b98 <_sercom_get_default_pad+0x80>
    1b8a:	e001      	b.n	1b90 <_sercom_get_default_pad+0x78>
    1b8c:	481a      	ldr	r0, [pc, #104]	; (1bf8 <_sercom_get_default_pad+0xe0>)
    1b8e:	e01f      	b.n	1bd0 <_sercom_get_default_pad+0xb8>
    1b90:	2000      	movs	r0, #0
    1b92:	e01d      	b.n	1bd0 <_sercom_get_default_pad+0xb8>
    1b94:	4819      	ldr	r0, [pc, #100]	; (1bfc <_sercom_get_default_pad+0xe4>)
    1b96:	e01b      	b.n	1bd0 <_sercom_get_default_pad+0xb8>
    1b98:	4819      	ldr	r0, [pc, #100]	; (1c00 <_sercom_get_default_pad+0xe8>)
    1b9a:	e019      	b.n	1bd0 <_sercom_get_default_pad+0xb8>
    1b9c:	2901      	cmp	r1, #1
    1b9e:	d016      	beq.n	1bce <_sercom_get_default_pad+0xb6>
    1ba0:	2900      	cmp	r1, #0
    1ba2:	d004      	beq.n	1bae <_sercom_get_default_pad+0x96>
    1ba4:	2902      	cmp	r1, #2
    1ba6:	d006      	beq.n	1bb6 <_sercom_get_default_pad+0x9e>
    1ba8:	2903      	cmp	r1, #3
    1baa:	d006      	beq.n	1bba <_sercom_get_default_pad+0xa2>
    1bac:	e001      	b.n	1bb2 <_sercom_get_default_pad+0x9a>
    1bae:	4815      	ldr	r0, [pc, #84]	; (1c04 <_sercom_get_default_pad+0xec>)
    1bb0:	e00e      	b.n	1bd0 <_sercom_get_default_pad+0xb8>
    1bb2:	2000      	movs	r0, #0
    1bb4:	e00c      	b.n	1bd0 <_sercom_get_default_pad+0xb8>
    1bb6:	4814      	ldr	r0, [pc, #80]	; (1c08 <_sercom_get_default_pad+0xf0>)
    1bb8:	e00a      	b.n	1bd0 <_sercom_get_default_pad+0xb8>
    1bba:	4814      	ldr	r0, [pc, #80]	; (1c0c <_sercom_get_default_pad+0xf4>)
    1bbc:	e008      	b.n	1bd0 <_sercom_get_default_pad+0xb8>
    1bbe:	2000      	movs	r0, #0
    1bc0:	e006      	b.n	1bd0 <_sercom_get_default_pad+0xb8>
    1bc2:	4813      	ldr	r0, [pc, #76]	; (1c10 <_sercom_get_default_pad+0xf8>)
    1bc4:	e004      	b.n	1bd0 <_sercom_get_default_pad+0xb8>
    1bc6:	4813      	ldr	r0, [pc, #76]	; (1c14 <_sercom_get_default_pad+0xfc>)
    1bc8:	e002      	b.n	1bd0 <_sercom_get_default_pad+0xb8>
    1bca:	4813      	ldr	r0, [pc, #76]	; (1c18 <_sercom_get_default_pad+0x100>)
    1bcc:	e000      	b.n	1bd0 <_sercom_get_default_pad+0xb8>
    1bce:	4813      	ldr	r0, [pc, #76]	; (1c1c <_sercom_get_default_pad+0x104>)
    1bd0:	4770      	bx	lr
    1bd2:	46c0      	nop			; (mov r8, r8)
    1bd4:	42000c00 	.word	0x42000c00
    1bd8:	42000800 	.word	0x42000800
    1bdc:	42001000 	.word	0x42001000
    1be0:	42001400 	.word	0x42001400
    1be4:	00040003 	.word	0x00040003
    1be8:	00060003 	.word	0x00060003
    1bec:	00070003 	.word	0x00070003
    1bf0:	001e0003 	.word	0x001e0003
    1bf4:	001f0003 	.word	0x001f0003
    1bf8:	00080003 	.word	0x00080003
    1bfc:	000a0003 	.word	0x000a0003
    1c00:	000b0003 	.word	0x000b0003
    1c04:	00100003 	.word	0x00100003
    1c08:	00120003 	.word	0x00120003
    1c0c:	00130003 	.word	0x00130003
    1c10:	00050003 	.word	0x00050003
    1c14:	00010003 	.word	0x00010003
    1c18:	00090003 	.word	0x00090003
    1c1c:	00110003 	.word	0x00110003

00001c20 <_sercom_get_sercom_inst_index>:
    1c20:	b570      	push	{r4, r5, r6, lr}
    1c22:	b084      	sub	sp, #16
    1c24:	4a0e      	ldr	r2, [pc, #56]	; (1c60 <_sercom_get_sercom_inst_index+0x40>)
    1c26:	4669      	mov	r1, sp
    1c28:	ca70      	ldmia	r2!, {r4, r5, r6}
    1c2a:	c170      	stmia	r1!, {r4, r5, r6}
    1c2c:	6812      	ldr	r2, [r2, #0]
    1c2e:	600a      	str	r2, [r1, #0]
    1c30:	1c03      	adds	r3, r0, #0
    1c32:	9a00      	ldr	r2, [sp, #0]
    1c34:	4282      	cmp	r2, r0
    1c36:	d00f      	beq.n	1c58 <_sercom_get_sercom_inst_index+0x38>
    1c38:	9c01      	ldr	r4, [sp, #4]
    1c3a:	4284      	cmp	r4, r0
    1c3c:	d008      	beq.n	1c50 <_sercom_get_sercom_inst_index+0x30>
    1c3e:	9d02      	ldr	r5, [sp, #8]
    1c40:	4285      	cmp	r5, r0
    1c42:	d007      	beq.n	1c54 <_sercom_get_sercom_inst_index+0x34>
    1c44:	2000      	movs	r0, #0
    1c46:	9e03      	ldr	r6, [sp, #12]
    1c48:	429e      	cmp	r6, r3
    1c4a:	d107      	bne.n	1c5c <_sercom_get_sercom_inst_index+0x3c>
    1c4c:	2003      	movs	r0, #3
    1c4e:	e004      	b.n	1c5a <_sercom_get_sercom_inst_index+0x3a>
    1c50:	2001      	movs	r0, #1
    1c52:	e002      	b.n	1c5a <_sercom_get_sercom_inst_index+0x3a>
    1c54:	2002      	movs	r0, #2
    1c56:	e000      	b.n	1c5a <_sercom_get_sercom_inst_index+0x3a>
    1c58:	2000      	movs	r0, #0
    1c5a:	b2c0      	uxtb	r0, r0
    1c5c:	b004      	add	sp, #16
    1c5e:	bd70      	pop	{r4, r5, r6, pc}
    1c60:	00009bd8 	.word	0x00009bd8

00001c64 <spi_init>:
    1c64:	b5f0      	push	{r4, r5, r6, r7, lr}
    1c66:	4647      	mov	r7, r8
    1c68:	b480      	push	{r7}
    1c6a:	b088      	sub	sp, #32
    1c6c:	1c05      	adds	r5, r0, #0
    1c6e:	1c0c      	adds	r4, r1, #0
    1c70:	1c16      	adds	r6, r2, #0
    1c72:	6029      	str	r1, [r5, #0]
    1c74:	680b      	ldr	r3, [r1, #0]
    1c76:	201c      	movs	r0, #28
    1c78:	079a      	lsls	r2, r3, #30
    1c7a:	d500      	bpl.n	1c7e <spi_init+0x1a>
    1c7c:	e0df      	b.n	1e3e <spi_init+0x1da>
    1c7e:	680b      	ldr	r3, [r1, #0]
    1c80:	2005      	movs	r0, #5
    1c82:	07da      	lsls	r2, r3, #31
    1c84:	d500      	bpl.n	1c88 <spi_init+0x24>
    1c86:	e0da      	b.n	1e3e <spi_init+0x1da>
    1c88:	1c08      	adds	r0, r1, #0
    1c8a:	4b6f      	ldr	r3, [pc, #444]	; (1e48 <spi_init+0x1e4>)
    1c8c:	4798      	blx	r3
    1c8e:	4b6f      	ldr	r3, [pc, #444]	; (1e4c <spi_init+0x1e8>)
    1c90:	6a19      	ldr	r1, [r3, #32]
    1c92:	1c82      	adds	r2, r0, #2
    1c94:	2701      	movs	r7, #1
    1c96:	4097      	lsls	r7, r2
    1c98:	1c3a      	adds	r2, r7, #0
    1c9a:	430a      	orrs	r2, r1
    1c9c:	621a      	str	r2, [r3, #32]
    1c9e:	a907      	add	r1, sp, #28
    1ca0:	2724      	movs	r7, #36	; 0x24
    1ca2:	5df3      	ldrb	r3, [r6, r7]
    1ca4:	700b      	strb	r3, [r1, #0]
    1ca6:	3014      	adds	r0, #20
    1ca8:	b2c0      	uxtb	r0, r0
    1caa:	4680      	mov	r8, r0
    1cac:	4b68      	ldr	r3, [pc, #416]	; (1e50 <spi_init+0x1ec>)
    1cae:	4798      	blx	r3
    1cb0:	4640      	mov	r0, r8
    1cb2:	4b68      	ldr	r3, [pc, #416]	; (1e54 <spi_init+0x1f0>)
    1cb4:	4798      	blx	r3
    1cb6:	5df0      	ldrb	r0, [r6, r7]
    1cb8:	2100      	movs	r1, #0
    1cba:	4b67      	ldr	r3, [pc, #412]	; (1e58 <spi_init+0x1f4>)
    1cbc:	4798      	blx	r3
    1cbe:	7833      	ldrb	r3, [r6, #0]
    1cc0:	2b01      	cmp	r3, #1
    1cc2:	d103      	bne.n	1ccc <spi_init+0x68>
    1cc4:	6822      	ldr	r2, [r4, #0]
    1cc6:	230c      	movs	r3, #12
    1cc8:	4313      	orrs	r3, r2
    1cca:	6023      	str	r3, [r4, #0]
    1ccc:	7833      	ldrb	r3, [r6, #0]
    1cce:	2b00      	cmp	r3, #0
    1cd0:	d000      	beq.n	1cd4 <spi_init+0x70>
    1cd2:	e0b1      	b.n	1e38 <spi_init+0x1d4>
    1cd4:	6822      	ldr	r2, [r4, #0]
    1cd6:	2308      	movs	r3, #8
    1cd8:	4313      	orrs	r3, r2
    1cda:	6023      	str	r3, [r4, #0]
    1cdc:	e0ac      	b.n	1e38 <spi_init+0x1d4>
    1cde:	18ea      	adds	r2, r5, r3
    1ce0:	60d1      	str	r1, [r2, #12]
    1ce2:	3304      	adds	r3, #4
    1ce4:	2b1c      	cmp	r3, #28
    1ce6:	d1fa      	bne.n	1cde <spi_init+0x7a>
    1ce8:	2300      	movs	r3, #0
    1cea:	62eb      	str	r3, [r5, #44]	; 0x2c
    1cec:	62ab      	str	r3, [r5, #40]	; 0x28
    1cee:	2400      	movs	r4, #0
    1cf0:	86ab      	strh	r3, [r5, #52]	; 0x34
    1cf2:	862b      	strh	r3, [r5, #48]	; 0x30
    1cf4:	2336      	movs	r3, #54	; 0x36
    1cf6:	54ec      	strb	r4, [r5, r3]
    1cf8:	2337      	movs	r3, #55	; 0x37
    1cfa:	54ec      	strb	r4, [r5, r3]
    1cfc:	2338      	movs	r3, #56	; 0x38
    1cfe:	54ec      	strb	r4, [r5, r3]
    1d00:	2303      	movs	r3, #3
    1d02:	726b      	strb	r3, [r5, #9]
    1d04:	712c      	strb	r4, [r5, #4]
    1d06:	6828      	ldr	r0, [r5, #0]
    1d08:	4b4f      	ldr	r3, [pc, #316]	; (1e48 <spi_init+0x1e4>)
    1d0a:	4798      	blx	r3
    1d0c:	1c07      	adds	r7, r0, #0
    1d0e:	4953      	ldr	r1, [pc, #332]	; (1e5c <spi_init+0x1f8>)
    1d10:	4b53      	ldr	r3, [pc, #332]	; (1e60 <spi_init+0x1fc>)
    1d12:	4798      	blx	r3
    1d14:	00bf      	lsls	r7, r7, #2
    1d16:	4b53      	ldr	r3, [pc, #332]	; (1e64 <spi_init+0x200>)
    1d18:	50fd      	str	r5, [r7, r3]
    1d1a:	682f      	ldr	r7, [r5, #0]
    1d1c:	ab02      	add	r3, sp, #8
    1d1e:	2280      	movs	r2, #128	; 0x80
    1d20:	701a      	strb	r2, [r3, #0]
    1d22:	705c      	strb	r4, [r3, #1]
    1d24:	2201      	movs	r2, #1
    1d26:	709a      	strb	r2, [r3, #2]
    1d28:	70dc      	strb	r4, [r3, #3]
    1d2a:	7833      	ldrb	r3, [r6, #0]
    1d2c:	2b00      	cmp	r3, #0
    1d2e:	d102      	bne.n	1d36 <spi_init+0xd2>
    1d30:	2200      	movs	r2, #0
    1d32:	ab02      	add	r3, sp, #8
    1d34:	709a      	strb	r2, [r3, #2]
    1d36:	6ab3      	ldr	r3, [r6, #40]	; 0x28
    1d38:	9303      	str	r3, [sp, #12]
    1d3a:	6af0      	ldr	r0, [r6, #44]	; 0x2c
    1d3c:	9004      	str	r0, [sp, #16]
    1d3e:	6b32      	ldr	r2, [r6, #48]	; 0x30
    1d40:	9205      	str	r2, [sp, #20]
    1d42:	6b73      	ldr	r3, [r6, #52]	; 0x34
    1d44:	9306      	str	r3, [sp, #24]
    1d46:	2400      	movs	r4, #0
    1d48:	b2e1      	uxtb	r1, r4
    1d4a:	00a3      	lsls	r3, r4, #2
    1d4c:	aa03      	add	r2, sp, #12
    1d4e:	5898      	ldr	r0, [r3, r2]
    1d50:	2800      	cmp	r0, #0
    1d52:	d102      	bne.n	1d5a <spi_init+0xf6>
    1d54:	1c38      	adds	r0, r7, #0
    1d56:	4a44      	ldr	r2, [pc, #272]	; (1e68 <spi_init+0x204>)
    1d58:	4790      	blx	r2
    1d5a:	1c43      	adds	r3, r0, #1
    1d5c:	d006      	beq.n	1d6c <spi_init+0x108>
    1d5e:	466a      	mov	r2, sp
    1d60:	7210      	strb	r0, [r2, #8]
    1d62:	0c00      	lsrs	r0, r0, #16
    1d64:	b2c0      	uxtb	r0, r0
    1d66:	a902      	add	r1, sp, #8
    1d68:	4b40      	ldr	r3, [pc, #256]	; (1e6c <spi_init+0x208>)
    1d6a:	4798      	blx	r3
    1d6c:	3401      	adds	r4, #1
    1d6e:	2c04      	cmp	r4, #4
    1d70:	d1ea      	bne.n	1d48 <spi_init+0xe4>
    1d72:	7833      	ldrb	r3, [r6, #0]
    1d74:	716b      	strb	r3, [r5, #5]
    1d76:	7c33      	ldrb	r3, [r6, #16]
    1d78:	71ab      	strb	r3, [r5, #6]
    1d7a:	7cb3      	ldrb	r3, [r6, #18]
    1d7c:	71eb      	strb	r3, [r5, #7]
    1d7e:	7d33      	ldrb	r3, [r6, #20]
    1d80:	722b      	strb	r3, [r5, #8]
    1d82:	2200      	movs	r2, #0
    1d84:	466b      	mov	r3, sp
    1d86:	80da      	strh	r2, [r3, #6]
    1d88:	7833      	ldrb	r3, [r6, #0]
    1d8a:	2b01      	cmp	r3, #1
    1d8c:	d114      	bne.n	1db8 <spi_init+0x154>
    1d8e:	6828      	ldr	r0, [r5, #0]
    1d90:	4b2d      	ldr	r3, [pc, #180]	; (1e48 <spi_init+0x1e4>)
    1d92:	4798      	blx	r3
    1d94:	3014      	adds	r0, #20
    1d96:	b2c0      	uxtb	r0, r0
    1d98:	4b35      	ldr	r3, [pc, #212]	; (1e70 <spi_init+0x20c>)
    1d9a:	4798      	blx	r3
    1d9c:	1c01      	adds	r1, r0, #0
    1d9e:	69b0      	ldr	r0, [r6, #24]
    1da0:	466a      	mov	r2, sp
    1da2:	3206      	adds	r2, #6
    1da4:	4b33      	ldr	r3, [pc, #204]	; (1e74 <spi_init+0x210>)
    1da6:	4798      	blx	r3
    1da8:	1c03      	adds	r3, r0, #0
    1daa:	2017      	movs	r0, #23
    1dac:	2b00      	cmp	r3, #0
    1dae:	d146      	bne.n	1e3e <spi_init+0x1da>
    1db0:	466b      	mov	r3, sp
    1db2:	3306      	adds	r3, #6
    1db4:	781b      	ldrb	r3, [r3, #0]
    1db6:	733b      	strb	r3, [r7, #12]
    1db8:	7833      	ldrb	r3, [r6, #0]
    1dba:	2b00      	cmp	r3, #0
    1dbc:	d10f      	bne.n	1dde <spi_init+0x17a>
    1dbe:	69b1      	ldr	r1, [r6, #24]
    1dc0:	8bb3      	ldrh	r3, [r6, #28]
    1dc2:	6a78      	ldr	r0, [r7, #36]	; 0x24
    1dc4:	7ff4      	ldrb	r4, [r6, #31]
    1dc6:	0424      	lsls	r4, r4, #16
    1dc8:	7fb2      	ldrb	r2, [r6, #30]
    1dca:	4322      	orrs	r2, r4
    1dcc:	4302      	orrs	r2, r0
    1dce:	627a      	str	r2, [r7, #36]	; 0x24
    1dd0:	2220      	movs	r2, #32
    1dd2:	5cb2      	ldrb	r2, [r6, r2]
    1dd4:	2a00      	cmp	r2, #0
    1dd6:	d004      	beq.n	1de2 <spi_init+0x17e>
    1dd8:	2240      	movs	r2, #64	; 0x40
    1dda:	4313      	orrs	r3, r2
    1ddc:	e001      	b.n	1de2 <spi_init+0x17e>
    1dde:	2300      	movs	r3, #0
    1de0:	2100      	movs	r1, #0
    1de2:	68b2      	ldr	r2, [r6, #8]
    1de4:	6870      	ldr	r0, [r6, #4]
    1de6:	4302      	orrs	r2, r0
    1de8:	68f0      	ldr	r0, [r6, #12]
    1dea:	4302      	orrs	r2, r0
    1dec:	430a      	orrs	r2, r1
    1dee:	7c31      	ldrb	r1, [r6, #16]
    1df0:	430b      	orrs	r3, r1
    1df2:	7c71      	ldrb	r1, [r6, #17]
    1df4:	2900      	cmp	r1, #0
    1df6:	d103      	bne.n	1e00 <spi_init+0x19c>
    1df8:	491f      	ldr	r1, [pc, #124]	; (1e78 <spi_init+0x214>)
    1dfa:	7889      	ldrb	r1, [r1, #2]
    1dfc:	0788      	lsls	r0, r1, #30
    1dfe:	d501      	bpl.n	1e04 <spi_init+0x1a0>
    1e00:	2180      	movs	r1, #128	; 0x80
    1e02:	430a      	orrs	r2, r1
    1e04:	7cb1      	ldrb	r1, [r6, #18]
    1e06:	2900      	cmp	r1, #0
    1e08:	d002      	beq.n	1e10 <spi_init+0x1ac>
    1e0a:	2180      	movs	r1, #128	; 0x80
    1e0c:	0289      	lsls	r1, r1, #10
    1e0e:	430b      	orrs	r3, r1
    1e10:	7cf1      	ldrb	r1, [r6, #19]
    1e12:	2900      	cmp	r1, #0
    1e14:	d002      	beq.n	1e1c <spi_init+0x1b8>
    1e16:	2180      	movs	r1, #128	; 0x80
    1e18:	0089      	lsls	r1, r1, #2
    1e1a:	430b      	orrs	r3, r1
    1e1c:	7d31      	ldrb	r1, [r6, #20]
    1e1e:	2900      	cmp	r1, #0
    1e20:	d002      	beq.n	1e28 <spi_init+0x1c4>
    1e22:	2180      	movs	r1, #128	; 0x80
    1e24:	0189      	lsls	r1, r1, #6
    1e26:	430b      	orrs	r3, r1
    1e28:	6839      	ldr	r1, [r7, #0]
    1e2a:	430a      	orrs	r2, r1
    1e2c:	603a      	str	r2, [r7, #0]
    1e2e:	687a      	ldr	r2, [r7, #4]
    1e30:	4313      	orrs	r3, r2
    1e32:	607b      	str	r3, [r7, #4]
    1e34:	2000      	movs	r0, #0
    1e36:	e002      	b.n	1e3e <spi_init+0x1da>
    1e38:	2300      	movs	r3, #0
    1e3a:	2100      	movs	r1, #0
    1e3c:	e74f      	b.n	1cde <spi_init+0x7a>
    1e3e:	b008      	add	sp, #32
    1e40:	bc04      	pop	{r2}
    1e42:	4690      	mov	r8, r2
    1e44:	bdf0      	pop	{r4, r5, r6, r7, pc}
    1e46:	46c0      	nop			; (mov r8, r8)
    1e48:	00001c21 	.word	0x00001c21
    1e4c:	40000400 	.word	0x40000400
    1e50:	00002d45 	.word	0x00002d45
    1e54:	00002cb9 	.word	0x00002cb9
    1e58:	00001ac9 	.word	0x00001ac9
    1e5c:	00001fc9 	.word	0x00001fc9
    1e60:	000021c5 	.word	0x000021c5
    1e64:	200002c8 	.word	0x200002c8
    1e68:	00001b19 	.word	0x00001b19
    1e6c:	00002e21 	.word	0x00002e21
    1e70:	00002d61 	.word	0x00002d61
    1e74:	000018f1 	.word	0x000018f1
    1e78:	41002000 	.word	0x41002000

00001e7c <spi_select_slave>:
    1e7c:	b510      	push	{r4, lr}
    1e7e:	7944      	ldrb	r4, [r0, #5]
    1e80:	2315      	movs	r3, #21
    1e82:	2c01      	cmp	r4, #1
    1e84:	d16c      	bne.n	1f60 <spi_select_slave+0xe4>
    1e86:	7a04      	ldrb	r4, [r0, #8]
    1e88:	2300      	movs	r3, #0
    1e8a:	2c00      	cmp	r4, #0
    1e8c:	d168      	bne.n	1f60 <spi_select_slave+0xe4>
    1e8e:	2a00      	cmp	r2, #0
    1e90:	d057      	beq.n	1f42 <spi_select_slave+0xc6>
    1e92:	784b      	ldrb	r3, [r1, #1]
    1e94:	2b00      	cmp	r3, #0
    1e96:	d044      	beq.n	1f22 <spi_select_slave+0xa6>
    1e98:	6802      	ldr	r2, [r0, #0]
    1e9a:	7e13      	ldrb	r3, [r2, #24]
    1e9c:	07dc      	lsls	r4, r3, #31
    1e9e:	d40f      	bmi.n	1ec0 <spi_select_slave+0x44>
    1ea0:	780b      	ldrb	r3, [r1, #0]
    1ea2:	09d9      	lsrs	r1, r3, #7
    1ea4:	2200      	movs	r2, #0
    1ea6:	2900      	cmp	r1, #0
    1ea8:	d103      	bne.n	1eb2 <spi_select_slave+0x36>
    1eaa:	095a      	lsrs	r2, r3, #5
    1eac:	01d2      	lsls	r2, r2, #7
    1eae:	492d      	ldr	r1, [pc, #180]	; (1f64 <spi_select_slave+0xe8>)
    1eb0:	1852      	adds	r2, r2, r1
    1eb2:	211f      	movs	r1, #31
    1eb4:	400b      	ands	r3, r1
    1eb6:	2101      	movs	r1, #1
    1eb8:	4099      	lsls	r1, r3
    1eba:	6191      	str	r1, [r2, #24]
    1ebc:	2305      	movs	r3, #5
    1ebe:	e04f      	b.n	1f60 <spi_select_slave+0xe4>
    1ec0:	780b      	ldrb	r3, [r1, #0]
    1ec2:	09dc      	lsrs	r4, r3, #7
    1ec4:	2200      	movs	r2, #0
    1ec6:	2c00      	cmp	r4, #0
    1ec8:	d103      	bne.n	1ed2 <spi_select_slave+0x56>
    1eca:	095a      	lsrs	r2, r3, #5
    1ecc:	01d2      	lsls	r2, r2, #7
    1ece:	4c25      	ldr	r4, [pc, #148]	; (1f64 <spi_select_slave+0xe8>)
    1ed0:	1912      	adds	r2, r2, r4
    1ed2:	241f      	movs	r4, #31
    1ed4:	4023      	ands	r3, r4
    1ed6:	2401      	movs	r4, #1
    1ed8:	409c      	lsls	r4, r3
    1eda:	6154      	str	r4, [r2, #20]
    1edc:	7889      	ldrb	r1, [r1, #2]
    1ede:	6803      	ldr	r3, [r0, #0]
    1ee0:	7e1a      	ldrb	r2, [r3, #24]
    1ee2:	07d4      	lsls	r4, r2, #31
    1ee4:	d500      	bpl.n	1ee8 <spi_select_slave+0x6c>
    1ee6:	6299      	str	r1, [r3, #40]	; 0x28
    1ee8:	79c2      	ldrb	r2, [r0, #7]
    1eea:	2300      	movs	r3, #0
    1eec:	2a00      	cmp	r2, #0
    1eee:	d137      	bne.n	1f60 <spi_select_slave+0xe4>
    1ef0:	6802      	ldr	r2, [r0, #0]
    1ef2:	2104      	movs	r1, #4
    1ef4:	7e13      	ldrb	r3, [r2, #24]
    1ef6:	420b      	tst	r3, r1
    1ef8:	d0fc      	beq.n	1ef4 <spi_select_slave+0x78>
    1efa:	7e11      	ldrb	r1, [r2, #24]
    1efc:	2300      	movs	r3, #0
    1efe:	074c      	lsls	r4, r1, #29
    1f00:	d52e      	bpl.n	1f60 <spi_select_slave+0xe4>
    1f02:	8b53      	ldrh	r3, [r2, #26]
    1f04:	0759      	lsls	r1, r3, #29
    1f06:	d503      	bpl.n	1f10 <spi_select_slave+0x94>
    1f08:	8b51      	ldrh	r1, [r2, #26]
    1f0a:	2304      	movs	r3, #4
    1f0c:	430b      	orrs	r3, r1
    1f0e:	8353      	strh	r3, [r2, #26]
    1f10:	7983      	ldrb	r3, [r0, #6]
    1f12:	2b01      	cmp	r3, #1
    1f14:	d102      	bne.n	1f1c <spi_select_slave+0xa0>
    1f16:	6a93      	ldr	r3, [r2, #40]	; 0x28
    1f18:	2300      	movs	r3, #0
    1f1a:	e021      	b.n	1f60 <spi_select_slave+0xe4>
    1f1c:	6a93      	ldr	r3, [r2, #40]	; 0x28
    1f1e:	2300      	movs	r3, #0
    1f20:	e01e      	b.n	1f60 <spi_select_slave+0xe4>
    1f22:	780b      	ldrb	r3, [r1, #0]
    1f24:	09d9      	lsrs	r1, r3, #7
    1f26:	2200      	movs	r2, #0
    1f28:	2900      	cmp	r1, #0
    1f2a:	d103      	bne.n	1f34 <spi_select_slave+0xb8>
    1f2c:	095a      	lsrs	r2, r3, #5
    1f2e:	01d2      	lsls	r2, r2, #7
    1f30:	4c0c      	ldr	r4, [pc, #48]	; (1f64 <spi_select_slave+0xe8>)
    1f32:	1912      	adds	r2, r2, r4
    1f34:	211f      	movs	r1, #31
    1f36:	400b      	ands	r3, r1
    1f38:	2101      	movs	r1, #1
    1f3a:	4099      	lsls	r1, r3
    1f3c:	6151      	str	r1, [r2, #20]
    1f3e:	2300      	movs	r3, #0
    1f40:	e00e      	b.n	1f60 <spi_select_slave+0xe4>
    1f42:	780b      	ldrb	r3, [r1, #0]
    1f44:	09d9      	lsrs	r1, r3, #7
    1f46:	2200      	movs	r2, #0
    1f48:	2900      	cmp	r1, #0
    1f4a:	d103      	bne.n	1f54 <spi_select_slave+0xd8>
    1f4c:	095a      	lsrs	r2, r3, #5
    1f4e:	01d2      	lsls	r2, r2, #7
    1f50:	4904      	ldr	r1, [pc, #16]	; (1f64 <spi_select_slave+0xe8>)
    1f52:	1852      	adds	r2, r2, r1
    1f54:	211f      	movs	r1, #31
    1f56:	400b      	ands	r3, r1
    1f58:	2101      	movs	r1, #1
    1f5a:	4099      	lsls	r1, r3
    1f5c:	6191      	str	r1, [r2, #24]
    1f5e:	2300      	movs	r3, #0
    1f60:	1c18      	adds	r0, r3, #0
    1f62:	bd10      	pop	{r4, pc}
    1f64:	41004400 	.word	0x41004400

00001f68 <spi_register_callback>:
    1f68:	1c93      	adds	r3, r2, #2
    1f6a:	009b      	lsls	r3, r3, #2
    1f6c:	18c3      	adds	r3, r0, r3
    1f6e:	6059      	str	r1, [r3, #4]
    1f70:	2301      	movs	r3, #1
    1f72:	4093      	lsls	r3, r2
    1f74:	1c1a      	adds	r2, r3, #0
    1f76:	2336      	movs	r3, #54	; 0x36
    1f78:	5cc1      	ldrb	r1, [r0, r3]
    1f7a:	430a      	orrs	r2, r1
    1f7c:	54c2      	strb	r2, [r0, r3]
    1f7e:	4770      	bx	lr

00001f80 <spi_write_buffer_job>:
    1f80:	1c03      	adds	r3, r0, #0
    1f82:	2017      	movs	r0, #23
    1f84:	2a00      	cmp	r2, #0
    1f86:	d01d      	beq.n	1fc4 <spi_write_buffer_job+0x44>
    1f88:	2038      	movs	r0, #56	; 0x38
    1f8a:	5c18      	ldrb	r0, [r3, r0]
    1f8c:	b2c0      	uxtb	r0, r0
    1f8e:	2805      	cmp	r0, #5
    1f90:	d018      	beq.n	1fc4 <spi_write_buffer_job+0x44>
    1f92:	869a      	strh	r2, [r3, #52]	; 0x34
    1f94:	865a      	strh	r2, [r3, #50]	; 0x32
    1f96:	62d9      	str	r1, [r3, #44]	; 0x2c
    1f98:	2105      	movs	r1, #5
    1f9a:	2238      	movs	r2, #56	; 0x38
    1f9c:	5499      	strb	r1, [r3, r2]
    1f9e:	2201      	movs	r2, #1
    1fa0:	725a      	strb	r2, [r3, #9]
    1fa2:	681a      	ldr	r2, [r3, #0]
    1fa4:	7959      	ldrb	r1, [r3, #5]
    1fa6:	2900      	cmp	r1, #0
    1fa8:	d102      	bne.n	1fb0 <spi_write_buffer_job+0x30>
    1faa:	2102      	movs	r1, #2
    1fac:	7611      	strb	r1, [r2, #24]
    1fae:	7591      	strb	r1, [r2, #22]
    1fb0:	79db      	ldrb	r3, [r3, #7]
    1fb2:	2b00      	cmp	r3, #0
    1fb4:	d003      	beq.n	1fbe <spi_write_buffer_job+0x3e>
    1fb6:	2305      	movs	r3, #5
    1fb8:	7593      	strb	r3, [r2, #22]
    1fba:	2000      	movs	r0, #0
    1fbc:	e002      	b.n	1fc4 <spi_write_buffer_job+0x44>
    1fbe:	2301      	movs	r3, #1
    1fc0:	7593      	strb	r3, [r2, #22]
    1fc2:	2000      	movs	r0, #0
    1fc4:	4770      	bx	lr
    1fc6:	46c0      	nop			; (mov r8, r8)

00001fc8 <_spi_interrupt_handler>:
    1fc8:	b5f8      	push	{r3, r4, r5, r6, r7, lr}
    1fca:	0080      	lsls	r0, r0, #2
    1fcc:	4b7a      	ldr	r3, [pc, #488]	; (21b8 <STACK_SIZE+0x1b8>)
    1fce:	58c4      	ldr	r4, [r0, r3]
    1fd0:	6825      	ldr	r5, [r4, #0]
    1fd2:	2336      	movs	r3, #54	; 0x36
    1fd4:	5ce3      	ldrb	r3, [r4, r3]
    1fd6:	2237      	movs	r2, #55	; 0x37
    1fd8:	5ca7      	ldrb	r7, [r4, r2]
    1fda:	401f      	ands	r7, r3
    1fdc:	7e2b      	ldrb	r3, [r5, #24]
    1fde:	7dae      	ldrb	r6, [r5, #22]
    1fe0:	401e      	ands	r6, r3
    1fe2:	07f1      	lsls	r1, r6, #31
    1fe4:	d541      	bpl.n	206a <STACK_SIZE+0x6a>
    1fe6:	7963      	ldrb	r3, [r4, #5]
    1fe8:	2b01      	cmp	r3, #1
    1fea:	d116      	bne.n	201a <STACK_SIZE+0x1a>
    1fec:	7a63      	ldrb	r3, [r4, #9]
    1fee:	2b00      	cmp	r3, #0
    1ff0:	d10f      	bne.n	2012 <STACK_SIZE+0x12>
    1ff2:	4b72      	ldr	r3, [pc, #456]	; (21bc <STACK_SIZE+0x1bc>)
    1ff4:	881b      	ldrh	r3, [r3, #0]
    1ff6:	62ab      	str	r3, [r5, #40]	; 0x28
    1ff8:	8e63      	ldrh	r3, [r4, #50]	; 0x32
    1ffa:	3b01      	subs	r3, #1
    1ffc:	b29b      	uxth	r3, r3
    1ffe:	8663      	strh	r3, [r4, #50]	; 0x32
    2000:	8e63      	ldrh	r3, [r4, #50]	; 0x32
    2002:	b29b      	uxth	r3, r3
    2004:	2b00      	cmp	r3, #0
    2006:	d101      	bne.n	200c <STACK_SIZE+0xc>
    2008:	2301      	movs	r3, #1
    200a:	752b      	strb	r3, [r5, #20]
    200c:	7963      	ldrb	r3, [r4, #5]
    200e:	2b01      	cmp	r3, #1
    2010:	d103      	bne.n	201a <STACK_SIZE+0x1a>
    2012:	7a63      	ldrb	r3, [r4, #9]
    2014:	2b00      	cmp	r3, #0
    2016:	d105      	bne.n	2024 <STACK_SIZE+0x24>
    2018:	e027      	b.n	206a <STACK_SIZE+0x6a>
    201a:	2b00      	cmp	r3, #0
    201c:	d125      	bne.n	206a <STACK_SIZE+0x6a>
    201e:	7a63      	ldrb	r3, [r4, #9]
    2020:	2b00      	cmp	r3, #0
    2022:	d022      	beq.n	206a <STACK_SIZE+0x6a>
    2024:	6822      	ldr	r2, [r4, #0]
    2026:	6ae3      	ldr	r3, [r4, #44]	; 0x2c
    2028:	7819      	ldrb	r1, [r3, #0]
    202a:	b2c9      	uxtb	r1, r1
    202c:	1c58      	adds	r0, r3, #1
    202e:	62e0      	str	r0, [r4, #44]	; 0x2c
    2030:	79a0      	ldrb	r0, [r4, #6]
    2032:	2801      	cmp	r0, #1
    2034:	d104      	bne.n	2040 <STACK_SIZE+0x40>
    2036:	7858      	ldrb	r0, [r3, #1]
    2038:	0200      	lsls	r0, r0, #8
    203a:	4301      	orrs	r1, r0
    203c:	3302      	adds	r3, #2
    203e:	62e3      	str	r3, [r4, #44]	; 0x2c
    2040:	05cb      	lsls	r3, r1, #23
    2042:	0ddb      	lsrs	r3, r3, #23
    2044:	6293      	str	r3, [r2, #40]	; 0x28
    2046:	8ea3      	ldrh	r3, [r4, #52]	; 0x34
    2048:	3b01      	subs	r3, #1
    204a:	b29b      	uxth	r3, r3
    204c:	86a3      	strh	r3, [r4, #52]	; 0x34
    204e:	8ea3      	ldrh	r3, [r4, #52]	; 0x34
    2050:	b29b      	uxth	r3, r3
    2052:	2b00      	cmp	r3, #0
    2054:	d109      	bne.n	206a <STACK_SIZE+0x6a>
    2056:	2301      	movs	r3, #1
    2058:	752b      	strb	r3, [r5, #20]
    205a:	7a63      	ldrb	r3, [r4, #9]
    205c:	2b01      	cmp	r3, #1
    205e:	d104      	bne.n	206a <STACK_SIZE+0x6a>
    2060:	79e3      	ldrb	r3, [r4, #7]
    2062:	2b00      	cmp	r3, #0
    2064:	d101      	bne.n	206a <STACK_SIZE+0x6a>
    2066:	2302      	movs	r3, #2
    2068:	75ab      	strb	r3, [r5, #22]
    206a:	0772      	lsls	r2, r6, #29
    206c:	d561      	bpl.n	2132 <STACK_SIZE+0x132>
    206e:	8b6b      	ldrh	r3, [r5, #26]
    2070:	0759      	lsls	r1, r3, #29
    2072:	d514      	bpl.n	209e <STACK_SIZE+0x9e>
    2074:	7a63      	ldrb	r3, [r4, #9]
    2076:	2b01      	cmp	r3, #1
    2078:	d00b      	beq.n	2092 <STACK_SIZE+0x92>
    207a:	221e      	movs	r2, #30
    207c:	2338      	movs	r3, #56	; 0x38
    207e:	54e2      	strb	r2, [r4, r3]
    2080:	2303      	movs	r3, #3
    2082:	7263      	strb	r3, [r4, #9]
    2084:	2305      	movs	r3, #5
    2086:	752b      	strb	r3, [r5, #20]
    2088:	073a      	lsls	r2, r7, #28
    208a:	d502      	bpl.n	2092 <STACK_SIZE+0x92>
    208c:	1c20      	adds	r0, r4, #0
    208e:	69a3      	ldr	r3, [r4, #24]
    2090:	4798      	blx	r3
    2092:	6aab      	ldr	r3, [r5, #40]	; 0x28
    2094:	8b6a      	ldrh	r2, [r5, #26]
    2096:	2304      	movs	r3, #4
    2098:	4313      	orrs	r3, r2
    209a:	836b      	strh	r3, [r5, #26]
    209c:	e049      	b.n	2132 <STACK_SIZE+0x132>
    209e:	7a63      	ldrb	r3, [r4, #9]
    20a0:	2b01      	cmp	r3, #1
    20a2:	d116      	bne.n	20d2 <STACK_SIZE+0xd2>
    20a4:	6823      	ldr	r3, [r4, #0]
    20a6:	6a9b      	ldr	r3, [r3, #40]	; 0x28
    20a8:	8e63      	ldrh	r3, [r4, #50]	; 0x32
    20aa:	3b01      	subs	r3, #1
    20ac:	b29b      	uxth	r3, r3
    20ae:	8663      	strh	r3, [r4, #50]	; 0x32
    20b0:	8e63      	ldrh	r3, [r4, #50]	; 0x32
    20b2:	b29b      	uxth	r3, r3
    20b4:	2b00      	cmp	r3, #0
    20b6:	d13c      	bne.n	2132 <STACK_SIZE+0x132>
    20b8:	2304      	movs	r3, #4
    20ba:	752b      	strb	r3, [r5, #20]
    20bc:	2200      	movs	r2, #0
    20be:	2338      	movs	r3, #56	; 0x38
    20c0:	54e2      	strb	r2, [r4, r3]
    20c2:	2303      	movs	r3, #3
    20c4:	7263      	strb	r3, [r4, #9]
    20c6:	07f9      	lsls	r1, r7, #31
    20c8:	d533      	bpl.n	2132 <STACK_SIZE+0x132>
    20ca:	1c20      	adds	r0, r4, #0
    20cc:	68e2      	ldr	r2, [r4, #12]
    20ce:	4790      	blx	r2
    20d0:	e02f      	b.n	2132 <STACK_SIZE+0x132>
    20d2:	6823      	ldr	r3, [r4, #0]
    20d4:	6a9a      	ldr	r2, [r3, #40]	; 0x28
    20d6:	05d2      	lsls	r2, r2, #23
    20d8:	0dd2      	lsrs	r2, r2, #23
    20da:	b2d3      	uxtb	r3, r2
    20dc:	6aa1      	ldr	r1, [r4, #40]	; 0x28
    20de:	700b      	strb	r3, [r1, #0]
    20e0:	6aa3      	ldr	r3, [r4, #40]	; 0x28
    20e2:	1c59      	adds	r1, r3, #1
    20e4:	62a1      	str	r1, [r4, #40]	; 0x28
    20e6:	79a1      	ldrb	r1, [r4, #6]
    20e8:	2901      	cmp	r1, #1
    20ea:	d104      	bne.n	20f6 <STACK_SIZE+0xf6>
    20ec:	0a12      	lsrs	r2, r2, #8
    20ee:	705a      	strb	r2, [r3, #1]
    20f0:	6aa3      	ldr	r3, [r4, #40]	; 0x28
    20f2:	3301      	adds	r3, #1
    20f4:	62a3      	str	r3, [r4, #40]	; 0x28
    20f6:	8e23      	ldrh	r3, [r4, #48]	; 0x30
    20f8:	3b01      	subs	r3, #1
    20fa:	b29b      	uxth	r3, r3
    20fc:	8623      	strh	r3, [r4, #48]	; 0x30
    20fe:	8e23      	ldrh	r3, [r4, #48]	; 0x30
    2100:	b29b      	uxth	r3, r3
    2102:	2b00      	cmp	r3, #0
    2104:	d115      	bne.n	2132 <STACK_SIZE+0x132>
    2106:	2200      	movs	r2, #0
    2108:	2338      	movs	r3, #56	; 0x38
    210a:	54e2      	strb	r2, [r4, r3]
    210c:	2304      	movs	r3, #4
    210e:	752b      	strb	r3, [r5, #20]
    2110:	7a63      	ldrb	r3, [r4, #9]
    2112:	2b02      	cmp	r3, #2
    2114:	d105      	bne.n	2122 <STACK_SIZE+0x122>
    2116:	077a      	lsls	r2, r7, #29
    2118:	d50b      	bpl.n	2132 <STACK_SIZE+0x132>
    211a:	1c20      	adds	r0, r4, #0
    211c:	6963      	ldr	r3, [r4, #20]
    211e:	4798      	blx	r3
    2120:	e007      	b.n	2132 <STACK_SIZE+0x132>
    2122:	7a63      	ldrb	r3, [r4, #9]
    2124:	2b00      	cmp	r3, #0
    2126:	d104      	bne.n	2132 <STACK_SIZE+0x132>
    2128:	07b9      	lsls	r1, r7, #30
    212a:	d502      	bpl.n	2132 <STACK_SIZE+0x132>
    212c:	1c20      	adds	r0, r4, #0
    212e:	6922      	ldr	r2, [r4, #16]
    2130:	4790      	blx	r2
    2132:	07b3      	lsls	r3, r6, #30
    2134:	d528      	bpl.n	2188 <STACK_SIZE+0x188>
    2136:	7963      	ldrb	r3, [r4, #5]
    2138:	2b00      	cmp	r3, #0
    213a:	d110      	bne.n	215e <STACK_SIZE+0x15e>
    213c:	2307      	movs	r3, #7
    213e:	752b      	strb	r3, [r5, #20]
    2140:	2302      	movs	r3, #2
    2142:	762b      	strb	r3, [r5, #24]
    2144:	2303      	movs	r3, #3
    2146:	7263      	strb	r3, [r4, #9]
    2148:	2300      	movs	r3, #0
    214a:	86a3      	strh	r3, [r4, #52]	; 0x34
    214c:	8623      	strh	r3, [r4, #48]	; 0x30
    214e:	2338      	movs	r3, #56	; 0x38
    2150:	2200      	movs	r2, #0
    2152:	54e2      	strb	r2, [r4, r3]
    2154:	06f9      	lsls	r1, r7, #27
    2156:	d502      	bpl.n	215e <STACK_SIZE+0x15e>
    2158:	1c20      	adds	r0, r4, #0
    215a:	69e2      	ldr	r2, [r4, #28]
    215c:	4790      	blx	r2
    215e:	7963      	ldrb	r3, [r4, #5]
    2160:	2b01      	cmp	r3, #1
    2162:	d111      	bne.n	2188 <STACK_SIZE+0x188>
    2164:	7a63      	ldrb	r3, [r4, #9]
    2166:	2b01      	cmp	r3, #1
    2168:	d10e      	bne.n	2188 <STACK_SIZE+0x188>
    216a:	79e3      	ldrb	r3, [r4, #7]
    216c:	2b00      	cmp	r3, #0
    216e:	d10b      	bne.n	2188 <STACK_SIZE+0x188>
    2170:	2302      	movs	r3, #2
    2172:	752b      	strb	r3, [r5, #20]
    2174:	2303      	movs	r3, #3
    2176:	7263      	strb	r3, [r4, #9]
    2178:	2200      	movs	r2, #0
    217a:	2338      	movs	r3, #56	; 0x38
    217c:	54e2      	strb	r2, [r4, r3]
    217e:	07fb      	lsls	r3, r7, #31
    2180:	d502      	bpl.n	2188 <STACK_SIZE+0x188>
    2182:	1c20      	adds	r0, r4, #0
    2184:	68e1      	ldr	r1, [r4, #12]
    2186:	4788      	blx	r1
    2188:	0732      	lsls	r2, r6, #28
    218a:	d50a      	bpl.n	21a2 <STACK_SIZE+0x1a2>
    218c:	7963      	ldrb	r3, [r4, #5]
    218e:	2b00      	cmp	r3, #0
    2190:	d107      	bne.n	21a2 <STACK_SIZE+0x1a2>
    2192:	2308      	movs	r3, #8
    2194:	752b      	strb	r3, [r5, #20]
    2196:	762b      	strb	r3, [r5, #24]
    2198:	06bb      	lsls	r3, r7, #26
    219a:	d502      	bpl.n	21a2 <STACK_SIZE+0x1a2>
    219c:	1c20      	adds	r0, r4, #0
    219e:	6a21      	ldr	r1, [r4, #32]
    21a0:	4788      	blx	r1
    21a2:	09f6      	lsrs	r6, r6, #7
    21a4:	d007      	beq.n	21b6 <STACK_SIZE+0x1b6>
    21a6:	2380      	movs	r3, #128	; 0x80
    21a8:	752b      	strb	r3, [r5, #20]
    21aa:	762b      	strb	r3, [r5, #24]
    21ac:	067a      	lsls	r2, r7, #25
    21ae:	d502      	bpl.n	21b6 <STACK_SIZE+0x1b6>
    21b0:	6a63      	ldr	r3, [r4, #36]	; 0x24
    21b2:	1c20      	adds	r0, r4, #0
    21b4:	4798      	blx	r3
    21b6:	bdf8      	pop	{r3, r4, r5, r6, r7, pc}
    21b8:	200002c8 	.word	0x200002c8
    21bc:	200002c4 	.word	0x200002c4

000021c0 <_sercom_default_handler>:
    21c0:	4770      	bx	lr
    21c2:	46c0      	nop			; (mov r8, r8)

000021c4 <_sercom_set_handler>:
    21c4:	b530      	push	{r4, r5, lr}
    21c6:	4b0b      	ldr	r3, [pc, #44]	; (21f4 <_sercom_set_handler+0x30>)
    21c8:	781b      	ldrb	r3, [r3, #0]
    21ca:	2b00      	cmp	r3, #0
    21cc:	d10e      	bne.n	21ec <_sercom_set_handler+0x28>
    21ce:	4c0a      	ldr	r4, [pc, #40]	; (21f8 <_sercom_set_handler+0x34>)
    21d0:	4d0a      	ldr	r5, [pc, #40]	; (21fc <_sercom_set_handler+0x38>)
    21d2:	6025      	str	r5, [r4, #0]
    21d4:	4b0a      	ldr	r3, [pc, #40]	; (2200 <_sercom_set_handler+0x3c>)
    21d6:	2200      	movs	r2, #0
    21d8:	601a      	str	r2, [r3, #0]
    21da:	6065      	str	r5, [r4, #4]
    21dc:	605a      	str	r2, [r3, #4]
    21de:	60a5      	str	r5, [r4, #8]
    21e0:	609a      	str	r2, [r3, #8]
    21e2:	60e5      	str	r5, [r4, #12]
    21e4:	60da      	str	r2, [r3, #12]
    21e6:	2201      	movs	r2, #1
    21e8:	4b02      	ldr	r3, [pc, #8]	; (21f4 <_sercom_set_handler+0x30>)
    21ea:	701a      	strb	r2, [r3, #0]
    21ec:	0080      	lsls	r0, r0, #2
    21ee:	4b02      	ldr	r3, [pc, #8]	; (21f8 <_sercom_set_handler+0x34>)
    21f0:	50c1      	str	r1, [r0, r3]
    21f2:	bd30      	pop	{r4, r5, pc}
    21f4:	200000e0 	.word	0x200000e0
    21f8:	200000e4 	.word	0x200000e4
    21fc:	000021c1 	.word	0x000021c1
    2200:	200002c8 	.word	0x200002c8

00002204 <_sercom_get_interrupt_vector>:
    2204:	b530      	push	{r4, r5, lr}
    2206:	b083      	sub	sp, #12
    2208:	1c05      	adds	r5, r0, #0
    220a:	ac01      	add	r4, sp, #4
    220c:	1c20      	adds	r0, r4, #0
    220e:	4905      	ldr	r1, [pc, #20]	; (2224 <_sercom_get_interrupt_vector+0x20>)
    2210:	2204      	movs	r2, #4
    2212:	4b05      	ldr	r3, [pc, #20]	; (2228 <_sercom_get_interrupt_vector+0x24>)
    2214:	4798      	blx	r3
    2216:	1c28      	adds	r0, r5, #0
    2218:	4b04      	ldr	r3, [pc, #16]	; (222c <_sercom_get_interrupt_vector+0x28>)
    221a:	4798      	blx	r3
    221c:	5620      	ldrsb	r0, [r4, r0]
    221e:	b003      	add	sp, #12
    2220:	bd30      	pop	{r4, r5, pc}
    2222:	46c0      	nop			; (mov r8, r8)
    2224:	00009be8 	.word	0x00009be8
    2228:	00004199 	.word	0x00004199
    222c:	00001c21 	.word	0x00001c21

00002230 <SERCOM0_Handler>:
    2230:	b508      	push	{r3, lr}
    2232:	4b02      	ldr	r3, [pc, #8]	; (223c <SERCOM0_Handler+0xc>)
    2234:	681b      	ldr	r3, [r3, #0]
    2236:	2000      	movs	r0, #0
    2238:	4798      	blx	r3
    223a:	bd08      	pop	{r3, pc}
    223c:	200000e4 	.word	0x200000e4

00002240 <SERCOM1_Handler>:
    2240:	b508      	push	{r3, lr}
    2242:	4b02      	ldr	r3, [pc, #8]	; (224c <SERCOM1_Handler+0xc>)
    2244:	685b      	ldr	r3, [r3, #4]
    2246:	2001      	movs	r0, #1
    2248:	4798      	blx	r3
    224a:	bd08      	pop	{r3, pc}
    224c:	200000e4 	.word	0x200000e4

00002250 <SERCOM2_Handler>:
    2250:	b508      	push	{r3, lr}
    2252:	4b02      	ldr	r3, [pc, #8]	; (225c <SERCOM2_Handler+0xc>)
    2254:	689b      	ldr	r3, [r3, #8]
    2256:	2002      	movs	r0, #2
    2258:	4798      	blx	r3
    225a:	bd08      	pop	{r3, pc}
    225c:	200000e4 	.word	0x200000e4

00002260 <SERCOM3_Handler>:
    2260:	b508      	push	{r3, lr}
    2262:	4b02      	ldr	r3, [pc, #8]	; (226c <SERCOM3_Handler+0xc>)
    2264:	68db      	ldr	r3, [r3, #12]
    2266:	2003      	movs	r0, #3
    2268:	4798      	blx	r3
    226a:	bd08      	pop	{r3, pc}
    226c:	200000e4 	.word	0x200000e4

00002270 <system_board_init>:
    2270:	4770      	bx	lr
    2272:	46c0      	nop			; (mov r8, r8)

00002274 <cpu_irq_enter_critical>:
    2274:	4b0c      	ldr	r3, [pc, #48]	; (22a8 <cpu_irq_enter_critical+0x34>)
    2276:	681b      	ldr	r3, [r3, #0]
    2278:	2b00      	cmp	r3, #0
    227a:	d110      	bne.n	229e <cpu_irq_enter_critical+0x2a>
    227c:	f3ef 8310 	mrs	r3, PRIMASK
    2280:	2b00      	cmp	r3, #0
    2282:	d109      	bne.n	2298 <cpu_irq_enter_critical+0x24>
    2284:	b672      	cpsid	i
    2286:	f3bf 8f5f 	dmb	sy
    228a:	2200      	movs	r2, #0
    228c:	4b07      	ldr	r3, [pc, #28]	; (22ac <cpu_irq_enter_critical+0x38>)
    228e:	701a      	strb	r2, [r3, #0]
    2290:	2201      	movs	r2, #1
    2292:	4b07      	ldr	r3, [pc, #28]	; (22b0 <cpu_irq_enter_critical+0x3c>)
    2294:	701a      	strb	r2, [r3, #0]
    2296:	e002      	b.n	229e <cpu_irq_enter_critical+0x2a>
    2298:	2200      	movs	r2, #0
    229a:	4b05      	ldr	r3, [pc, #20]	; (22b0 <cpu_irq_enter_critical+0x3c>)
    229c:	701a      	strb	r2, [r3, #0]
    229e:	4b02      	ldr	r3, [pc, #8]	; (22a8 <cpu_irq_enter_critical+0x34>)
    22a0:	681a      	ldr	r2, [r3, #0]
    22a2:	3201      	adds	r2, #1
    22a4:	601a      	str	r2, [r3, #0]
    22a6:	4770      	bx	lr
    22a8:	200000f4 	.word	0x200000f4
    22ac:	2000000c 	.word	0x2000000c
    22b0:	200000f8 	.word	0x200000f8

000022b4 <cpu_irq_leave_critical>:
    22b4:	4b08      	ldr	r3, [pc, #32]	; (22d8 <cpu_irq_leave_critical+0x24>)
    22b6:	681a      	ldr	r2, [r3, #0]
    22b8:	3a01      	subs	r2, #1
    22ba:	601a      	str	r2, [r3, #0]
    22bc:	681b      	ldr	r3, [r3, #0]
    22be:	2b00      	cmp	r3, #0
    22c0:	d109      	bne.n	22d6 <cpu_irq_leave_critical+0x22>
    22c2:	4b06      	ldr	r3, [pc, #24]	; (22dc <cpu_irq_leave_critical+0x28>)
    22c4:	781b      	ldrb	r3, [r3, #0]
    22c6:	2b00      	cmp	r3, #0
    22c8:	d005      	beq.n	22d6 <cpu_irq_leave_critical+0x22>
    22ca:	2201      	movs	r2, #1
    22cc:	4b04      	ldr	r3, [pc, #16]	; (22e0 <cpu_irq_leave_critical+0x2c>)
    22ce:	701a      	strb	r2, [r3, #0]
    22d0:	f3bf 8f5f 	dmb	sy
    22d4:	b662      	cpsie	i
    22d6:	4770      	bx	lr
    22d8:	200000f4 	.word	0x200000f4
    22dc:	200000f8 	.word	0x200000f8
    22e0:	2000000c 	.word	0x2000000c

000022e4 <usart_init>:
    22e4:	b5f0      	push	{r4, r5, r6, r7, lr}
    22e6:	465f      	mov	r7, fp
    22e8:	4656      	mov	r6, sl
    22ea:	464d      	mov	r5, r9
    22ec:	4644      	mov	r4, r8
    22ee:	b4f0      	push	{r4, r5, r6, r7}
    22f0:	b093      	sub	sp, #76	; 0x4c
    22f2:	1c05      	adds	r5, r0, #0
    22f4:	1c0c      	adds	r4, r1, #0
    22f6:	1c16      	adds	r6, r2, #0
    22f8:	6029      	str	r1, [r5, #0]
    22fa:	1c08      	adds	r0, r1, #0
    22fc:	4ba9      	ldr	r3, [pc, #676]	; (25a4 <usart_init+0x2c0>)
    22fe:	4798      	blx	r3
    2300:	1c02      	adds	r2, r0, #0
    2302:	6823      	ldr	r3, [r4, #0]
    2304:	2005      	movs	r0, #5
    2306:	07d9      	lsls	r1, r3, #31
    2308:	d500      	bpl.n	230c <usart_init+0x28>
    230a:	e143      	b.n	2594 <usart_init+0x2b0>
    230c:	6823      	ldr	r3, [r4, #0]
    230e:	201c      	movs	r0, #28
    2310:	079f      	lsls	r7, r3, #30
    2312:	d500      	bpl.n	2316 <usart_init+0x32>
    2314:	e13e      	b.n	2594 <usart_init+0x2b0>
    2316:	4ba4      	ldr	r3, [pc, #656]	; (25a8 <usart_init+0x2c4>)
    2318:	6a18      	ldr	r0, [r3, #32]
    231a:	1c91      	adds	r1, r2, #2
    231c:	2701      	movs	r7, #1
    231e:	408f      	lsls	r7, r1
    2320:	1c39      	adds	r1, r7, #0
    2322:	4301      	orrs	r1, r0
    2324:	6219      	str	r1, [r3, #32]
    2326:	a911      	add	r1, sp, #68	; 0x44
    2328:	272d      	movs	r7, #45	; 0x2d
    232a:	5df3      	ldrb	r3, [r6, r7]
    232c:	700b      	strb	r3, [r1, #0]
    232e:	3214      	adds	r2, #20
    2330:	b2d2      	uxtb	r2, r2
    2332:	4690      	mov	r8, r2
    2334:	1c10      	adds	r0, r2, #0
    2336:	4b9d      	ldr	r3, [pc, #628]	; (25ac <usart_init+0x2c8>)
    2338:	4798      	blx	r3
    233a:	4640      	mov	r0, r8
    233c:	4b9c      	ldr	r3, [pc, #624]	; (25b0 <usart_init+0x2cc>)
    233e:	4798      	blx	r3
    2340:	5df0      	ldrb	r0, [r6, r7]
    2342:	2100      	movs	r1, #0
    2344:	4b9b      	ldr	r3, [pc, #620]	; (25b4 <usart_init+0x2d0>)
    2346:	4798      	blx	r3
    2348:	7af3      	ldrb	r3, [r6, #11]
    234a:	716b      	strb	r3, [r5, #5]
    234c:	2324      	movs	r3, #36	; 0x24
    234e:	5cf3      	ldrb	r3, [r6, r3]
    2350:	71ab      	strb	r3, [r5, #6]
    2352:	2325      	movs	r3, #37	; 0x25
    2354:	5cf3      	ldrb	r3, [r6, r3]
    2356:	71eb      	strb	r3, [r5, #7]
    2358:	7ef3      	ldrb	r3, [r6, #27]
    235a:	722b      	strb	r3, [r5, #8]
    235c:	7f33      	ldrb	r3, [r6, #28]
    235e:	726b      	strb	r3, [r5, #9]
    2360:	6829      	ldr	r1, [r5, #0]
    2362:	4688      	mov	r8, r1
    2364:	1c08      	adds	r0, r1, #0
    2366:	4b8f      	ldr	r3, [pc, #572]	; (25a4 <usart_init+0x2c0>)
    2368:	4798      	blx	r3
    236a:	3014      	adds	r0, #20
    236c:	2200      	movs	r2, #0
    236e:	466b      	mov	r3, sp
    2370:	85da      	strh	r2, [r3, #46]	; 0x2e
    2372:	8a32      	ldrh	r2, [r6, #16]
    2374:	9203      	str	r2, [sp, #12]
    2376:	2380      	movs	r3, #128	; 0x80
    2378:	01db      	lsls	r3, r3, #7
    237a:	429a      	cmp	r2, r3
    237c:	d021      	beq.n	23c2 <usart_init+0xde>
    237e:	2380      	movs	r3, #128	; 0x80
    2380:	01db      	lsls	r3, r3, #7
    2382:	429a      	cmp	r2, r3
    2384:	d804      	bhi.n	2390 <usart_init+0xac>
    2386:	2380      	movs	r3, #128	; 0x80
    2388:	019b      	lsls	r3, r3, #6
    238a:	429a      	cmp	r2, r3
    238c:	d011      	beq.n	23b2 <usart_init+0xce>
    238e:	e008      	b.n	23a2 <usart_init+0xbe>
    2390:	23c0      	movs	r3, #192	; 0xc0
    2392:	01db      	lsls	r3, r3, #7
    2394:	9f03      	ldr	r7, [sp, #12]
    2396:	429f      	cmp	r7, r3
    2398:	d00f      	beq.n	23ba <usart_init+0xd6>
    239a:	2380      	movs	r3, #128	; 0x80
    239c:	021b      	lsls	r3, r3, #8
    239e:	429f      	cmp	r7, r3
    23a0:	d003      	beq.n	23aa <usart_init+0xc6>
    23a2:	2710      	movs	r7, #16
    23a4:	9708      	str	r7, [sp, #32]
    23a6:	2700      	movs	r7, #0
    23a8:	e00e      	b.n	23c8 <usart_init+0xe4>
    23aa:	2703      	movs	r7, #3
    23ac:	9708      	str	r7, [sp, #32]
    23ae:	2700      	movs	r7, #0
    23b0:	e00a      	b.n	23c8 <usart_init+0xe4>
    23b2:	2710      	movs	r7, #16
    23b4:	9708      	str	r7, [sp, #32]
    23b6:	2701      	movs	r7, #1
    23b8:	e006      	b.n	23c8 <usart_init+0xe4>
    23ba:	2708      	movs	r7, #8
    23bc:	9708      	str	r7, [sp, #32]
    23be:	2701      	movs	r7, #1
    23c0:	e002      	b.n	23c8 <usart_init+0xe4>
    23c2:	2708      	movs	r7, #8
    23c4:	9708      	str	r7, [sp, #32]
    23c6:	2700      	movs	r7, #0
    23c8:	6831      	ldr	r1, [r6, #0]
    23ca:	9104      	str	r1, [sp, #16]
    23cc:	68f2      	ldr	r2, [r6, #12]
    23ce:	9205      	str	r2, [sp, #20]
    23d0:	6973      	ldr	r3, [r6, #20]
    23d2:	9306      	str	r3, [sp, #24]
    23d4:	7e31      	ldrb	r1, [r6, #24]
    23d6:	468a      	mov	sl, r1
    23d8:	2326      	movs	r3, #38	; 0x26
    23da:	5cf3      	ldrb	r3, [r6, r3]
    23dc:	469b      	mov	fp, r3
    23de:	6872      	ldr	r2, [r6, #4]
    23e0:	4691      	mov	r9, r2
    23e2:	2a00      	cmp	r2, #0
    23e4:	d013      	beq.n	240e <usart_init+0x12a>
    23e6:	2380      	movs	r3, #128	; 0x80
    23e8:	055b      	lsls	r3, r3, #21
    23ea:	429a      	cmp	r2, r3
    23ec:	d12e      	bne.n	244c <usart_init+0x168>
    23ee:	2327      	movs	r3, #39	; 0x27
    23f0:	5cf3      	ldrb	r3, [r6, r3]
    23f2:	2b00      	cmp	r3, #0
    23f4:	d12e      	bne.n	2454 <usart_init+0x170>
    23f6:	6a37      	ldr	r7, [r6, #32]
    23f8:	b2c0      	uxtb	r0, r0
    23fa:	4b6f      	ldr	r3, [pc, #444]	; (25b8 <usart_init+0x2d4>)
    23fc:	4798      	blx	r3
    23fe:	1c01      	adds	r1, r0, #0
    2400:	1c38      	adds	r0, r7, #0
    2402:	466a      	mov	r2, sp
    2404:	322e      	adds	r2, #46	; 0x2e
    2406:	4b6d      	ldr	r3, [pc, #436]	; (25bc <usart_init+0x2d8>)
    2408:	4798      	blx	r3
    240a:	1c03      	adds	r3, r0, #0
    240c:	e01f      	b.n	244e <usart_init+0x16a>
    240e:	2327      	movs	r3, #39	; 0x27
    2410:	5cf3      	ldrb	r3, [r6, r3]
    2412:	2b00      	cmp	r3, #0
    2414:	d00a      	beq.n	242c <usart_init+0x148>
    2416:	9908      	ldr	r1, [sp, #32]
    2418:	9100      	str	r1, [sp, #0]
    241a:	6a30      	ldr	r0, [r6, #32]
    241c:	6ab1      	ldr	r1, [r6, #40]	; 0x28
    241e:	466a      	mov	r2, sp
    2420:	322e      	adds	r2, #46	; 0x2e
    2422:	1c3b      	adds	r3, r7, #0
    2424:	4f66      	ldr	r7, [pc, #408]	; (25c0 <usart_init+0x2dc>)
    2426:	47b8      	blx	r7
    2428:	1c03      	adds	r3, r0, #0
    242a:	e010      	b.n	244e <usart_init+0x16a>
    242c:	6a31      	ldr	r1, [r6, #32]
    242e:	9109      	str	r1, [sp, #36]	; 0x24
    2430:	b2c0      	uxtb	r0, r0
    2432:	4b61      	ldr	r3, [pc, #388]	; (25b8 <usart_init+0x2d4>)
    2434:	4798      	blx	r3
    2436:	1c01      	adds	r1, r0, #0
    2438:	9a08      	ldr	r2, [sp, #32]
    243a:	9200      	str	r2, [sp, #0]
    243c:	9809      	ldr	r0, [sp, #36]	; 0x24
    243e:	466a      	mov	r2, sp
    2440:	322e      	adds	r2, #46	; 0x2e
    2442:	1c3b      	adds	r3, r7, #0
    2444:	4f5e      	ldr	r7, [pc, #376]	; (25c0 <usart_init+0x2dc>)
    2446:	47b8      	blx	r7
    2448:	1c03      	adds	r3, r0, #0
    244a:	e000      	b.n	244e <usart_init+0x16a>
    244c:	2300      	movs	r3, #0
    244e:	1e18      	subs	r0, r3, #0
    2450:	d000      	beq.n	2454 <usart_init+0x170>
    2452:	e09f      	b.n	2594 <usart_init+0x2b0>
    2454:	7e73      	ldrb	r3, [r6, #25]
    2456:	2b00      	cmp	r3, #0
    2458:	d002      	beq.n	2460 <usart_init+0x17c>
    245a:	7eb3      	ldrb	r3, [r6, #26]
    245c:	4641      	mov	r1, r8
    245e:	738b      	strb	r3, [r1, #14]
    2460:	682a      	ldr	r2, [r5, #0]
    2462:	9f03      	ldr	r7, [sp, #12]
    2464:	69d3      	ldr	r3, [r2, #28]
    2466:	2b00      	cmp	r3, #0
    2468:	d1fc      	bne.n	2464 <usart_init+0x180>
    246a:	9703      	str	r7, [sp, #12]
    246c:	466b      	mov	r3, sp
    246e:	332e      	adds	r3, #46	; 0x2e
    2470:	881b      	ldrh	r3, [r3, #0]
    2472:	4642      	mov	r2, r8
    2474:	8193      	strh	r3, [r2, #12]
    2476:	9b05      	ldr	r3, [sp, #20]
    2478:	9f04      	ldr	r7, [sp, #16]
    247a:	433b      	orrs	r3, r7
    247c:	9f06      	ldr	r7, [sp, #24]
    247e:	433b      	orrs	r3, r7
    2480:	4649      	mov	r1, r9
    2482:	430b      	orrs	r3, r1
    2484:	9f03      	ldr	r7, [sp, #12]
    2486:	431f      	orrs	r7, r3
    2488:	4652      	mov	r2, sl
    248a:	0213      	lsls	r3, r2, #8
    248c:	431f      	orrs	r7, r3
    248e:	4659      	mov	r1, fp
    2490:	074b      	lsls	r3, r1, #29
    2492:	431f      	orrs	r7, r3
    2494:	2327      	movs	r3, #39	; 0x27
    2496:	5cf3      	ldrb	r3, [r6, r3]
    2498:	2b00      	cmp	r3, #0
    249a:	d101      	bne.n	24a0 <usart_init+0x1bc>
    249c:	2304      	movs	r3, #4
    249e:	431f      	orrs	r7, r3
    24a0:	7f31      	ldrb	r1, [r6, #28]
    24a2:	0249      	lsls	r1, r1, #9
    24a4:	7e73      	ldrb	r3, [r6, #25]
    24a6:	029b      	lsls	r3, r3, #10
    24a8:	4319      	orrs	r1, r3
    24aa:	7f73      	ldrb	r3, [r6, #29]
    24ac:	021b      	lsls	r3, r3, #8
    24ae:	4319      	orrs	r1, r3
    24b0:	2324      	movs	r3, #36	; 0x24
    24b2:	5cf3      	ldrb	r3, [r6, r3]
    24b4:	045b      	lsls	r3, r3, #17
    24b6:	4319      	orrs	r1, r3
    24b8:	2325      	movs	r3, #37	; 0x25
    24ba:	5cf3      	ldrb	r3, [r6, r3]
    24bc:	041b      	lsls	r3, r3, #16
    24be:	4319      	orrs	r1, r3
    24c0:	7af3      	ldrb	r3, [r6, #11]
    24c2:	4319      	orrs	r1, r3
    24c4:	8933      	ldrh	r3, [r6, #8]
    24c6:	2bff      	cmp	r3, #255	; 0xff
    24c8:	d004      	beq.n	24d4 <usart_init+0x1f0>
    24ca:	2280      	movs	r2, #128	; 0x80
    24cc:	0452      	lsls	r2, r2, #17
    24ce:	4317      	orrs	r7, r2
    24d0:	4319      	orrs	r1, r3
    24d2:	e005      	b.n	24e0 <usart_init+0x1fc>
    24d4:	7ef3      	ldrb	r3, [r6, #27]
    24d6:	2b00      	cmp	r3, #0
    24d8:	d002      	beq.n	24e0 <usart_init+0x1fc>
    24da:	2380      	movs	r3, #128	; 0x80
    24dc:	04db      	lsls	r3, r3, #19
    24de:	431f      	orrs	r7, r3
    24e0:	232c      	movs	r3, #44	; 0x2c
    24e2:	5cf3      	ldrb	r3, [r6, r3]
    24e4:	2b00      	cmp	r3, #0
    24e6:	d103      	bne.n	24f0 <usart_init+0x20c>
    24e8:	4b36      	ldr	r3, [pc, #216]	; (25c4 <usart_init+0x2e0>)
    24ea:	789b      	ldrb	r3, [r3, #2]
    24ec:	079a      	lsls	r2, r3, #30
    24ee:	d501      	bpl.n	24f4 <usart_init+0x210>
    24f0:	2380      	movs	r3, #128	; 0x80
    24f2:	431f      	orrs	r7, r3
    24f4:	682a      	ldr	r2, [r5, #0]
    24f6:	69d3      	ldr	r3, [r2, #28]
    24f8:	2b00      	cmp	r3, #0
    24fa:	d1fc      	bne.n	24f6 <usart_init+0x212>
    24fc:	4643      	mov	r3, r8
    24fe:	6059      	str	r1, [r3, #4]
    2500:	682a      	ldr	r2, [r5, #0]
    2502:	69d3      	ldr	r3, [r2, #28]
    2504:	2b00      	cmp	r3, #0
    2506:	d1fc      	bne.n	2502 <usart_init+0x21e>
    2508:	4641      	mov	r1, r8
    250a:	600f      	str	r7, [r1, #0]
    250c:	ab10      	add	r3, sp, #64	; 0x40
    250e:	2280      	movs	r2, #128	; 0x80
    2510:	701a      	strb	r2, [r3, #0]
    2512:	2200      	movs	r2, #0
    2514:	705a      	strb	r2, [r3, #1]
    2516:	70da      	strb	r2, [r3, #3]
    2518:	709a      	strb	r2, [r3, #2]
    251a:	6b32      	ldr	r2, [r6, #48]	; 0x30
    251c:	920c      	str	r2, [sp, #48]	; 0x30
    251e:	6b73      	ldr	r3, [r6, #52]	; 0x34
    2520:	930d      	str	r3, [sp, #52]	; 0x34
    2522:	6bb7      	ldr	r7, [r6, #56]	; 0x38
    2524:	970e      	str	r7, [sp, #56]	; 0x38
    2526:	6bf6      	ldr	r6, [r6, #60]	; 0x3c
    2528:	960f      	str	r6, [sp, #60]	; 0x3c
    252a:	2700      	movs	r7, #0
    252c:	ae10      	add	r6, sp, #64	; 0x40
    252e:	b2f9      	uxtb	r1, r7
    2530:	00bb      	lsls	r3, r7, #2
    2532:	aa0c      	add	r2, sp, #48	; 0x30
    2534:	5898      	ldr	r0, [r3, r2]
    2536:	2800      	cmp	r0, #0
    2538:	d102      	bne.n	2540 <usart_init+0x25c>
    253a:	1c20      	adds	r0, r4, #0
    253c:	4a22      	ldr	r2, [pc, #136]	; (25c8 <usart_init+0x2e4>)
    253e:	4790      	blx	r2
    2540:	1c43      	adds	r3, r0, #1
    2542:	d005      	beq.n	2550 <usart_init+0x26c>
    2544:	7030      	strb	r0, [r6, #0]
    2546:	0c00      	lsrs	r0, r0, #16
    2548:	b2c0      	uxtb	r0, r0
    254a:	1c31      	adds	r1, r6, #0
    254c:	4a1f      	ldr	r2, [pc, #124]	; (25cc <usart_init+0x2e8>)
    254e:	4790      	blx	r2
    2550:	3701      	adds	r7, #1
    2552:	2f04      	cmp	r7, #4
    2554:	d1eb      	bne.n	252e <usart_init+0x24a>
    2556:	2300      	movs	r3, #0
    2558:	60eb      	str	r3, [r5, #12]
    255a:	612b      	str	r3, [r5, #16]
    255c:	616b      	str	r3, [r5, #20]
    255e:	61ab      	str	r3, [r5, #24]
    2560:	61eb      	str	r3, [r5, #28]
    2562:	622b      	str	r3, [r5, #32]
    2564:	62ab      	str	r3, [r5, #40]	; 0x28
    2566:	626b      	str	r3, [r5, #36]	; 0x24
    2568:	2200      	movs	r2, #0
    256a:	85eb      	strh	r3, [r5, #46]	; 0x2e
    256c:	85ab      	strh	r3, [r5, #44]	; 0x2c
    256e:	2330      	movs	r3, #48	; 0x30
    2570:	54ea      	strb	r2, [r5, r3]
    2572:	2331      	movs	r3, #49	; 0x31
    2574:	54ea      	strb	r2, [r5, r3]
    2576:	2332      	movs	r3, #50	; 0x32
    2578:	54ea      	strb	r2, [r5, r3]
    257a:	2333      	movs	r3, #51	; 0x33
    257c:	54ea      	strb	r2, [r5, r3]
    257e:	6828      	ldr	r0, [r5, #0]
    2580:	4b08      	ldr	r3, [pc, #32]	; (25a4 <usart_init+0x2c0>)
    2582:	4798      	blx	r3
    2584:	1c04      	adds	r4, r0, #0
    2586:	4912      	ldr	r1, [pc, #72]	; (25d0 <usart_init+0x2ec>)
    2588:	4b12      	ldr	r3, [pc, #72]	; (25d4 <usart_init+0x2f0>)
    258a:	4798      	blx	r3
    258c:	00a4      	lsls	r4, r4, #2
    258e:	4b12      	ldr	r3, [pc, #72]	; (25d8 <usart_init+0x2f4>)
    2590:	50e5      	str	r5, [r4, r3]
    2592:	2000      	movs	r0, #0
    2594:	b013      	add	sp, #76	; 0x4c
    2596:	bc3c      	pop	{r2, r3, r4, r5}
    2598:	4690      	mov	r8, r2
    259a:	4699      	mov	r9, r3
    259c:	46a2      	mov	sl, r4
    259e:	46ab      	mov	fp, r5
    25a0:	bdf0      	pop	{r4, r5, r6, r7, pc}
    25a2:	46c0      	nop			; (mov r8, r8)
    25a4:	00001c21 	.word	0x00001c21
    25a8:	40000400 	.word	0x40000400
    25ac:	00002d45 	.word	0x00002d45
    25b0:	00002cb9 	.word	0x00002cb9
    25b4:	00001ac9 	.word	0x00001ac9
    25b8:	00002d61 	.word	0x00002d61
    25bc:	000018f1 	.word	0x000018f1
    25c0:	00001919 	.word	0x00001919
    25c4:	41002000 	.word	0x41002000
    25c8:	00001b19 	.word	0x00001b19
    25cc:	00002e21 	.word	0x00002e21
    25d0:	00002681 	.word	0x00002681
    25d4:	000021c5 	.word	0x000021c5
    25d8:	200002c8 	.word	0x200002c8

000025dc <usart_write_wait>:
    25dc:	b510      	push	{r4, lr}
    25de:	1c02      	adds	r2, r0, #0
    25e0:	6803      	ldr	r3, [r0, #0]
    25e2:	79c4      	ldrb	r4, [r0, #7]
    25e4:	201c      	movs	r0, #28
    25e6:	2c00      	cmp	r4, #0
    25e8:	d00d      	beq.n	2606 <usart_write_wait+0x2a>
    25ea:	8dd2      	ldrh	r2, [r2, #46]	; 0x2e
    25ec:	b292      	uxth	r2, r2
    25ee:	2005      	movs	r0, #5
    25f0:	2a00      	cmp	r2, #0
    25f2:	d108      	bne.n	2606 <usart_write_wait+0x2a>
    25f4:	69da      	ldr	r2, [r3, #28]
    25f6:	2a00      	cmp	r2, #0
    25f8:	d1fc      	bne.n	25f4 <usart_write_wait+0x18>
    25fa:	8519      	strh	r1, [r3, #40]	; 0x28
    25fc:	2102      	movs	r1, #2
    25fe:	7e1a      	ldrb	r2, [r3, #24]
    2600:	420a      	tst	r2, r1
    2602:	d0fc      	beq.n	25fe <usart_write_wait+0x22>
    2604:	2000      	movs	r0, #0
    2606:	bd10      	pop	{r4, pc}

00002608 <usart_read_wait>:
    2608:	b510      	push	{r4, lr}
    260a:	1c03      	adds	r3, r0, #0
    260c:	6804      	ldr	r4, [r0, #0]
    260e:	7982      	ldrb	r2, [r0, #6]
    2610:	201c      	movs	r0, #28
    2612:	2a00      	cmp	r2, #0
    2614:	d033      	beq.n	267e <usart_read_wait+0x76>
    2616:	8d9b      	ldrh	r3, [r3, #44]	; 0x2c
    2618:	b29b      	uxth	r3, r3
    261a:	2005      	movs	r0, #5
    261c:	2b00      	cmp	r3, #0
    261e:	d12e      	bne.n	267e <usart_read_wait+0x76>
    2620:	7e23      	ldrb	r3, [r4, #24]
    2622:	075a      	lsls	r2, r3, #29
    2624:	d52b      	bpl.n	267e <usart_read_wait+0x76>
    2626:	69e3      	ldr	r3, [r4, #28]
    2628:	2b00      	cmp	r3, #0
    262a:	d1fc      	bne.n	2626 <usart_read_wait+0x1e>
    262c:	8b63      	ldrh	r3, [r4, #26]
    262e:	b2db      	uxtb	r3, r3
    2630:	069a      	lsls	r2, r3, #26
    2632:	d021      	beq.n	2678 <usart_read_wait+0x70>
    2634:	079a      	lsls	r2, r3, #30
    2636:	d503      	bpl.n	2640 <usart_read_wait+0x38>
    2638:	2302      	movs	r3, #2
    263a:	8363      	strh	r3, [r4, #26]
    263c:	201a      	movs	r0, #26
    263e:	e01e      	b.n	267e <usart_read_wait+0x76>
    2640:	075a      	lsls	r2, r3, #29
    2642:	d503      	bpl.n	264c <usart_read_wait+0x44>
    2644:	2304      	movs	r3, #4
    2646:	8363      	strh	r3, [r4, #26]
    2648:	201e      	movs	r0, #30
    264a:	e018      	b.n	267e <usart_read_wait+0x76>
    264c:	07da      	lsls	r2, r3, #31
    264e:	d503      	bpl.n	2658 <usart_read_wait+0x50>
    2650:	2301      	movs	r3, #1
    2652:	8363      	strh	r3, [r4, #26]
    2654:	2013      	movs	r0, #19
    2656:	e012      	b.n	267e <usart_read_wait+0x76>
    2658:	06da      	lsls	r2, r3, #27
    265a:	d505      	bpl.n	2668 <usart_read_wait+0x60>
    265c:	8b62      	ldrh	r2, [r4, #26]
    265e:	2310      	movs	r3, #16
    2660:	4313      	orrs	r3, r2
    2662:	8363      	strh	r3, [r4, #26]
    2664:	2042      	movs	r0, #66	; 0x42
    2666:	e00a      	b.n	267e <usart_read_wait+0x76>
    2668:	069a      	lsls	r2, r3, #26
    266a:	d505      	bpl.n	2678 <usart_read_wait+0x70>
    266c:	8b62      	ldrh	r2, [r4, #26]
    266e:	2320      	movs	r3, #32
    2670:	4313      	orrs	r3, r2
    2672:	8363      	strh	r3, [r4, #26]
    2674:	2041      	movs	r0, #65	; 0x41
    2676:	e002      	b.n	267e <usart_read_wait+0x76>
    2678:	8d23      	ldrh	r3, [r4, #40]	; 0x28
    267a:	800b      	strh	r3, [r1, #0]
    267c:	2000      	movs	r0, #0
    267e:	bd10      	pop	{r4, pc}

00002680 <_usart_interrupt_handler>:
    2680:	b5f8      	push	{r3, r4, r5, r6, r7, lr}
    2682:	0080      	lsls	r0, r0, #2
    2684:	4b64      	ldr	r3, [pc, #400]	; (2818 <_usart_interrupt_handler+0x198>)
    2686:	58c5      	ldr	r5, [r0, r3]
    2688:	682c      	ldr	r4, [r5, #0]
    268a:	69e3      	ldr	r3, [r4, #28]
    268c:	2b00      	cmp	r3, #0
    268e:	d1fc      	bne.n	268a <_usart_interrupt_handler+0xa>
    2690:	7e23      	ldrb	r3, [r4, #24]
    2692:	7da6      	ldrb	r6, [r4, #22]
    2694:	401e      	ands	r6, r3
    2696:	2331      	movs	r3, #49	; 0x31
    2698:	5ceb      	ldrb	r3, [r5, r3]
    269a:	2230      	movs	r2, #48	; 0x30
    269c:	5caf      	ldrb	r7, [r5, r2]
    269e:	401f      	ands	r7, r3
    26a0:	07f1      	lsls	r1, r6, #31
    26a2:	d520      	bpl.n	26e6 <_usart_interrupt_handler+0x66>
    26a4:	8deb      	ldrh	r3, [r5, #46]	; 0x2e
    26a6:	b29b      	uxth	r3, r3
    26a8:	2b00      	cmp	r3, #0
    26aa:	d01a      	beq.n	26e2 <_usart_interrupt_handler+0x62>
    26ac:	6aab      	ldr	r3, [r5, #40]	; 0x28
    26ae:	781a      	ldrb	r2, [r3, #0]
    26b0:	b2d2      	uxtb	r2, r2
    26b2:	1c59      	adds	r1, r3, #1
    26b4:	62a9      	str	r1, [r5, #40]	; 0x28
    26b6:	7969      	ldrb	r1, [r5, #5]
    26b8:	2901      	cmp	r1, #1
    26ba:	d104      	bne.n	26c6 <_usart_interrupt_handler+0x46>
    26bc:	7859      	ldrb	r1, [r3, #1]
    26be:	0209      	lsls	r1, r1, #8
    26c0:	430a      	orrs	r2, r1
    26c2:	3302      	adds	r3, #2
    26c4:	62ab      	str	r3, [r5, #40]	; 0x28
    26c6:	05d3      	lsls	r3, r2, #23
    26c8:	0ddb      	lsrs	r3, r3, #23
    26ca:	8523      	strh	r3, [r4, #40]	; 0x28
    26cc:	8deb      	ldrh	r3, [r5, #46]	; 0x2e
    26ce:	3b01      	subs	r3, #1
    26d0:	b29b      	uxth	r3, r3
    26d2:	85eb      	strh	r3, [r5, #46]	; 0x2e
    26d4:	2b00      	cmp	r3, #0
    26d6:	d106      	bne.n	26e6 <_usart_interrupt_handler+0x66>
    26d8:	2301      	movs	r3, #1
    26da:	7523      	strb	r3, [r4, #20]
    26dc:	2302      	movs	r3, #2
    26de:	75a3      	strb	r3, [r4, #22]
    26e0:	e001      	b.n	26e6 <_usart_interrupt_handler+0x66>
    26e2:	2301      	movs	r3, #1
    26e4:	7523      	strb	r3, [r4, #20]
    26e6:	07b2      	lsls	r2, r6, #30
    26e8:	d509      	bpl.n	26fe <_usart_interrupt_handler+0x7e>
    26ea:	2302      	movs	r3, #2
    26ec:	7523      	strb	r3, [r4, #20]
    26ee:	2200      	movs	r2, #0
    26f0:	2333      	movs	r3, #51	; 0x33
    26f2:	54ea      	strb	r2, [r5, r3]
    26f4:	07fb      	lsls	r3, r7, #31
    26f6:	d502      	bpl.n	26fe <_usart_interrupt_handler+0x7e>
    26f8:	1c28      	adds	r0, r5, #0
    26fa:	68e9      	ldr	r1, [r5, #12]
    26fc:	4788      	blx	r1
    26fe:	0772      	lsls	r2, r6, #29
    2700:	d56a      	bpl.n	27d8 <_usart_interrupt_handler+0x158>
    2702:	8dab      	ldrh	r3, [r5, #44]	; 0x2c
    2704:	b29b      	uxth	r3, r3
    2706:	2b00      	cmp	r3, #0
    2708:	d064      	beq.n	27d4 <_usart_interrupt_handler+0x154>
    270a:	8b63      	ldrh	r3, [r4, #26]
    270c:	b2db      	uxtb	r3, r3
    270e:	0719      	lsls	r1, r3, #28
    2710:	d402      	bmi.n	2718 <_usart_interrupt_handler+0x98>
    2712:	223f      	movs	r2, #63	; 0x3f
    2714:	4013      	ands	r3, r2
    2716:	e001      	b.n	271c <_usart_interrupt_handler+0x9c>
    2718:	2237      	movs	r2, #55	; 0x37
    271a:	4013      	ands	r3, r2
    271c:	2b00      	cmp	r3, #0
    271e:	d037      	beq.n	2790 <_usart_interrupt_handler+0x110>
    2720:	079a      	lsls	r2, r3, #30
    2722:	d507      	bpl.n	2734 <_usart_interrupt_handler+0xb4>
    2724:	221a      	movs	r2, #26
    2726:	2332      	movs	r3, #50	; 0x32
    2728:	54ea      	strb	r2, [r5, r3]
    272a:	8b62      	ldrh	r2, [r4, #26]
    272c:	2302      	movs	r3, #2
    272e:	4313      	orrs	r3, r2
    2730:	8363      	strh	r3, [r4, #26]
    2732:	e027      	b.n	2784 <_usart_interrupt_handler+0x104>
    2734:	0759      	lsls	r1, r3, #29
    2736:	d507      	bpl.n	2748 <_usart_interrupt_handler+0xc8>
    2738:	221e      	movs	r2, #30
    273a:	2332      	movs	r3, #50	; 0x32
    273c:	54ea      	strb	r2, [r5, r3]
    273e:	8b62      	ldrh	r2, [r4, #26]
    2740:	2304      	movs	r3, #4
    2742:	4313      	orrs	r3, r2
    2744:	8363      	strh	r3, [r4, #26]
    2746:	e01d      	b.n	2784 <_usart_interrupt_handler+0x104>
    2748:	07da      	lsls	r2, r3, #31
    274a:	d507      	bpl.n	275c <_usart_interrupt_handler+0xdc>
    274c:	2213      	movs	r2, #19
    274e:	2332      	movs	r3, #50	; 0x32
    2750:	54ea      	strb	r2, [r5, r3]
    2752:	8b62      	ldrh	r2, [r4, #26]
    2754:	2301      	movs	r3, #1
    2756:	4313      	orrs	r3, r2
    2758:	8363      	strh	r3, [r4, #26]
    275a:	e013      	b.n	2784 <_usart_interrupt_handler+0x104>
    275c:	06d9      	lsls	r1, r3, #27
    275e:	d507      	bpl.n	2770 <_usart_interrupt_handler+0xf0>
    2760:	2242      	movs	r2, #66	; 0x42
    2762:	2332      	movs	r3, #50	; 0x32
    2764:	54ea      	strb	r2, [r5, r3]
    2766:	8b62      	ldrh	r2, [r4, #26]
    2768:	2310      	movs	r3, #16
    276a:	4313      	orrs	r3, r2
    276c:	8363      	strh	r3, [r4, #26]
    276e:	e009      	b.n	2784 <_usart_interrupt_handler+0x104>
    2770:	2220      	movs	r2, #32
    2772:	421a      	tst	r2, r3
    2774:	d006      	beq.n	2784 <_usart_interrupt_handler+0x104>
    2776:	2241      	movs	r2, #65	; 0x41
    2778:	2332      	movs	r3, #50	; 0x32
    277a:	54ea      	strb	r2, [r5, r3]
    277c:	8b62      	ldrh	r2, [r4, #26]
    277e:	2320      	movs	r3, #32
    2780:	4313      	orrs	r3, r2
    2782:	8363      	strh	r3, [r4, #26]
    2784:	077a      	lsls	r2, r7, #29
    2786:	d527      	bpl.n	27d8 <_usart_interrupt_handler+0x158>
    2788:	1c28      	adds	r0, r5, #0
    278a:	696b      	ldr	r3, [r5, #20]
    278c:	4798      	blx	r3
    278e:	e023      	b.n	27d8 <_usart_interrupt_handler+0x158>
    2790:	8d22      	ldrh	r2, [r4, #40]	; 0x28
    2792:	05d2      	lsls	r2, r2, #23
    2794:	0dd2      	lsrs	r2, r2, #23
    2796:	b2d3      	uxtb	r3, r2
    2798:	6a69      	ldr	r1, [r5, #36]	; 0x24
    279a:	700b      	strb	r3, [r1, #0]
    279c:	6a6b      	ldr	r3, [r5, #36]	; 0x24
    279e:	1c59      	adds	r1, r3, #1
    27a0:	6269      	str	r1, [r5, #36]	; 0x24
    27a2:	7969      	ldrb	r1, [r5, #5]
    27a4:	2901      	cmp	r1, #1
    27a6:	d104      	bne.n	27b2 <_usart_interrupt_handler+0x132>
    27a8:	0a12      	lsrs	r2, r2, #8
    27aa:	705a      	strb	r2, [r3, #1]
    27ac:	6a6b      	ldr	r3, [r5, #36]	; 0x24
    27ae:	3301      	adds	r3, #1
    27b0:	626b      	str	r3, [r5, #36]	; 0x24
    27b2:	8dab      	ldrh	r3, [r5, #44]	; 0x2c
    27b4:	3b01      	subs	r3, #1
    27b6:	b29b      	uxth	r3, r3
    27b8:	85ab      	strh	r3, [r5, #44]	; 0x2c
    27ba:	2b00      	cmp	r3, #0
    27bc:	d10c      	bne.n	27d8 <_usart_interrupt_handler+0x158>
    27be:	2304      	movs	r3, #4
    27c0:	7523      	strb	r3, [r4, #20]
    27c2:	2200      	movs	r2, #0
    27c4:	2332      	movs	r3, #50	; 0x32
    27c6:	54ea      	strb	r2, [r5, r3]
    27c8:	07ba      	lsls	r2, r7, #30
    27ca:	d505      	bpl.n	27d8 <_usart_interrupt_handler+0x158>
    27cc:	1c28      	adds	r0, r5, #0
    27ce:	692b      	ldr	r3, [r5, #16]
    27d0:	4798      	blx	r3
    27d2:	e001      	b.n	27d8 <_usart_interrupt_handler+0x158>
    27d4:	2304      	movs	r3, #4
    27d6:	7523      	strb	r3, [r4, #20]
    27d8:	06f1      	lsls	r1, r6, #27
    27da:	d507      	bpl.n	27ec <_usart_interrupt_handler+0x16c>
    27dc:	2310      	movs	r3, #16
    27de:	7523      	strb	r3, [r4, #20]
    27e0:	7623      	strb	r3, [r4, #24]
    27e2:	06fa      	lsls	r2, r7, #27
    27e4:	d502      	bpl.n	27ec <_usart_interrupt_handler+0x16c>
    27e6:	1c28      	adds	r0, r5, #0
    27e8:	69eb      	ldr	r3, [r5, #28]
    27ea:	4798      	blx	r3
    27ec:	06b1      	lsls	r1, r6, #26
    27ee:	d507      	bpl.n	2800 <_usart_interrupt_handler+0x180>
    27f0:	2320      	movs	r3, #32
    27f2:	7523      	strb	r3, [r4, #20]
    27f4:	7623      	strb	r3, [r4, #24]
    27f6:	073a      	lsls	r2, r7, #28
    27f8:	d502      	bpl.n	2800 <_usart_interrupt_handler+0x180>
    27fa:	1c28      	adds	r0, r5, #0
    27fc:	69ab      	ldr	r3, [r5, #24]
    27fe:	4798      	blx	r3
    2800:	0731      	lsls	r1, r6, #28
    2802:	d507      	bpl.n	2814 <_usart_interrupt_handler+0x194>
    2804:	2308      	movs	r3, #8
    2806:	7523      	strb	r3, [r4, #20]
    2808:	7623      	strb	r3, [r4, #24]
    280a:	06ba      	lsls	r2, r7, #26
    280c:	d502      	bpl.n	2814 <_usart_interrupt_handler+0x194>
    280e:	6a2b      	ldr	r3, [r5, #32]
    2810:	1c28      	adds	r0, r5, #0
    2812:	4798      	blx	r3
    2814:	bdf8      	pop	{r3, r4, r5, r6, r7, pc}
    2816:	46c0      	nop			; (mov r8, r8)
    2818:	200002c8 	.word	0x200002c8

0000281c <system_clock_source_get_hz>:
    281c:	b508      	push	{r3, lr}
    281e:	2808      	cmp	r0, #8
    2820:	d834      	bhi.n	288c <system_clock_source_get_hz+0x70>
    2822:	0080      	lsls	r0, r0, #2
    2824:	4b1b      	ldr	r3, [pc, #108]	; (2894 <system_clock_source_get_hz+0x78>)
    2826:	581b      	ldr	r3, [r3, r0]
    2828:	469f      	mov	pc, r3
    282a:	2080      	movs	r0, #128	; 0x80
    282c:	0200      	lsls	r0, r0, #8
    282e:	e030      	b.n	2892 <system_clock_source_get_hz+0x76>
    2830:	4b19      	ldr	r3, [pc, #100]	; (2898 <system_clock_source_get_hz+0x7c>)
    2832:	6918      	ldr	r0, [r3, #16]
    2834:	e02d      	b.n	2892 <system_clock_source_get_hz+0x76>
    2836:	4b19      	ldr	r3, [pc, #100]	; (289c <system_clock_source_get_hz+0x80>)
    2838:	6a18      	ldr	r0, [r3, #32]
    283a:	0580      	lsls	r0, r0, #22
    283c:	0f80      	lsrs	r0, r0, #30
    283e:	4b18      	ldr	r3, [pc, #96]	; (28a0 <system_clock_source_get_hz+0x84>)
    2840:	40c3      	lsrs	r3, r0
    2842:	1c18      	adds	r0, r3, #0
    2844:	e025      	b.n	2892 <system_clock_source_get_hz+0x76>
    2846:	4b14      	ldr	r3, [pc, #80]	; (2898 <system_clock_source_get_hz+0x7c>)
    2848:	6958      	ldr	r0, [r3, #20]
    284a:	e022      	b.n	2892 <system_clock_source_get_hz+0x76>
    284c:	4b12      	ldr	r3, [pc, #72]	; (2898 <system_clock_source_get_hz+0x7c>)
    284e:	681b      	ldr	r3, [r3, #0]
    2850:	2002      	movs	r0, #2
    2852:	4018      	ands	r0, r3
    2854:	d01d      	beq.n	2892 <system_clock_source_get_hz+0x76>
    2856:	4911      	ldr	r1, [pc, #68]	; (289c <system_clock_source_get_hz+0x80>)
    2858:	2210      	movs	r2, #16
    285a:	68cb      	ldr	r3, [r1, #12]
    285c:	421a      	tst	r2, r3
    285e:	d0fc      	beq.n	285a <system_clock_source_get_hz+0x3e>
    2860:	4b0d      	ldr	r3, [pc, #52]	; (2898 <system_clock_source_get_hz+0x7c>)
    2862:	681b      	ldr	r3, [r3, #0]
    2864:	075a      	lsls	r2, r3, #29
    2866:	d513      	bpl.n	2890 <system_clock_source_get_hz+0x74>
    2868:	2000      	movs	r0, #0
    286a:	4b0e      	ldr	r3, [pc, #56]	; (28a4 <system_clock_source_get_hz+0x88>)
    286c:	4798      	blx	r3
    286e:	4b0a      	ldr	r3, [pc, #40]	; (2898 <system_clock_source_get_hz+0x7c>)
    2870:	689b      	ldr	r3, [r3, #8]
    2872:	041b      	lsls	r3, r3, #16
    2874:	0c1b      	lsrs	r3, r3, #16
    2876:	4358      	muls	r0, r3
    2878:	e00b      	b.n	2892 <system_clock_source_get_hz+0x76>
    287a:	2350      	movs	r3, #80	; 0x50
    287c:	4a07      	ldr	r2, [pc, #28]	; (289c <system_clock_source_get_hz+0x80>)
    287e:	5cd3      	ldrb	r3, [r2, r3]
    2880:	2000      	movs	r0, #0
    2882:	075a      	lsls	r2, r3, #29
    2884:	d505      	bpl.n	2892 <system_clock_source_get_hz+0x76>
    2886:	4b04      	ldr	r3, [pc, #16]	; (2898 <system_clock_source_get_hz+0x7c>)
    2888:	68d8      	ldr	r0, [r3, #12]
    288a:	e002      	b.n	2892 <system_clock_source_get_hz+0x76>
    288c:	2000      	movs	r0, #0
    288e:	e000      	b.n	2892 <system_clock_source_get_hz+0x76>
    2890:	4805      	ldr	r0, [pc, #20]	; (28a8 <system_clock_source_get_hz+0x8c>)
    2892:	bd08      	pop	{r3, pc}
    2894:	00009bec 	.word	0x00009bec
    2898:	200000fc 	.word	0x200000fc
    289c:	40000800 	.word	0x40000800
    28a0:	007a1200 	.word	0x007a1200
    28a4:	00002d61 	.word	0x00002d61
    28a8:	02dc6c00 	.word	0x02dc6c00

000028ac <system_clock_source_osc8m_set_config>:
    28ac:	b570      	push	{r4, r5, r6, lr}
    28ae:	4b0c      	ldr	r3, [pc, #48]	; (28e0 <system_clock_source_osc8m_set_config+0x34>)
    28b0:	6a1c      	ldr	r4, [r3, #32]
    28b2:	7801      	ldrb	r1, [r0, #0]
    28b4:	7885      	ldrb	r5, [r0, #2]
    28b6:	7840      	ldrb	r0, [r0, #1]
    28b8:	2201      	movs	r2, #1
    28ba:	4010      	ands	r0, r2
    28bc:	0180      	lsls	r0, r0, #6
    28be:	2640      	movs	r6, #64	; 0x40
    28c0:	43b4      	bics	r4, r6
    28c2:	4304      	orrs	r4, r0
    28c4:	402a      	ands	r2, r5
    28c6:	01d0      	lsls	r0, r2, #7
    28c8:	2280      	movs	r2, #128	; 0x80
    28ca:	4394      	bics	r4, r2
    28cc:	1c22      	adds	r2, r4, #0
    28ce:	4302      	orrs	r2, r0
    28d0:	2003      	movs	r0, #3
    28d2:	4001      	ands	r1, r0
    28d4:	0209      	lsls	r1, r1, #8
    28d6:	4803      	ldr	r0, [pc, #12]	; (28e4 <system_clock_source_osc8m_set_config+0x38>)
    28d8:	4002      	ands	r2, r0
    28da:	430a      	orrs	r2, r1
    28dc:	621a      	str	r2, [r3, #32]
    28de:	bd70      	pop	{r4, r5, r6, pc}
    28e0:	40000800 	.word	0x40000800
    28e4:	fffffcff 	.word	0xfffffcff

000028e8 <system_clock_source_dfll_set_config>:
    28e8:	b510      	push	{r4, lr}
    28ea:	7a02      	ldrb	r2, [r0, #8]
    28ec:	0692      	lsls	r2, r2, #26
    28ee:	0c12      	lsrs	r2, r2, #16
    28f0:	8943      	ldrh	r3, [r0, #10]
    28f2:	059b      	lsls	r3, r3, #22
    28f4:	0d9b      	lsrs	r3, r3, #22
    28f6:	431a      	orrs	r2, r3
    28f8:	4b18      	ldr	r3, [pc, #96]	; (295c <system_clock_source_dfll_set_config+0x74>)
    28fa:	605a      	str	r2, [r3, #4]
    28fc:	8881      	ldrh	r1, [r0, #4]
    28fe:	8842      	ldrh	r2, [r0, #2]
    2900:	4311      	orrs	r1, r2
    2902:	79c4      	ldrb	r4, [r0, #7]
    2904:	7982      	ldrb	r2, [r0, #6]
    2906:	4322      	orrs	r2, r4
    2908:	430a      	orrs	r2, r1
    290a:	7841      	ldrb	r1, [r0, #1]
    290c:	01c9      	lsls	r1, r1, #7
    290e:	430a      	orrs	r2, r1
    2910:	601a      	str	r2, [r3, #0]
    2912:	7803      	ldrb	r3, [r0, #0]
    2914:	2b04      	cmp	r3, #4
    2916:	d10f      	bne.n	2938 <system_clock_source_dfll_set_config+0x50>
    2918:	7b02      	ldrb	r2, [r0, #12]
    291a:	0692      	lsls	r2, r2, #26
    291c:	8a03      	ldrh	r3, [r0, #16]
    291e:	431a      	orrs	r2, r3
    2920:	89c3      	ldrh	r3, [r0, #14]
    2922:	041b      	lsls	r3, r3, #16
    2924:	490e      	ldr	r1, [pc, #56]	; (2960 <system_clock_source_dfll_set_config+0x78>)
    2926:	400b      	ands	r3, r1
    2928:	431a      	orrs	r2, r3
    292a:	4b0c      	ldr	r3, [pc, #48]	; (295c <system_clock_source_dfll_set_config+0x74>)
    292c:	609a      	str	r2, [r3, #8]
    292e:	6819      	ldr	r1, [r3, #0]
    2930:	2204      	movs	r2, #4
    2932:	430a      	orrs	r2, r1
    2934:	601a      	str	r2, [r3, #0]
    2936:	e010      	b.n	295a <system_clock_source_dfll_set_config+0x72>
    2938:	2b20      	cmp	r3, #32
    293a:	d10e      	bne.n	295a <system_clock_source_dfll_set_config+0x72>
    293c:	7b02      	ldrb	r2, [r0, #12]
    293e:	0692      	lsls	r2, r2, #26
    2940:	8a03      	ldrh	r3, [r0, #16]
    2942:	431a      	orrs	r2, r3
    2944:	89c3      	ldrh	r3, [r0, #14]
    2946:	041b      	lsls	r3, r3, #16
    2948:	4905      	ldr	r1, [pc, #20]	; (2960 <system_clock_source_dfll_set_config+0x78>)
    294a:	400b      	ands	r3, r1
    294c:	431a      	orrs	r2, r3
    294e:	4b03      	ldr	r3, [pc, #12]	; (295c <system_clock_source_dfll_set_config+0x74>)
    2950:	609a      	str	r2, [r3, #8]
    2952:	681a      	ldr	r2, [r3, #0]
    2954:	4903      	ldr	r1, [pc, #12]	; (2964 <system_clock_source_dfll_set_config+0x7c>)
    2956:	430a      	orrs	r2, r1
    2958:	601a      	str	r2, [r3, #0]
    295a:	bd10      	pop	{r4, pc}
    295c:	200000fc 	.word	0x200000fc
    2960:	03ff0000 	.word	0x03ff0000
    2964:	00000424 	.word	0x00000424

00002968 <system_clock_source_enable>:
    2968:	2808      	cmp	r0, #8
    296a:	d849      	bhi.n	2a00 <system_clock_source_enable+0x98>
    296c:	0080      	lsls	r0, r0, #2
    296e:	4b25      	ldr	r3, [pc, #148]	; (2a04 <system_clock_source_enable+0x9c>)
    2970:	581b      	ldr	r3, [r3, r0]
    2972:	469f      	mov	pc, r3
    2974:	2000      	movs	r0, #0
    2976:	e044      	b.n	2a02 <system_clock_source_enable+0x9a>
    2978:	4b23      	ldr	r3, [pc, #140]	; (2a08 <system_clock_source_enable+0xa0>)
    297a:	6a19      	ldr	r1, [r3, #32]
    297c:	2202      	movs	r2, #2
    297e:	430a      	orrs	r2, r1
    2980:	621a      	str	r2, [r3, #32]
    2982:	2000      	movs	r0, #0
    2984:	e03d      	b.n	2a02 <system_clock_source_enable+0x9a>
    2986:	4b20      	ldr	r3, [pc, #128]	; (2a08 <system_clock_source_enable+0xa0>)
    2988:	6999      	ldr	r1, [r3, #24]
    298a:	2202      	movs	r2, #2
    298c:	430a      	orrs	r2, r1
    298e:	619a      	str	r2, [r3, #24]
    2990:	2000      	movs	r0, #0
    2992:	e036      	b.n	2a02 <system_clock_source_enable+0x9a>
    2994:	4b1c      	ldr	r3, [pc, #112]	; (2a08 <system_clock_source_enable+0xa0>)
    2996:	8a19      	ldrh	r1, [r3, #16]
    2998:	2202      	movs	r2, #2
    299a:	430a      	orrs	r2, r1
    299c:	821a      	strh	r2, [r3, #16]
    299e:	2000      	movs	r0, #0
    29a0:	e02f      	b.n	2a02 <system_clock_source_enable+0x9a>
    29a2:	4b19      	ldr	r3, [pc, #100]	; (2a08 <system_clock_source_enable+0xa0>)
    29a4:	8a99      	ldrh	r1, [r3, #20]
    29a6:	2202      	movs	r2, #2
    29a8:	430a      	orrs	r2, r1
    29aa:	829a      	strh	r2, [r3, #20]
    29ac:	2000      	movs	r0, #0
    29ae:	e028      	b.n	2a02 <system_clock_source_enable+0x9a>
    29b0:	4a16      	ldr	r2, [pc, #88]	; (2a0c <system_clock_source_enable+0xa4>)
    29b2:	6811      	ldr	r1, [r2, #0]
    29b4:	2302      	movs	r3, #2
    29b6:	4319      	orrs	r1, r3
    29b8:	6011      	str	r1, [r2, #0]
    29ba:	4a13      	ldr	r2, [pc, #76]	; (2a08 <system_clock_source_enable+0xa0>)
    29bc:	8493      	strh	r3, [r2, #36]	; 0x24
    29be:	1c11      	adds	r1, r2, #0
    29c0:	2210      	movs	r2, #16
    29c2:	68cb      	ldr	r3, [r1, #12]
    29c4:	421a      	tst	r2, r3
    29c6:	d0fc      	beq.n	29c2 <system_clock_source_enable+0x5a>
    29c8:	4a10      	ldr	r2, [pc, #64]	; (2a0c <system_clock_source_enable+0xa4>)
    29ca:	6891      	ldr	r1, [r2, #8]
    29cc:	4b0e      	ldr	r3, [pc, #56]	; (2a08 <system_clock_source_enable+0xa0>)
    29ce:	62d9      	str	r1, [r3, #44]	; 0x2c
    29d0:	6852      	ldr	r2, [r2, #4]
    29d2:	629a      	str	r2, [r3, #40]	; 0x28
    29d4:	2200      	movs	r2, #0
    29d6:	849a      	strh	r2, [r3, #36]	; 0x24
    29d8:	1c19      	adds	r1, r3, #0
    29da:	2210      	movs	r2, #16
    29dc:	68cb      	ldr	r3, [r1, #12]
    29de:	421a      	tst	r2, r3
    29e0:	d0fc      	beq.n	29dc <system_clock_source_enable+0x74>
    29e2:	4b0a      	ldr	r3, [pc, #40]	; (2a0c <system_clock_source_enable+0xa4>)
    29e4:	681a      	ldr	r2, [r3, #0]
    29e6:	b292      	uxth	r2, r2
    29e8:	4b07      	ldr	r3, [pc, #28]	; (2a08 <system_clock_source_enable+0xa0>)
    29ea:	849a      	strh	r2, [r3, #36]	; 0x24
    29ec:	2000      	movs	r0, #0
    29ee:	e008      	b.n	2a02 <system_clock_source_enable+0x9a>
    29f0:	4a05      	ldr	r2, [pc, #20]	; (2a08 <system_clock_source_enable+0xa0>)
    29f2:	2344      	movs	r3, #68	; 0x44
    29f4:	5cd0      	ldrb	r0, [r2, r3]
    29f6:	2102      	movs	r1, #2
    29f8:	4301      	orrs	r1, r0
    29fa:	54d1      	strb	r1, [r2, r3]
    29fc:	2000      	movs	r0, #0
    29fe:	e000      	b.n	2a02 <system_clock_source_enable+0x9a>
    2a00:	2017      	movs	r0, #23
    2a02:	4770      	bx	lr
    2a04:	00009c10 	.word	0x00009c10
    2a08:	40000800 	.word	0x40000800
    2a0c:	200000fc 	.word	0x200000fc

00002a10 <system_clock_init>:
    2a10:	b570      	push	{r4, r5, r6, lr}
    2a12:	b08a      	sub	sp, #40	; 0x28
    2a14:	22c2      	movs	r2, #194	; 0xc2
    2a16:	00d2      	lsls	r2, r2, #3
    2a18:	4b32      	ldr	r3, [pc, #200]	; (2ae4 <system_clock_init+0xd4>)
    2a1a:	609a      	str	r2, [r3, #8]
    2a1c:	4b32      	ldr	r3, [pc, #200]	; (2ae8 <system_clock_init+0xd8>)
    2a1e:	685a      	ldr	r2, [r3, #4]
    2a20:	211e      	movs	r1, #30
    2a22:	438a      	bics	r2, r1
    2a24:	2102      	movs	r1, #2
    2a26:	430a      	orrs	r2, r1
    2a28:	605a      	str	r2, [r3, #4]
    2a2a:	2201      	movs	r2, #1
    2a2c:	ab01      	add	r3, sp, #4
    2a2e:	701a      	strb	r2, [r3, #0]
    2a30:	2400      	movs	r4, #0
    2a32:	4d2e      	ldr	r5, [pc, #184]	; (2aec <system_clock_init+0xdc>)
    2a34:	b2e0      	uxtb	r0, r4
    2a36:	a901      	add	r1, sp, #4
    2a38:	47a8      	blx	r5
    2a3a:	3401      	adds	r4, #1
    2a3c:	2c25      	cmp	r4, #37	; 0x25
    2a3e:	d1f9      	bne.n	2a34 <system_clock_init+0x24>
    2a40:	ab05      	add	r3, sp, #20
    2a42:	2100      	movs	r1, #0
    2a44:	7019      	strb	r1, [r3, #0]
    2a46:	2200      	movs	r2, #0
    2a48:	8059      	strh	r1, [r3, #2]
    2a4a:	8099      	strh	r1, [r3, #4]
    2a4c:	719a      	strb	r2, [r3, #6]
    2a4e:	71da      	strb	r2, [r3, #7]
    2a50:	213f      	movs	r1, #63	; 0x3f
    2a52:	8159      	strh	r1, [r3, #10]
    2a54:	2106      	movs	r1, #6
    2a56:	8219      	strh	r1, [r3, #16]
    2a58:	705a      	strb	r2, [r3, #1]
    2a5a:	4b25      	ldr	r3, [pc, #148]	; (2af0 <system_clock_init+0xe0>)
    2a5c:	681b      	ldr	r3, [r3, #0]
    2a5e:	0e9b      	lsrs	r3, r3, #26
    2a60:	2b3f      	cmp	r3, #63	; 0x3f
    2a62:	d100      	bne.n	2a66 <system_clock_init+0x56>
    2a64:	231f      	movs	r3, #31
    2a66:	a805      	add	r0, sp, #20
    2a68:	7203      	strb	r3, [r0, #8]
    2a6a:	2307      	movs	r3, #7
    2a6c:	7303      	strb	r3, [r0, #12]
    2a6e:	233f      	movs	r3, #63	; 0x3f
    2a70:	81c3      	strh	r3, [r0, #14]
    2a72:	4b20      	ldr	r3, [pc, #128]	; (2af4 <system_clock_init+0xe4>)
    2a74:	4798      	blx	r3
    2a76:	a804      	add	r0, sp, #16
    2a78:	2400      	movs	r4, #0
    2a7a:	7044      	strb	r4, [r0, #1]
    2a7c:	2601      	movs	r6, #1
    2a7e:	7086      	strb	r6, [r0, #2]
    2a80:	7004      	strb	r4, [r0, #0]
    2a82:	4b1d      	ldr	r3, [pc, #116]	; (2af8 <system_clock_init+0xe8>)
    2a84:	4798      	blx	r3
    2a86:	2006      	movs	r0, #6
    2a88:	4d1c      	ldr	r5, [pc, #112]	; (2afc <system_clock_init+0xec>)
    2a8a:	47a8      	blx	r5
    2a8c:	4b1c      	ldr	r3, [pc, #112]	; (2b00 <system_clock_init+0xf0>)
    2a8e:	4798      	blx	r3
    2a90:	a901      	add	r1, sp, #4
    2a92:	604e      	str	r6, [r1, #4]
    2a94:	704c      	strb	r4, [r1, #1]
    2a96:	2306      	movs	r3, #6
    2a98:	700b      	strb	r3, [r1, #0]
    2a9a:	720c      	strb	r4, [r1, #8]
    2a9c:	724c      	strb	r4, [r1, #9]
    2a9e:	2003      	movs	r0, #3
    2aa0:	4b18      	ldr	r3, [pc, #96]	; (2b04 <system_clock_init+0xf4>)
    2aa2:	4798      	blx	r3
    2aa4:	2003      	movs	r0, #3
    2aa6:	4b18      	ldr	r3, [pc, #96]	; (2b08 <system_clock_init+0xf8>)
    2aa8:	4798      	blx	r3
    2aaa:	2007      	movs	r0, #7
    2aac:	47a8      	blx	r5
    2aae:	490d      	ldr	r1, [pc, #52]	; (2ae4 <system_clock_init+0xd4>)
    2ab0:	2210      	movs	r2, #16
    2ab2:	68cb      	ldr	r3, [r1, #12]
    2ab4:	421a      	tst	r2, r3
    2ab6:	d0fc      	beq.n	2ab2 <system_clock_init+0xa2>
    2ab8:	4a14      	ldr	r2, [pc, #80]	; (2b0c <system_clock_init+0xfc>)
    2aba:	2300      	movs	r3, #0
    2abc:	7213      	strb	r3, [r2, #8]
    2abe:	7253      	strb	r3, [r2, #9]
    2ac0:	7293      	strb	r3, [r2, #10]
    2ac2:	72d3      	strb	r3, [r2, #11]
    2ac4:	a901      	add	r1, sp, #4
    2ac6:	2201      	movs	r2, #1
    2ac8:	604a      	str	r2, [r1, #4]
    2aca:	704b      	strb	r3, [r1, #1]
    2acc:	2206      	movs	r2, #6
    2ace:	700a      	strb	r2, [r1, #0]
    2ad0:	720b      	strb	r3, [r1, #8]
    2ad2:	724b      	strb	r3, [r1, #9]
    2ad4:	2000      	movs	r0, #0
    2ad6:	4b0b      	ldr	r3, [pc, #44]	; (2b04 <system_clock_init+0xf4>)
    2ad8:	4798      	blx	r3
    2ada:	2000      	movs	r0, #0
    2adc:	4b0a      	ldr	r3, [pc, #40]	; (2b08 <system_clock_init+0xf8>)
    2ade:	4798      	blx	r3
    2ae0:	b00a      	add	sp, #40	; 0x28
    2ae2:	bd70      	pop	{r4, r5, r6, pc}
    2ae4:	40000800 	.word	0x40000800
    2ae8:	41004000 	.word	0x41004000
    2aec:	00002d45 	.word	0x00002d45
    2af0:	00806024 	.word	0x00806024
    2af4:	000028e9 	.word	0x000028e9
    2af8:	000028ad 	.word	0x000028ad
    2afc:	00002969 	.word	0x00002969
    2b00:	00002b11 	.word	0x00002b11
    2b04:	00002b35 	.word	0x00002b35
    2b08:	00002be9 	.word	0x00002be9
    2b0c:	40000400 	.word	0x40000400

00002b10 <system_gclk_init>:
    2b10:	4b06      	ldr	r3, [pc, #24]	; (2b2c <system_gclk_init+0x1c>)
    2b12:	6999      	ldr	r1, [r3, #24]
    2b14:	2208      	movs	r2, #8
    2b16:	430a      	orrs	r2, r1
    2b18:	619a      	str	r2, [r3, #24]
    2b1a:	2201      	movs	r2, #1
    2b1c:	4b04      	ldr	r3, [pc, #16]	; (2b30 <system_gclk_init+0x20>)
    2b1e:	701a      	strb	r2, [r3, #0]
    2b20:	1c19      	adds	r1, r3, #0
    2b22:	780b      	ldrb	r3, [r1, #0]
    2b24:	4213      	tst	r3, r2
    2b26:	d1fc      	bne.n	2b22 <system_gclk_init+0x12>
    2b28:	4770      	bx	lr
    2b2a:	46c0      	nop			; (mov r8, r8)
    2b2c:	40000400 	.word	0x40000400
    2b30:	40000c00 	.word	0x40000c00

00002b34 <system_gclk_gen_set_config>:
    2b34:	b5f8      	push	{r3, r4, r5, r6, r7, lr}
    2b36:	1c06      	adds	r6, r0, #0
    2b38:	1c07      	adds	r7, r0, #0
    2b3a:	780d      	ldrb	r5, [r1, #0]
    2b3c:	022d      	lsls	r5, r5, #8
    2b3e:	4305      	orrs	r5, r0
    2b40:	784b      	ldrb	r3, [r1, #1]
    2b42:	2b00      	cmp	r3, #0
    2b44:	d002      	beq.n	2b4c <system_gclk_gen_set_config+0x18>
    2b46:	2380      	movs	r3, #128	; 0x80
    2b48:	02db      	lsls	r3, r3, #11
    2b4a:	431d      	orrs	r5, r3
    2b4c:	7a4b      	ldrb	r3, [r1, #9]
    2b4e:	2b00      	cmp	r3, #0
    2b50:	d002      	beq.n	2b58 <system_gclk_gen_set_config+0x24>
    2b52:	2380      	movs	r3, #128	; 0x80
    2b54:	031b      	lsls	r3, r3, #12
    2b56:	431d      	orrs	r5, r3
    2b58:	684c      	ldr	r4, [r1, #4]
    2b5a:	2c01      	cmp	r4, #1
    2b5c:	d917      	bls.n	2b8e <system_gclk_gen_set_config+0x5a>
    2b5e:	1e63      	subs	r3, r4, #1
    2b60:	421c      	tst	r4, r3
    2b62:	d10f      	bne.n	2b84 <system_gclk_gen_set_config+0x50>
    2b64:	2c02      	cmp	r4, #2
    2b66:	d906      	bls.n	2b76 <system_gclk_gen_set_config+0x42>
    2b68:	2302      	movs	r3, #2
    2b6a:	2200      	movs	r2, #0
    2b6c:	3201      	adds	r2, #1
    2b6e:	005b      	lsls	r3, r3, #1
    2b70:	429c      	cmp	r4, r3
    2b72:	d8fb      	bhi.n	2b6c <system_gclk_gen_set_config+0x38>
    2b74:	e000      	b.n	2b78 <system_gclk_gen_set_config+0x44>
    2b76:	2200      	movs	r2, #0
    2b78:	0217      	lsls	r7, r2, #8
    2b7a:	4337      	orrs	r7, r6
    2b7c:	2380      	movs	r3, #128	; 0x80
    2b7e:	035b      	lsls	r3, r3, #13
    2b80:	431d      	orrs	r5, r3
    2b82:	e004      	b.n	2b8e <system_gclk_gen_set_config+0x5a>
    2b84:	0227      	lsls	r7, r4, #8
    2b86:	4337      	orrs	r7, r6
    2b88:	2380      	movs	r3, #128	; 0x80
    2b8a:	029b      	lsls	r3, r3, #10
    2b8c:	431d      	orrs	r5, r3
    2b8e:	7a0b      	ldrb	r3, [r1, #8]
    2b90:	2b00      	cmp	r3, #0
    2b92:	d002      	beq.n	2b9a <system_gclk_gen_set_config+0x66>
    2b94:	2380      	movs	r3, #128	; 0x80
    2b96:	039b      	lsls	r3, r3, #14
    2b98:	431d      	orrs	r5, r3
    2b9a:	4a0f      	ldr	r2, [pc, #60]	; (2bd8 <system_gclk_gen_set_config+0xa4>)
    2b9c:	7853      	ldrb	r3, [r2, #1]
    2b9e:	b25b      	sxtb	r3, r3
    2ba0:	2b00      	cmp	r3, #0
    2ba2:	dbfb      	blt.n	2b9c <system_gclk_gen_set_config+0x68>
    2ba4:	4b0d      	ldr	r3, [pc, #52]	; (2bdc <system_gclk_gen_set_config+0xa8>)
    2ba6:	4798      	blx	r3
    2ba8:	4b0d      	ldr	r3, [pc, #52]	; (2be0 <system_gclk_gen_set_config+0xac>)
    2baa:	701e      	strb	r6, [r3, #0]
    2bac:	4a0a      	ldr	r2, [pc, #40]	; (2bd8 <system_gclk_gen_set_config+0xa4>)
    2bae:	7853      	ldrb	r3, [r2, #1]
    2bb0:	b25b      	sxtb	r3, r3
    2bb2:	2b00      	cmp	r3, #0
    2bb4:	dbfb      	blt.n	2bae <system_gclk_gen_set_config+0x7a>
    2bb6:	4b08      	ldr	r3, [pc, #32]	; (2bd8 <system_gclk_gen_set_config+0xa4>)
    2bb8:	609f      	str	r7, [r3, #8]
    2bba:	1c1a      	adds	r2, r3, #0
    2bbc:	7853      	ldrb	r3, [r2, #1]
    2bbe:	b25b      	sxtb	r3, r3
    2bc0:	2b00      	cmp	r3, #0
    2bc2:	dbfb      	blt.n	2bbc <system_gclk_gen_set_config+0x88>
    2bc4:	4b04      	ldr	r3, [pc, #16]	; (2bd8 <system_gclk_gen_set_config+0xa4>)
    2bc6:	6859      	ldr	r1, [r3, #4]
    2bc8:	2280      	movs	r2, #128	; 0x80
    2bca:	0252      	lsls	r2, r2, #9
    2bcc:	400a      	ands	r2, r1
    2bce:	4315      	orrs	r5, r2
    2bd0:	605d      	str	r5, [r3, #4]
    2bd2:	4b04      	ldr	r3, [pc, #16]	; (2be4 <system_gclk_gen_set_config+0xb0>)
    2bd4:	4798      	blx	r3
    2bd6:	bdf8      	pop	{r3, r4, r5, r6, r7, pc}
    2bd8:	40000c00 	.word	0x40000c00
    2bdc:	00002275 	.word	0x00002275
    2be0:	40000c08 	.word	0x40000c08
    2be4:	000022b5 	.word	0x000022b5

00002be8 <system_gclk_gen_enable>:
    2be8:	b510      	push	{r4, lr}
    2bea:	1c04      	adds	r4, r0, #0
    2bec:	4a0b      	ldr	r2, [pc, #44]	; (2c1c <system_gclk_gen_enable+0x34>)
    2bee:	7853      	ldrb	r3, [r2, #1]
    2bf0:	b25b      	sxtb	r3, r3
    2bf2:	2b00      	cmp	r3, #0
    2bf4:	dbfb      	blt.n	2bee <system_gclk_gen_enable+0x6>
    2bf6:	4b0a      	ldr	r3, [pc, #40]	; (2c20 <system_gclk_gen_enable+0x38>)
    2bf8:	4798      	blx	r3
    2bfa:	4b0a      	ldr	r3, [pc, #40]	; (2c24 <system_gclk_gen_enable+0x3c>)
    2bfc:	701c      	strb	r4, [r3, #0]
    2bfe:	4a07      	ldr	r2, [pc, #28]	; (2c1c <system_gclk_gen_enable+0x34>)
    2c00:	7853      	ldrb	r3, [r2, #1]
    2c02:	b25b      	sxtb	r3, r3
    2c04:	2b00      	cmp	r3, #0
    2c06:	dbfb      	blt.n	2c00 <system_gclk_gen_enable+0x18>
    2c08:	4b04      	ldr	r3, [pc, #16]	; (2c1c <system_gclk_gen_enable+0x34>)
    2c0a:	6859      	ldr	r1, [r3, #4]
    2c0c:	2280      	movs	r2, #128	; 0x80
    2c0e:	0252      	lsls	r2, r2, #9
    2c10:	430a      	orrs	r2, r1
    2c12:	605a      	str	r2, [r3, #4]
    2c14:	4b04      	ldr	r3, [pc, #16]	; (2c28 <system_gclk_gen_enable+0x40>)
    2c16:	4798      	blx	r3
    2c18:	bd10      	pop	{r4, pc}
    2c1a:	46c0      	nop			; (mov r8, r8)
    2c1c:	40000c00 	.word	0x40000c00
    2c20:	00002275 	.word	0x00002275
    2c24:	40000c04 	.word	0x40000c04
    2c28:	000022b5 	.word	0x000022b5

00002c2c <system_gclk_gen_get_hz>:
    2c2c:	b570      	push	{r4, r5, r6, lr}
    2c2e:	1c04      	adds	r4, r0, #0
    2c30:	4a1a      	ldr	r2, [pc, #104]	; (2c9c <system_gclk_gen_get_hz+0x70>)
    2c32:	7853      	ldrb	r3, [r2, #1]
    2c34:	b25b      	sxtb	r3, r3
    2c36:	2b00      	cmp	r3, #0
    2c38:	dbfb      	blt.n	2c32 <system_gclk_gen_get_hz+0x6>
    2c3a:	4b19      	ldr	r3, [pc, #100]	; (2ca0 <system_gclk_gen_get_hz+0x74>)
    2c3c:	4798      	blx	r3
    2c3e:	4b19      	ldr	r3, [pc, #100]	; (2ca4 <system_gclk_gen_get_hz+0x78>)
    2c40:	701c      	strb	r4, [r3, #0]
    2c42:	4a16      	ldr	r2, [pc, #88]	; (2c9c <system_gclk_gen_get_hz+0x70>)
    2c44:	7853      	ldrb	r3, [r2, #1]
    2c46:	b25b      	sxtb	r3, r3
    2c48:	2b00      	cmp	r3, #0
    2c4a:	dbfb      	blt.n	2c44 <system_gclk_gen_get_hz+0x18>
    2c4c:	4e13      	ldr	r6, [pc, #76]	; (2c9c <system_gclk_gen_get_hz+0x70>)
    2c4e:	6870      	ldr	r0, [r6, #4]
    2c50:	04c0      	lsls	r0, r0, #19
    2c52:	0ec0      	lsrs	r0, r0, #27
    2c54:	4b14      	ldr	r3, [pc, #80]	; (2ca8 <system_gclk_gen_get_hz+0x7c>)
    2c56:	4798      	blx	r3
    2c58:	1c05      	adds	r5, r0, #0
    2c5a:	4b12      	ldr	r3, [pc, #72]	; (2ca4 <system_gclk_gen_get_hz+0x78>)
    2c5c:	701c      	strb	r4, [r3, #0]
    2c5e:	6876      	ldr	r6, [r6, #4]
    2c60:	02f6      	lsls	r6, r6, #11
    2c62:	0ff6      	lsrs	r6, r6, #31
    2c64:	4b11      	ldr	r3, [pc, #68]	; (2cac <system_gclk_gen_get_hz+0x80>)
    2c66:	701c      	strb	r4, [r3, #0]
    2c68:	4a0c      	ldr	r2, [pc, #48]	; (2c9c <system_gclk_gen_get_hz+0x70>)
    2c6a:	7853      	ldrb	r3, [r2, #1]
    2c6c:	b25b      	sxtb	r3, r3
    2c6e:	2b00      	cmp	r3, #0
    2c70:	dbfb      	blt.n	2c6a <system_gclk_gen_get_hz+0x3e>
    2c72:	4b0a      	ldr	r3, [pc, #40]	; (2c9c <system_gclk_gen_get_hz+0x70>)
    2c74:	689c      	ldr	r4, [r3, #8]
    2c76:	0a24      	lsrs	r4, r4, #8
    2c78:	b2a4      	uxth	r4, r4
    2c7a:	4b0d      	ldr	r3, [pc, #52]	; (2cb0 <system_gclk_gen_get_hz+0x84>)
    2c7c:	4798      	blx	r3
    2c7e:	2e00      	cmp	r6, #0
    2c80:	d107      	bne.n	2c92 <system_gclk_gen_get_hz+0x66>
    2c82:	2c01      	cmp	r4, #1
    2c84:	d907      	bls.n	2c96 <system_gclk_gen_get_hz+0x6a>
    2c86:	1c28      	adds	r0, r5, #0
    2c88:	1c21      	adds	r1, r4, #0
    2c8a:	4b0a      	ldr	r3, [pc, #40]	; (2cb4 <system_gclk_gen_get_hz+0x88>)
    2c8c:	4798      	blx	r3
    2c8e:	1c05      	adds	r5, r0, #0
    2c90:	e001      	b.n	2c96 <system_gclk_gen_get_hz+0x6a>
    2c92:	3401      	adds	r4, #1
    2c94:	40e5      	lsrs	r5, r4
    2c96:	1c28      	adds	r0, r5, #0
    2c98:	bd70      	pop	{r4, r5, r6, pc}
    2c9a:	46c0      	nop			; (mov r8, r8)
    2c9c:	40000c00 	.word	0x40000c00
    2ca0:	00002275 	.word	0x00002275
    2ca4:	40000c04 	.word	0x40000c04
    2ca8:	0000281d 	.word	0x0000281d
    2cac:	40000c08 	.word	0x40000c08
    2cb0:	000022b5 	.word	0x000022b5
    2cb4:	0000693d 	.word	0x0000693d

00002cb8 <system_gclk_chan_enable>:
    2cb8:	b510      	push	{r4, lr}
    2cba:	1c04      	adds	r4, r0, #0
    2cbc:	4b06      	ldr	r3, [pc, #24]	; (2cd8 <system_gclk_chan_enable+0x20>)
    2cbe:	4798      	blx	r3
    2cc0:	4b06      	ldr	r3, [pc, #24]	; (2cdc <system_gclk_chan_enable+0x24>)
    2cc2:	701c      	strb	r4, [r3, #0]
    2cc4:	4b06      	ldr	r3, [pc, #24]	; (2ce0 <system_gclk_chan_enable+0x28>)
    2cc6:	8859      	ldrh	r1, [r3, #2]
    2cc8:	2280      	movs	r2, #128	; 0x80
    2cca:	01d2      	lsls	r2, r2, #7
    2ccc:	430a      	orrs	r2, r1
    2cce:	805a      	strh	r2, [r3, #2]
    2cd0:	4b04      	ldr	r3, [pc, #16]	; (2ce4 <system_gclk_chan_enable+0x2c>)
    2cd2:	4798      	blx	r3
    2cd4:	bd10      	pop	{r4, pc}
    2cd6:	46c0      	nop			; (mov r8, r8)
    2cd8:	00002275 	.word	0x00002275
    2cdc:	40000c02 	.word	0x40000c02
    2ce0:	40000c00 	.word	0x40000c00
    2ce4:	000022b5 	.word	0x000022b5

00002ce8 <system_gclk_chan_disable>:
    2ce8:	b510      	push	{r4, lr}
    2cea:	1c04      	adds	r4, r0, #0
    2cec:	4b0f      	ldr	r3, [pc, #60]	; (2d2c <system_gclk_chan_disable+0x44>)
    2cee:	4798      	blx	r3
    2cf0:	4b0f      	ldr	r3, [pc, #60]	; (2d30 <system_gclk_chan_disable+0x48>)
    2cf2:	701c      	strb	r4, [r3, #0]
    2cf4:	4b0f      	ldr	r3, [pc, #60]	; (2d34 <system_gclk_chan_disable+0x4c>)
    2cf6:	8858      	ldrh	r0, [r3, #2]
    2cf8:	0500      	lsls	r0, r0, #20
    2cfa:	0f00      	lsrs	r0, r0, #28
    2cfc:	8859      	ldrh	r1, [r3, #2]
    2cfe:	4a0e      	ldr	r2, [pc, #56]	; (2d38 <system_gclk_chan_disable+0x50>)
    2d00:	400a      	ands	r2, r1
    2d02:	805a      	strh	r2, [r3, #2]
    2d04:	8859      	ldrh	r1, [r3, #2]
    2d06:	4a0d      	ldr	r2, [pc, #52]	; (2d3c <system_gclk_chan_disable+0x54>)
    2d08:	400a      	ands	r2, r1
    2d0a:	805a      	strh	r2, [r3, #2]
    2d0c:	1c19      	adds	r1, r3, #0
    2d0e:	2280      	movs	r2, #128	; 0x80
    2d10:	01d2      	lsls	r2, r2, #7
    2d12:	884b      	ldrh	r3, [r1, #2]
    2d14:	4213      	tst	r3, r2
    2d16:	d1fc      	bne.n	2d12 <system_gclk_chan_disable+0x2a>
    2d18:	4b06      	ldr	r3, [pc, #24]	; (2d34 <system_gclk_chan_disable+0x4c>)
    2d1a:	0201      	lsls	r1, r0, #8
    2d1c:	8858      	ldrh	r0, [r3, #2]
    2d1e:	4a06      	ldr	r2, [pc, #24]	; (2d38 <system_gclk_chan_disable+0x50>)
    2d20:	4002      	ands	r2, r0
    2d22:	430a      	orrs	r2, r1
    2d24:	805a      	strh	r2, [r3, #2]
    2d26:	4b06      	ldr	r3, [pc, #24]	; (2d40 <system_gclk_chan_disable+0x58>)
    2d28:	4798      	blx	r3
    2d2a:	bd10      	pop	{r4, pc}
    2d2c:	00002275 	.word	0x00002275
    2d30:	40000c02 	.word	0x40000c02
    2d34:	40000c00 	.word	0x40000c00
    2d38:	fffff0ff 	.word	0xfffff0ff
    2d3c:	ffffbfff 	.word	0xffffbfff
    2d40:	000022b5 	.word	0x000022b5

00002d44 <system_gclk_chan_set_config>:
    2d44:	b510      	push	{r4, lr}
    2d46:	780c      	ldrb	r4, [r1, #0]
    2d48:	0224      	lsls	r4, r4, #8
    2d4a:	4304      	orrs	r4, r0
    2d4c:	4b02      	ldr	r3, [pc, #8]	; (2d58 <system_gclk_chan_set_config+0x14>)
    2d4e:	4798      	blx	r3
    2d50:	b2a4      	uxth	r4, r4
    2d52:	4b02      	ldr	r3, [pc, #8]	; (2d5c <system_gclk_chan_set_config+0x18>)
    2d54:	805c      	strh	r4, [r3, #2]
    2d56:	bd10      	pop	{r4, pc}
    2d58:	00002ce9 	.word	0x00002ce9
    2d5c:	40000c00 	.word	0x40000c00

00002d60 <system_gclk_chan_get_hz>:
    2d60:	b510      	push	{r4, lr}
    2d62:	1c04      	adds	r4, r0, #0
    2d64:	4b06      	ldr	r3, [pc, #24]	; (2d80 <system_gclk_chan_get_hz+0x20>)
    2d66:	4798      	blx	r3
    2d68:	4b06      	ldr	r3, [pc, #24]	; (2d84 <system_gclk_chan_get_hz+0x24>)
    2d6a:	701c      	strb	r4, [r3, #0]
    2d6c:	4b06      	ldr	r3, [pc, #24]	; (2d88 <system_gclk_chan_get_hz+0x28>)
    2d6e:	885c      	ldrh	r4, [r3, #2]
    2d70:	0524      	lsls	r4, r4, #20
    2d72:	0f24      	lsrs	r4, r4, #28
    2d74:	4b05      	ldr	r3, [pc, #20]	; (2d8c <system_gclk_chan_get_hz+0x2c>)
    2d76:	4798      	blx	r3
    2d78:	1c20      	adds	r0, r4, #0
    2d7a:	4b05      	ldr	r3, [pc, #20]	; (2d90 <system_gclk_chan_get_hz+0x30>)
    2d7c:	4798      	blx	r3
    2d7e:	bd10      	pop	{r4, pc}
    2d80:	00002275 	.word	0x00002275
    2d84:	40000c02 	.word	0x40000c02
    2d88:	40000c00 	.word	0x40000c00
    2d8c:	000022b5 	.word	0x000022b5
    2d90:	00002c2d 	.word	0x00002c2d

00002d94 <_system_pinmux_config>:
    2d94:	b530      	push	{r4, r5, lr}
    2d96:	78d3      	ldrb	r3, [r2, #3]
    2d98:	2b00      	cmp	r3, #0
    2d9a:	d11e      	bne.n	2dda <_system_pinmux_config+0x46>
    2d9c:	7813      	ldrb	r3, [r2, #0]
    2d9e:	2b80      	cmp	r3, #128	; 0x80
    2da0:	d004      	beq.n	2dac <_system_pinmux_config+0x18>
    2da2:	061b      	lsls	r3, r3, #24
    2da4:	2480      	movs	r4, #128	; 0x80
    2da6:	0264      	lsls	r4, r4, #9
    2da8:	4323      	orrs	r3, r4
    2daa:	e000      	b.n	2dae <_system_pinmux_config+0x1a>
    2dac:	2300      	movs	r3, #0
    2dae:	7854      	ldrb	r4, [r2, #1]
    2db0:	2502      	movs	r5, #2
    2db2:	43ac      	bics	r4, r5
    2db4:	d10a      	bne.n	2dcc <_system_pinmux_config+0x38>
    2db6:	7894      	ldrb	r4, [r2, #2]
    2db8:	2c00      	cmp	r4, #0
    2dba:	d103      	bne.n	2dc4 <_system_pinmux_config+0x30>
    2dbc:	2480      	movs	r4, #128	; 0x80
    2dbe:	02a4      	lsls	r4, r4, #10
    2dc0:	4323      	orrs	r3, r4
    2dc2:	e002      	b.n	2dca <_system_pinmux_config+0x36>
    2dc4:	24c0      	movs	r4, #192	; 0xc0
    2dc6:	02e4      	lsls	r4, r4, #11
    2dc8:	4323      	orrs	r3, r4
    2dca:	6041      	str	r1, [r0, #4]
    2dcc:	7854      	ldrb	r4, [r2, #1]
    2dce:	3c01      	subs	r4, #1
    2dd0:	2c01      	cmp	r4, #1
    2dd2:	d804      	bhi.n	2dde <_system_pinmux_config+0x4a>
    2dd4:	4c11      	ldr	r4, [pc, #68]	; (2e1c <_system_pinmux_config+0x88>)
    2dd6:	4023      	ands	r3, r4
    2dd8:	e001      	b.n	2dde <_system_pinmux_config+0x4a>
    2dda:	6041      	str	r1, [r0, #4]
    2ddc:	2300      	movs	r3, #0
    2dde:	040d      	lsls	r5, r1, #16
    2de0:	0c2d      	lsrs	r5, r5, #16
    2de2:	24a0      	movs	r4, #160	; 0xa0
    2de4:	05e4      	lsls	r4, r4, #23
    2de6:	432c      	orrs	r4, r5
    2de8:	431c      	orrs	r4, r3
    2dea:	6284      	str	r4, [r0, #40]	; 0x28
    2dec:	0c0d      	lsrs	r5, r1, #16
    2dee:	24d0      	movs	r4, #208	; 0xd0
    2df0:	0624      	lsls	r4, r4, #24
    2df2:	432c      	orrs	r4, r5
    2df4:	431c      	orrs	r4, r3
    2df6:	6284      	str	r4, [r0, #40]	; 0x28
    2df8:	78d4      	ldrb	r4, [r2, #3]
    2dfa:	2c00      	cmp	r4, #0
    2dfc:	d10c      	bne.n	2e18 <_system_pinmux_config+0x84>
    2dfe:	035c      	lsls	r4, r3, #13
    2e00:	d505      	bpl.n	2e0e <_system_pinmux_config+0x7a>
    2e02:	7893      	ldrb	r3, [r2, #2]
    2e04:	2b01      	cmp	r3, #1
    2e06:	d101      	bne.n	2e0c <_system_pinmux_config+0x78>
    2e08:	6181      	str	r1, [r0, #24]
    2e0a:	e000      	b.n	2e0e <_system_pinmux_config+0x7a>
    2e0c:	6141      	str	r1, [r0, #20]
    2e0e:	7853      	ldrb	r3, [r2, #1]
    2e10:	3b01      	subs	r3, #1
    2e12:	2b01      	cmp	r3, #1
    2e14:	d800      	bhi.n	2e18 <_system_pinmux_config+0x84>
    2e16:	6081      	str	r1, [r0, #8]
    2e18:	bd30      	pop	{r4, r5, pc}
    2e1a:	46c0      	nop			; (mov r8, r8)
    2e1c:	fffbffff 	.word	0xfffbffff

00002e20 <system_pinmux_pin_set_config>:
    2e20:	b508      	push	{r3, lr}
    2e22:	1c03      	adds	r3, r0, #0
    2e24:	1c0a      	adds	r2, r1, #0
    2e26:	09c1      	lsrs	r1, r0, #7
    2e28:	2000      	movs	r0, #0
    2e2a:	2900      	cmp	r1, #0
    2e2c:	d103      	bne.n	2e36 <system_pinmux_pin_set_config+0x16>
    2e2e:	0958      	lsrs	r0, r3, #5
    2e30:	01c0      	lsls	r0, r0, #7
    2e32:	4904      	ldr	r1, [pc, #16]	; (2e44 <system_pinmux_pin_set_config+0x24>)
    2e34:	1840      	adds	r0, r0, r1
    2e36:	211f      	movs	r1, #31
    2e38:	400b      	ands	r3, r1
    2e3a:	2101      	movs	r1, #1
    2e3c:	4099      	lsls	r1, r3
    2e3e:	4b02      	ldr	r3, [pc, #8]	; (2e48 <system_pinmux_pin_set_config+0x28>)
    2e40:	4798      	blx	r3
    2e42:	bd08      	pop	{r3, pc}
    2e44:	41004400 	.word	0x41004400
    2e48:	00002d95 	.word	0x00002d95

00002e4c <_system_dummy_init>:
    2e4c:	4770      	bx	lr
    2e4e:	46c0      	nop			; (mov r8, r8)

00002e50 <system_init>:
    2e50:	b508      	push	{r3, lr}
    2e52:	4b05      	ldr	r3, [pc, #20]	; (2e68 <system_init+0x18>)
    2e54:	4798      	blx	r3
    2e56:	4b05      	ldr	r3, [pc, #20]	; (2e6c <system_init+0x1c>)
    2e58:	4798      	blx	r3
    2e5a:	4b05      	ldr	r3, [pc, #20]	; (2e70 <system_init+0x20>)
    2e5c:	4798      	blx	r3
    2e5e:	4b05      	ldr	r3, [pc, #20]	; (2e74 <system_init+0x24>)
    2e60:	4798      	blx	r3
    2e62:	4b05      	ldr	r3, [pc, #20]	; (2e78 <system_init+0x28>)
    2e64:	4798      	blx	r3
    2e66:	bd08      	pop	{r3, pc}
    2e68:	00002a11 	.word	0x00002a11
    2e6c:	00002271 	.word	0x00002271
    2e70:	00002e4d 	.word	0x00002e4d
    2e74:	00002e4d 	.word	0x00002e4d
    2e78:	00002e4d 	.word	0x00002e4d

00002e7c <_tc_get_inst_index>:
    2e7c:	b570      	push	{r4, r5, r6, lr}
    2e7e:	b084      	sub	sp, #16
    2e80:	1c01      	adds	r1, r0, #0
    2e82:	ab01      	add	r3, sp, #4
    2e84:	4a0a      	ldr	r2, [pc, #40]	; (2eb0 <_tc_get_inst_index+0x34>)
    2e86:	ca70      	ldmia	r2!, {r4, r5, r6}
    2e88:	c370      	stmia	r3!, {r4, r5, r6}
    2e8a:	9b01      	ldr	r3, [sp, #4]
    2e8c:	4283      	cmp	r3, r0
    2e8e:	d00a      	beq.n	2ea6 <_tc_get_inst_index+0x2a>
    2e90:	9c02      	ldr	r4, [sp, #8]
    2e92:	4284      	cmp	r4, r0
    2e94:	d005      	beq.n	2ea2 <_tc_get_inst_index+0x26>
    2e96:	2000      	movs	r0, #0
    2e98:	9d03      	ldr	r5, [sp, #12]
    2e9a:	428d      	cmp	r5, r1
    2e9c:	d105      	bne.n	2eaa <_tc_get_inst_index+0x2e>
    2e9e:	2002      	movs	r0, #2
    2ea0:	e002      	b.n	2ea8 <_tc_get_inst_index+0x2c>
    2ea2:	2001      	movs	r0, #1
    2ea4:	e000      	b.n	2ea8 <_tc_get_inst_index+0x2c>
    2ea6:	2000      	movs	r0, #0
    2ea8:	b2c0      	uxtb	r0, r0
    2eaa:	b004      	add	sp, #16
    2eac:	bd70      	pop	{r4, r5, r6, pc}
    2eae:	46c0      	nop			; (mov r8, r8)
    2eb0:	00009c34 	.word	0x00009c34

00002eb4 <tc_init>:
    2eb4:	b5f0      	push	{r4, r5, r6, r7, lr}
    2eb6:	464f      	mov	r7, r9
    2eb8:	4646      	mov	r6, r8
    2eba:	b4c0      	push	{r6, r7}
    2ebc:	b087      	sub	sp, #28
    2ebe:	1c04      	adds	r4, r0, #0
    2ec0:	1c0d      	adds	r5, r1, #0
    2ec2:	4690      	mov	r8, r2
    2ec4:	1c08      	adds	r0, r1, #0
    2ec6:	4b90      	ldr	r3, [pc, #576]	; (3108 <tc_init+0x254>)
    2ec8:	4798      	blx	r3
    2eca:	4681      	mov	r9, r0
    2ecc:	4f8f      	ldr	r7, [pc, #572]	; (310c <tc_init+0x258>)
    2ece:	1c39      	adds	r1, r7, #0
    2ed0:	310c      	adds	r1, #12
    2ed2:	a805      	add	r0, sp, #20
    2ed4:	2203      	movs	r2, #3
    2ed6:	4e8e      	ldr	r6, [pc, #568]	; (3110 <tc_init+0x25c>)
    2ed8:	47b0      	blx	r6
    2eda:	1c39      	adds	r1, r7, #0
    2edc:	3110      	adds	r1, #16
    2ede:	a803      	add	r0, sp, #12
    2ee0:	2206      	movs	r2, #6
    2ee2:	47b0      	blx	r6
    2ee4:	2300      	movs	r3, #0
    2ee6:	60a3      	str	r3, [r4, #8]
    2ee8:	60e3      	str	r3, [r4, #12]
    2eea:	6123      	str	r3, [r4, #16]
    2eec:	6163      	str	r3, [r4, #20]
    2eee:	7623      	strb	r3, [r4, #24]
    2ef0:	7663      	strb	r3, [r4, #25]
    2ef2:	4648      	mov	r0, r9
    2ef4:	0082      	lsls	r2, r0, #2
    2ef6:	4b87      	ldr	r3, [pc, #540]	; (3114 <tc_init+0x260>)
    2ef8:	50d4      	str	r4, [r2, r3]
    2efa:	6025      	str	r5, [r4, #0]
    2efc:	4641      	mov	r1, r8
    2efe:	788b      	ldrb	r3, [r1, #2]
    2f00:	2b08      	cmp	r3, #8
    2f02:	d104      	bne.n	2f0e <tc_init+0x5a>
    2f04:	2017      	movs	r0, #23
    2f06:	464a      	mov	r2, r9
    2f08:	07d2      	lsls	r2, r2, #31
    2f0a:	d400      	bmi.n	2f0e <tc_init+0x5a>
    2f0c:	e0f6      	b.n	30fc <tc_init+0x248>
    2f0e:	7123      	strb	r3, [r4, #4]
    2f10:	882b      	ldrh	r3, [r5, #0]
    2f12:	2005      	movs	r0, #5
    2f14:	07d9      	lsls	r1, r3, #31
    2f16:	d500      	bpl.n	2f1a <tc_init+0x66>
    2f18:	e0f0      	b.n	30fc <tc_init+0x248>
    2f1a:	7beb      	ldrb	r3, [r5, #15]
    2f1c:	201c      	movs	r0, #28
    2f1e:	06da      	lsls	r2, r3, #27
    2f20:	d500      	bpl.n	2f24 <tc_init+0x70>
    2f22:	e0eb      	b.n	30fc <tc_init+0x248>
    2f24:	882b      	ldrh	r3, [r5, #0]
    2f26:	0799      	lsls	r1, r3, #30
    2f28:	d500      	bpl.n	2f2c <tc_init+0x78>
    2f2a:	e0e7      	b.n	30fc <tc_init+0x248>
    2f2c:	4642      	mov	r2, r8
    2f2e:	7c13      	ldrb	r3, [r2, #16]
    2f30:	2b00      	cmp	r3, #0
    2f32:	d00c      	beq.n	2f4e <tc_init+0x9a>
    2f34:	a902      	add	r1, sp, #8
    2f36:	2301      	movs	r3, #1
    2f38:	708b      	strb	r3, [r1, #2]
    2f3a:	2200      	movs	r2, #0
    2f3c:	70ca      	strb	r2, [r1, #3]
    2f3e:	4640      	mov	r0, r8
    2f40:	6980      	ldr	r0, [r0, #24]
    2f42:	7008      	strb	r0, [r1, #0]
    2f44:	704b      	strb	r3, [r1, #1]
    2f46:	4642      	mov	r2, r8
    2f48:	7d10      	ldrb	r0, [r2, #20]
    2f4a:	4b73      	ldr	r3, [pc, #460]	; (3118 <tc_init+0x264>)
    2f4c:	4798      	blx	r3
    2f4e:	4640      	mov	r0, r8
    2f50:	7f03      	ldrb	r3, [r0, #28]
    2f52:	2b00      	cmp	r3, #0
    2f54:	d00b      	beq.n	2f6e <tc_init+0xba>
    2f56:	a902      	add	r1, sp, #8
    2f58:	2301      	movs	r3, #1
    2f5a:	708b      	strb	r3, [r1, #2]
    2f5c:	2200      	movs	r2, #0
    2f5e:	70ca      	strb	r2, [r1, #3]
    2f60:	6a42      	ldr	r2, [r0, #36]	; 0x24
    2f62:	700a      	strb	r2, [r1, #0]
    2f64:	704b      	strb	r3, [r1, #1]
    2f66:	6a03      	ldr	r3, [r0, #32]
    2f68:	b2d8      	uxtb	r0, r3
    2f6a:	4b6b      	ldr	r3, [pc, #428]	; (3118 <tc_init+0x264>)
    2f6c:	4798      	blx	r3
    2f6e:	4b6b      	ldr	r3, [pc, #428]	; (311c <tc_init+0x268>)
    2f70:	6a19      	ldr	r1, [r3, #32]
    2f72:	4648      	mov	r0, r9
    2f74:	0042      	lsls	r2, r0, #1
    2f76:	a803      	add	r0, sp, #12
    2f78:	5a12      	ldrh	r2, [r2, r0]
    2f7a:	430a      	orrs	r2, r1
    2f7c:	621a      	str	r2, [r3, #32]
    2f7e:	4641      	mov	r1, r8
    2f80:	788b      	ldrb	r3, [r1, #2]
    2f82:	2b08      	cmp	r3, #8
    2f84:	d108      	bne.n	2f98 <tc_init+0xe4>
    2f86:	4b65      	ldr	r3, [pc, #404]	; (311c <tc_init+0x268>)
    2f88:	6a1a      	ldr	r2, [r3, #32]
    2f8a:	4648      	mov	r0, r9
    2f8c:	3001      	adds	r0, #1
    2f8e:	0040      	lsls	r0, r0, #1
    2f90:	a903      	add	r1, sp, #12
    2f92:	5a41      	ldrh	r1, [r0, r1]
    2f94:	430a      	orrs	r2, r1
    2f96:	621a      	str	r2, [r3, #32]
    2f98:	a901      	add	r1, sp, #4
    2f9a:	4642      	mov	r2, r8
    2f9c:	7813      	ldrb	r3, [r2, #0]
    2f9e:	700b      	strb	r3, [r1, #0]
    2fa0:	ab05      	add	r3, sp, #20
    2fa2:	4648      	mov	r0, r9
    2fa4:	5c1e      	ldrb	r6, [r3, r0]
    2fa6:	1c30      	adds	r0, r6, #0
    2fa8:	4b5d      	ldr	r3, [pc, #372]	; (3120 <tc_init+0x26c>)
    2faa:	4798      	blx	r3
    2fac:	1c30      	adds	r0, r6, #0
    2fae:	4b5d      	ldr	r3, [pc, #372]	; (3124 <tc_init+0x270>)
    2fb0:	4798      	blx	r3
    2fb2:	4641      	mov	r1, r8
    2fb4:	8888      	ldrh	r0, [r1, #4]
    2fb6:	890b      	ldrh	r3, [r1, #8]
    2fb8:	4303      	orrs	r3, r0
    2fba:	7988      	ldrb	r0, [r1, #6]
    2fbc:	788a      	ldrb	r2, [r1, #2]
    2fbe:	4310      	orrs	r0, r2
    2fc0:	4318      	orrs	r0, r3
    2fc2:	784b      	ldrb	r3, [r1, #1]
    2fc4:	2b00      	cmp	r3, #0
    2fc6:	d002      	beq.n	2fce <tc_init+0x11a>
    2fc8:	2380      	movs	r3, #128	; 0x80
    2fca:	011b      	lsls	r3, r3, #4
    2fcc:	4318      	orrs	r0, r3
    2fce:	6821      	ldr	r1, [r4, #0]
    2fd0:	227f      	movs	r2, #127	; 0x7f
    2fd2:	7bcb      	ldrb	r3, [r1, #15]
    2fd4:	4393      	bics	r3, r2
    2fd6:	d1fc      	bne.n	2fd2 <tc_init+0x11e>
    2fd8:	8028      	strh	r0, [r5, #0]
    2fda:	4642      	mov	r2, r8
    2fdc:	7b50      	ldrb	r0, [r2, #13]
    2fde:	1e43      	subs	r3, r0, #1
    2fe0:	4198      	sbcs	r0, r3
    2fe2:	0080      	lsls	r0, r0, #2
    2fe4:	7b93      	ldrb	r3, [r2, #14]
    2fe6:	2b00      	cmp	r3, #0
    2fe8:	d001      	beq.n	2fee <tc_init+0x13a>
    2fea:	2301      	movs	r3, #1
    2fec:	4318      	orrs	r0, r3
    2fee:	6821      	ldr	r1, [r4, #0]
    2ff0:	227f      	movs	r2, #127	; 0x7f
    2ff2:	7bcb      	ldrb	r3, [r1, #15]
    2ff4:	4393      	bics	r3, r2
    2ff6:	d1fc      	bne.n	2ff2 <tc_init+0x13e>
    2ff8:	23ff      	movs	r3, #255	; 0xff
    2ffa:	712b      	strb	r3, [r5, #4]
    2ffc:	2800      	cmp	r0, #0
    2ffe:	d005      	beq.n	300c <tc_init+0x158>
    3000:	6821      	ldr	r1, [r4, #0]
    3002:	227f      	movs	r2, #127	; 0x7f
    3004:	7bcb      	ldrb	r3, [r1, #15]
    3006:	4393      	bics	r3, r2
    3008:	d1fc      	bne.n	3004 <tc_init+0x150>
    300a:	7168      	strb	r0, [r5, #5]
    300c:	4643      	mov	r3, r8
    300e:	7a98      	ldrb	r0, [r3, #10]
    3010:	7adb      	ldrb	r3, [r3, #11]
    3012:	2b00      	cmp	r3, #0
    3014:	d001      	beq.n	301a <tc_init+0x166>
    3016:	2310      	movs	r3, #16
    3018:	4318      	orrs	r0, r3
    301a:	4641      	mov	r1, r8
    301c:	7b0b      	ldrb	r3, [r1, #12]
    301e:	2b00      	cmp	r3, #0
    3020:	d001      	beq.n	3026 <tc_init+0x172>
    3022:	2320      	movs	r3, #32
    3024:	4318      	orrs	r0, r3
    3026:	6821      	ldr	r1, [r4, #0]
    3028:	227f      	movs	r2, #127	; 0x7f
    302a:	7bcb      	ldrb	r3, [r1, #15]
    302c:	4393      	bics	r3, r2
    302e:	d1fc      	bne.n	302a <tc_init+0x176>
    3030:	71a8      	strb	r0, [r5, #6]
    3032:	6822      	ldr	r2, [r4, #0]
    3034:	217f      	movs	r1, #127	; 0x7f
    3036:	7bd3      	ldrb	r3, [r2, #15]
    3038:	438b      	bics	r3, r1
    303a:	d1fc      	bne.n	3036 <tc_init+0x182>
    303c:	7923      	ldrb	r3, [r4, #4]
    303e:	2b04      	cmp	r3, #4
    3040:	d005      	beq.n	304e <tc_init+0x19a>
    3042:	2b08      	cmp	r3, #8
    3044:	d041      	beq.n	30ca <tc_init+0x216>
    3046:	2017      	movs	r0, #23
    3048:	2b00      	cmp	r3, #0
    304a:	d157      	bne.n	30fc <tc_init+0x248>
    304c:	e024      	b.n	3098 <tc_init+0x1e4>
    304e:	217f      	movs	r1, #127	; 0x7f
    3050:	7bd3      	ldrb	r3, [r2, #15]
    3052:	438b      	bics	r3, r1
    3054:	d1fc      	bne.n	3050 <tc_init+0x19c>
    3056:	2328      	movs	r3, #40	; 0x28
    3058:	4642      	mov	r2, r8
    305a:	5cd3      	ldrb	r3, [r2, r3]
    305c:	742b      	strb	r3, [r5, #16]
    305e:	6821      	ldr	r1, [r4, #0]
    3060:	227f      	movs	r2, #127	; 0x7f
    3062:	7bcb      	ldrb	r3, [r1, #15]
    3064:	4393      	bics	r3, r2
    3066:	d1fc      	bne.n	3062 <tc_init+0x1ae>
    3068:	2329      	movs	r3, #41	; 0x29
    306a:	4640      	mov	r0, r8
    306c:	5cc3      	ldrb	r3, [r0, r3]
    306e:	752b      	strb	r3, [r5, #20]
    3070:	6821      	ldr	r1, [r4, #0]
    3072:	227f      	movs	r2, #127	; 0x7f
    3074:	7bcb      	ldrb	r3, [r1, #15]
    3076:	4393      	bics	r3, r2
    3078:	d1fc      	bne.n	3074 <tc_init+0x1c0>
    307a:	232a      	movs	r3, #42	; 0x2a
    307c:	4641      	mov	r1, r8
    307e:	5ccb      	ldrb	r3, [r1, r3]
    3080:	762b      	strb	r3, [r5, #24]
    3082:	6821      	ldr	r1, [r4, #0]
    3084:	227f      	movs	r2, #127	; 0x7f
    3086:	7bcb      	ldrb	r3, [r1, #15]
    3088:	4393      	bics	r3, r2
    308a:	d1fc      	bne.n	3086 <tc_init+0x1d2>
    308c:	232b      	movs	r3, #43	; 0x2b
    308e:	4642      	mov	r2, r8
    3090:	5cd3      	ldrb	r3, [r2, r3]
    3092:	766b      	strb	r3, [r5, #25]
    3094:	2000      	movs	r0, #0
    3096:	e031      	b.n	30fc <tc_init+0x248>
    3098:	217f      	movs	r1, #127	; 0x7f
    309a:	7bd3      	ldrb	r3, [r2, #15]
    309c:	438b      	bics	r3, r1
    309e:	d1fc      	bne.n	309a <tc_init+0x1e6>
    30a0:	4640      	mov	r0, r8
    30a2:	8d03      	ldrh	r3, [r0, #40]	; 0x28
    30a4:	822b      	strh	r3, [r5, #16]
    30a6:	6821      	ldr	r1, [r4, #0]
    30a8:	227f      	movs	r2, #127	; 0x7f
    30aa:	7bcb      	ldrb	r3, [r1, #15]
    30ac:	4393      	bics	r3, r2
    30ae:	d1fc      	bne.n	30aa <tc_init+0x1f6>
    30b0:	4641      	mov	r1, r8
    30b2:	8d4b      	ldrh	r3, [r1, #42]	; 0x2a
    30b4:	832b      	strh	r3, [r5, #24]
    30b6:	6821      	ldr	r1, [r4, #0]
    30b8:	227f      	movs	r2, #127	; 0x7f
    30ba:	7bcb      	ldrb	r3, [r1, #15]
    30bc:	4393      	bics	r3, r2
    30be:	d1fc      	bne.n	30ba <tc_init+0x206>
    30c0:	4642      	mov	r2, r8
    30c2:	8d93      	ldrh	r3, [r2, #44]	; 0x2c
    30c4:	836b      	strh	r3, [r5, #26]
    30c6:	2000      	movs	r0, #0
    30c8:	e018      	b.n	30fc <tc_init+0x248>
    30ca:	217f      	movs	r1, #127	; 0x7f
    30cc:	7bd3      	ldrb	r3, [r2, #15]
    30ce:	438b      	bics	r3, r1
    30d0:	d1fc      	bne.n	30cc <tc_init+0x218>
    30d2:	4643      	mov	r3, r8
    30d4:	6a9b      	ldr	r3, [r3, #40]	; 0x28
    30d6:	612b      	str	r3, [r5, #16]
    30d8:	6821      	ldr	r1, [r4, #0]
    30da:	227f      	movs	r2, #127	; 0x7f
    30dc:	7bcb      	ldrb	r3, [r1, #15]
    30de:	4393      	bics	r3, r2
    30e0:	d1fc      	bne.n	30dc <tc_init+0x228>
    30e2:	4640      	mov	r0, r8
    30e4:	6ac0      	ldr	r0, [r0, #44]	; 0x2c
    30e6:	61a8      	str	r0, [r5, #24]
    30e8:	6821      	ldr	r1, [r4, #0]
    30ea:	227f      	movs	r2, #127	; 0x7f
    30ec:	7bcb      	ldrb	r3, [r1, #15]
    30ee:	4393      	bics	r3, r2
    30f0:	d1fc      	bne.n	30ec <tc_init+0x238>
    30f2:	4641      	mov	r1, r8
    30f4:	6b0b      	ldr	r3, [r1, #48]	; 0x30
    30f6:	61eb      	str	r3, [r5, #28]
    30f8:	2000      	movs	r0, #0
    30fa:	e7ff      	b.n	30fc <tc_init+0x248>
    30fc:	b007      	add	sp, #28
    30fe:	bc0c      	pop	{r2, r3}
    3100:	4690      	mov	r8, r2
    3102:	4699      	mov	r9, r3
    3104:	bdf0      	pop	{r4, r5, r6, r7, pc}
    3106:	46c0      	nop			; (mov r8, r8)
    3108:	00002e7d 	.word	0x00002e7d
    310c:	00009c34 	.word	0x00009c34
    3110:	00004199 	.word	0x00004199
    3114:	200002d8 	.word	0x200002d8
    3118:	00002e21 	.word	0x00002e21
    311c:	40000400 	.word	0x40000400
    3120:	00002d45 	.word	0x00002d45
    3124:	00002cb9 	.word	0x00002cb9

00003128 <tc_set_top_value>:
    3128:	b510      	push	{r4, lr}
    312a:	6802      	ldr	r2, [r0, #0]
    312c:	247f      	movs	r4, #127	; 0x7f
    312e:	7bd3      	ldrb	r3, [r2, #15]
    3130:	43a3      	bics	r3, r4
    3132:	d1fc      	bne.n	312e <tc_set_top_value+0x6>
    3134:	7903      	ldrb	r3, [r0, #4]
    3136:	2b04      	cmp	r3, #4
    3138:	d005      	beq.n	3146 <tc_set_top_value+0x1e>
    313a:	2b08      	cmp	r3, #8
    313c:	d00b      	beq.n	3156 <tc_set_top_value+0x2e>
    313e:	2017      	movs	r0, #23
    3140:	2b00      	cmp	r3, #0
    3142:	d10b      	bne.n	315c <tc_set_top_value+0x34>
    3144:	e003      	b.n	314e <tc_set_top_value+0x26>
    3146:	b2c9      	uxtb	r1, r1
    3148:	7511      	strb	r1, [r2, #20]
    314a:	2000      	movs	r0, #0
    314c:	e006      	b.n	315c <tc_set_top_value+0x34>
    314e:	b289      	uxth	r1, r1
    3150:	8311      	strh	r1, [r2, #24]
    3152:	2000      	movs	r0, #0
    3154:	e002      	b.n	315c <tc_set_top_value+0x34>
    3156:	6191      	str	r1, [r2, #24]
    3158:	2000      	movs	r0, #0
    315a:	e7ff      	b.n	315c <tc_set_top_value+0x34>
    315c:	bd10      	pop	{r4, pc}
    315e:	46c0      	nop			; (mov r8, r8)

00003160 <tc_register_callback>:
    3160:	1c93      	adds	r3, r2, #2
    3162:	009b      	lsls	r3, r3, #2
    3164:	5019      	str	r1, [r3, r0]
    3166:	2a02      	cmp	r2, #2
    3168:	d104      	bne.n	3174 <tc_register_callback+0x14>
    316a:	7e02      	ldrb	r2, [r0, #24]
    316c:	2310      	movs	r3, #16
    316e:	4313      	orrs	r3, r2
    3170:	7603      	strb	r3, [r0, #24]
    3172:	e00c      	b.n	318e <tc_register_callback+0x2e>
    3174:	2a03      	cmp	r2, #3
    3176:	d104      	bne.n	3182 <tc_register_callback+0x22>
    3178:	7e02      	ldrb	r2, [r0, #24]
    317a:	2320      	movs	r3, #32
    317c:	4313      	orrs	r3, r2
    317e:	7603      	strb	r3, [r0, #24]
    3180:	e005      	b.n	318e <tc_register_callback+0x2e>
    3182:	2301      	movs	r3, #1
    3184:	4093      	lsls	r3, r2
    3186:	1c1a      	adds	r2, r3, #0
    3188:	7e03      	ldrb	r3, [r0, #24]
    318a:	431a      	orrs	r2, r3
    318c:	7602      	strb	r2, [r0, #24]
    318e:	2000      	movs	r0, #0
    3190:	4770      	bx	lr
    3192:	46c0      	nop			; (mov r8, r8)

00003194 <_tc_interrupt_handler>:
    3194:	b538      	push	{r3, r4, r5, lr}
    3196:	0080      	lsls	r0, r0, #2
    3198:	4b14      	ldr	r3, [pc, #80]	; (31ec <_tc_interrupt_handler+0x58>)
    319a:	58c4      	ldr	r4, [r0, r3]
    319c:	6822      	ldr	r2, [r4, #0]
    319e:	7b95      	ldrb	r5, [r2, #14]
    31a0:	7e23      	ldrb	r3, [r4, #24]
    31a2:	401d      	ands	r5, r3
    31a4:	7e63      	ldrb	r3, [r4, #25]
    31a6:	401d      	ands	r5, r3
    31a8:	07eb      	lsls	r3, r5, #31
    31aa:	d505      	bpl.n	31b8 <_tc_interrupt_handler+0x24>
    31ac:	1c20      	adds	r0, r4, #0
    31ae:	68a2      	ldr	r2, [r4, #8]
    31b0:	4790      	blx	r2
    31b2:	2301      	movs	r3, #1
    31b4:	6822      	ldr	r2, [r4, #0]
    31b6:	7393      	strb	r3, [r2, #14]
    31b8:	07ab      	lsls	r3, r5, #30
    31ba:	d505      	bpl.n	31c8 <_tc_interrupt_handler+0x34>
    31bc:	1c20      	adds	r0, r4, #0
    31be:	68e2      	ldr	r2, [r4, #12]
    31c0:	4790      	blx	r2
    31c2:	2302      	movs	r3, #2
    31c4:	6822      	ldr	r2, [r4, #0]
    31c6:	7393      	strb	r3, [r2, #14]
    31c8:	06eb      	lsls	r3, r5, #27
    31ca:	d505      	bpl.n	31d8 <_tc_interrupt_handler+0x44>
    31cc:	1c20      	adds	r0, r4, #0
    31ce:	6922      	ldr	r2, [r4, #16]
    31d0:	4790      	blx	r2
    31d2:	2310      	movs	r3, #16
    31d4:	6822      	ldr	r2, [r4, #0]
    31d6:	7393      	strb	r3, [r2, #14]
    31d8:	06ab      	lsls	r3, r5, #26
    31da:	d505      	bpl.n	31e8 <_tc_interrupt_handler+0x54>
    31dc:	1c20      	adds	r0, r4, #0
    31de:	6962      	ldr	r2, [r4, #20]
    31e0:	4790      	blx	r2
    31e2:	6823      	ldr	r3, [r4, #0]
    31e4:	2220      	movs	r2, #32
    31e6:	739a      	strb	r2, [r3, #14]
    31e8:	bd38      	pop	{r3, r4, r5, pc}
    31ea:	46c0      	nop			; (mov r8, r8)
    31ec:	200002d8 	.word	0x200002d8

000031f0 <TC3_Handler>:
    31f0:	b508      	push	{r3, lr}
    31f2:	2000      	movs	r0, #0
    31f4:	4b01      	ldr	r3, [pc, #4]	; (31fc <TC3_Handler+0xc>)
    31f6:	4798      	blx	r3
    31f8:	bd08      	pop	{r3, pc}
    31fa:	46c0      	nop			; (mov r8, r8)
    31fc:	00003195 	.word	0x00003195

00003200 <TC4_Handler>:
    3200:	b508      	push	{r3, lr}
    3202:	2001      	movs	r0, #1
    3204:	4b01      	ldr	r3, [pc, #4]	; (320c <TC4_Handler+0xc>)
    3206:	4798      	blx	r3
    3208:	bd08      	pop	{r3, pc}
    320a:	46c0      	nop			; (mov r8, r8)
    320c:	00003195 	.word	0x00003195

00003210 <TC5_Handler>:
    3210:	b508      	push	{r3, lr}
    3212:	2002      	movs	r0, #2
    3214:	4b01      	ldr	r3, [pc, #4]	; (321c <TC5_Handler+0xc>)
    3216:	4798      	blx	r3
    3218:	bd08      	pop	{r3, pc}
    321a:	46c0      	nop			; (mov r8, r8)
    321c:	00003195 	.word	0x00003195

00003220 <_eeprom_emulator_update_page_mapping>:
    3220:	b5f0      	push	{r4, r5, r6, r7, lr}
    3222:	4b25      	ldr	r3, [pc, #148]	; (32b8 <_eeprom_emulator_update_page_mapping+0x98>)
    3224:	8918      	ldrh	r0, [r3, #8]
    3226:	2800      	cmp	r0, #0
    3228:	d03a      	beq.n	32a0 <_eeprom_emulator_update_page_mapping+0x80>
    322a:	7a9f      	ldrb	r7, [r3, #10]
    322c:	685a      	ldr	r2, [r3, #4]
    322e:	2300      	movs	r3, #0
    3230:	1e45      	subs	r5, r0, #1
    3232:	4e21      	ldr	r6, [pc, #132]	; (32b8 <_eeprom_emulator_update_page_mapping+0x98>)
    3234:	42ab      	cmp	r3, r5
    3236:	d006      	beq.n	3246 <_eeprom_emulator_update_page_mapping+0x26>
    3238:	7811      	ldrb	r1, [r2, #0]
    323a:	29ff      	cmp	r1, #255	; 0xff
    323c:	d003      	beq.n	3246 <_eeprom_emulator_update_page_mapping+0x26>
    323e:	42b9      	cmp	r1, r7
    3240:	d201      	bcs.n	3246 <_eeprom_emulator_update_page_mapping+0x26>
    3242:	1871      	adds	r1, r6, r1
    3244:	72cb      	strb	r3, [r1, #11]
    3246:	3301      	adds	r3, #1
    3248:	3240      	adds	r2, #64	; 0x40
    324a:	b299      	uxth	r1, r3
    324c:	4288      	cmp	r0, r1
    324e:	d8f1      	bhi.n	3234 <_eeprom_emulator_update_page_mapping+0x14>
    3250:	213f      	movs	r1, #63	; 0x3f
    3252:	2387      	movs	r3, #135	; 0x87
    3254:	4a18      	ldr	r2, [pc, #96]	; (32b8 <_eeprom_emulator_update_page_mapping+0x98>)
    3256:	54d1      	strb	r1, [r2, r3]
    3258:	0886      	lsrs	r6, r0, #2
    325a:	d02c      	beq.n	32b6 <_eeprom_emulator_update_page_mapping+0x96>
    325c:	6854      	ldr	r4, [r2, #4]
    325e:	2100      	movs	r1, #0
    3260:	2300      	movs	r3, #0
    3262:	2501      	movs	r5, #1
    3264:	3801      	subs	r0, #1
    3266:	2700      	movs	r7, #0
    3268:	46ac      	mov	ip, r5
    326a:	e001      	b.n	3270 <_eeprom_emulator_update_page_mapping+0x50>
    326c:	1c3b      	adds	r3, r7, #0
    326e:	4665      	mov	r5, ip
    3270:	008a      	lsls	r2, r1, #2
    3272:	189a      	adds	r2, r3, r2
    3274:	b292      	uxth	r2, r2
    3276:	4282      	cmp	r2, r0
    3278:	d003      	beq.n	3282 <_eeprom_emulator_update_page_mapping+0x62>
    327a:	0192      	lsls	r2, r2, #6
    327c:	5d12      	ldrb	r2, [r2, r4]
    327e:	2aff      	cmp	r2, #255	; 0xff
    3280:	d113      	bne.n	32aa <_eeprom_emulator_update_page_mapping+0x8a>
    3282:	3301      	adds	r3, #1
    3284:	b2db      	uxtb	r3, r3
    3286:	2b03      	cmp	r3, #3
    3288:	d9f2      	bls.n	3270 <_eeprom_emulator_update_page_mapping+0x50>
    328a:	2d00      	cmp	r5, #0
    328c:	d003      	beq.n	3296 <_eeprom_emulator_update_page_mapping+0x76>
    328e:	2387      	movs	r3, #135	; 0x87
    3290:	4a09      	ldr	r2, [pc, #36]	; (32b8 <_eeprom_emulator_update_page_mapping+0x98>)
    3292:	54d1      	strb	r1, [r2, r3]
    3294:	e00f      	b.n	32b6 <_eeprom_emulator_update_page_mapping+0x96>
    3296:	3101      	adds	r1, #1
    3298:	b289      	uxth	r1, r1
    329a:	42b1      	cmp	r1, r6
    329c:	d3e6      	bcc.n	326c <_eeprom_emulator_update_page_mapping+0x4c>
    329e:	e00a      	b.n	32b6 <_eeprom_emulator_update_page_mapping+0x96>
    32a0:	213f      	movs	r1, #63	; 0x3f
    32a2:	2387      	movs	r3, #135	; 0x87
    32a4:	4a04      	ldr	r2, [pc, #16]	; (32b8 <_eeprom_emulator_update_page_mapping+0x98>)
    32a6:	54d1      	strb	r1, [r2, r3]
    32a8:	e005      	b.n	32b6 <_eeprom_emulator_update_page_mapping+0x96>
    32aa:	3301      	adds	r3, #1
    32ac:	b2db      	uxtb	r3, r3
    32ae:	1c3d      	adds	r5, r7, #0
    32b0:	2b03      	cmp	r3, #3
    32b2:	d9dd      	bls.n	3270 <_eeprom_emulator_update_page_mapping+0x50>
    32b4:	e7ef      	b.n	3296 <_eeprom_emulator_update_page_mapping+0x76>
    32b6:	bdf0      	pop	{r4, r5, r6, r7, pc}
    32b8:	20000114 	.word	0x20000114

000032bc <_eeprom_emulator_nvm_read_page>:
    32bc:	b5f8      	push	{r3, r4, r5, r6, r7, lr}
    32be:	1c0f      	adds	r7, r1, #0
    32c0:	0186      	lsls	r6, r0, #6
    32c2:	4d05      	ldr	r5, [pc, #20]	; (32d8 <_eeprom_emulator_nvm_read_page+0x1c>)
    32c4:	4c05      	ldr	r4, [pc, #20]	; (32dc <_eeprom_emulator_nvm_read_page+0x20>)
    32c6:	686b      	ldr	r3, [r5, #4]
    32c8:	1998      	adds	r0, r3, r6
    32ca:	1c39      	adds	r1, r7, #0
    32cc:	2240      	movs	r2, #64	; 0x40
    32ce:	47a0      	blx	r4
    32d0:	2805      	cmp	r0, #5
    32d2:	d0f8      	beq.n	32c6 <_eeprom_emulator_nvm_read_page+0xa>
    32d4:	bdf8      	pop	{r3, r4, r5, r6, r7, pc}
    32d6:	46c0      	nop			; (mov r8, r8)
    32d8:	20000114 	.word	0x20000114
    32dc:	000017b5 	.word	0x000017b5

000032e0 <_eeprom_emulator_nvm_erase_row>:
    32e0:	b570      	push	{r4, r5, r6, lr}
    32e2:	0206      	lsls	r6, r0, #8
    32e4:	4d03      	ldr	r5, [pc, #12]	; (32f4 <_eeprom_emulator_nvm_erase_row+0x14>)
    32e6:	4c04      	ldr	r4, [pc, #16]	; (32f8 <_eeprom_emulator_nvm_erase_row+0x18>)
    32e8:	686b      	ldr	r3, [r5, #4]
    32ea:	1998      	adds	r0, r3, r6
    32ec:	47a0      	blx	r4
    32ee:	2805      	cmp	r0, #5
    32f0:	d0fa      	beq.n	32e8 <_eeprom_emulator_nvm_erase_row+0x8>
    32f2:	bd70      	pop	{r4, r5, r6, pc}
    32f4:	20000114 	.word	0x20000114
    32f8:	00001825 	.word	0x00001825

000032fc <_eeprom_emulator_nvm_fill_cache>:
    32fc:	b5f8      	push	{r3, r4, r5, r6, r7, lr}
    32fe:	1c0f      	adds	r7, r1, #0
    3300:	0186      	lsls	r6, r0, #6
    3302:	4d05      	ldr	r5, [pc, #20]	; (3318 <_eeprom_emulator_nvm_fill_cache+0x1c>)
    3304:	4c05      	ldr	r4, [pc, #20]	; (331c <_eeprom_emulator_nvm_fill_cache+0x20>)
    3306:	686b      	ldr	r3, [r5, #4]
    3308:	1998      	adds	r0, r3, r6
    330a:	1c39      	adds	r1, r7, #0
    330c:	2240      	movs	r2, #64	; 0x40
    330e:	47a0      	blx	r4
    3310:	2805      	cmp	r0, #5
    3312:	d0f8      	beq.n	3306 <_eeprom_emulator_nvm_fill_cache+0xa>
    3314:	bdf8      	pop	{r3, r4, r5, r6, r7, pc}
    3316:	46c0      	nop			; (mov r8, r8)
    3318:	20000114 	.word	0x20000114
    331c:	00001729 	.word	0x00001729

00003320 <_eeprom_emulator_nvm_commit_cache>:
    3320:	b570      	push	{r4, r5, r6, lr}
    3322:	0186      	lsls	r6, r0, #6
    3324:	4d04      	ldr	r5, [pc, #16]	; (3338 <_eeprom_emulator_nvm_commit_cache+0x18>)
    3326:	4c05      	ldr	r4, [pc, #20]	; (333c <_eeprom_emulator_nvm_commit_cache+0x1c>)
    3328:	686b      	ldr	r3, [r5, #4]
    332a:	1999      	adds	r1, r3, r6
    332c:	2004      	movs	r0, #4
    332e:	2200      	movs	r2, #0
    3330:	47a0      	blx	r4
    3332:	2805      	cmp	r0, #5
    3334:	d0f8      	beq.n	3328 <_eeprom_emulator_nvm_commit_cache+0x8>
    3336:	bd70      	pop	{r4, r5, r6, pc}
    3338:	20000114 	.word	0x20000114
    333c:	000016a5 	.word	0x000016a5

00003340 <eeprom_emulator_init>:
    3340:	b530      	push	{r4, r5, lr}
    3342:	b099      	sub	sp, #100	; 0x64
    3344:	ab16      	add	r3, sp, #88	; 0x58
    3346:	2200      	movs	r2, #0
    3348:	701a      	strb	r2, [r3, #0]
    334a:	492e      	ldr	r1, [pc, #184]	; (3404 <eeprom_emulator_init+0xc4>)
    334c:	6849      	ldr	r1, [r1, #4]
    334e:	06c9      	lsls	r1, r1, #27
    3350:	0f09      	lsrs	r1, r1, #28
    3352:	7099      	strb	r1, [r3, #2]
    3354:	70da      	strb	r2, [r3, #3]
    3356:	711a      	strb	r2, [r3, #4]
    3358:	2201      	movs	r2, #1
    335a:	705a      	strb	r2, [r3, #1]
    335c:	4c2a      	ldr	r4, [pc, #168]	; (3408 <eeprom_emulator_init+0xc8>)
    335e:	a816      	add	r0, sp, #88	; 0x58
    3360:	47a0      	blx	r4
    3362:	2805      	cmp	r0, #5
    3364:	d0fb      	beq.n	335e <eeprom_emulator_init+0x1e>
    3366:	a813      	add	r0, sp, #76	; 0x4c
    3368:	4b28      	ldr	r3, [pc, #160]	; (340c <eeprom_emulator_init+0xcc>)
    336a:	4798      	blx	r3
    336c:	9b14      	ldr	r3, [sp, #80]	; 0x50
    336e:	2016      	movs	r0, #22
    3370:	2b0b      	cmp	r3, #11
    3372:	d944      	bls.n	33fe <eeprom_emulator_init+0xbe>
    3374:	4c26      	ldr	r4, [pc, #152]	; (3410 <eeprom_emulator_init+0xd0>)
    3376:	8123      	strh	r3, [r4, #8]
    3378:	1c1a      	adds	r2, r3, #0
    337a:	3a08      	subs	r2, #8
    337c:	0852      	lsrs	r2, r2, #1
    337e:	72a2      	strb	r2, [r4, #10]
    3380:	041b      	lsls	r3, r3, #16
    3382:	0a9b      	lsrs	r3, r3, #10
    3384:	425b      	negs	r3, r3
    3386:	2080      	movs	r0, #128	; 0x80
    3388:	02c0      	lsls	r0, r0, #11
    338a:	181b      	adds	r3, r3, r0
    338c:	6063      	str	r3, [r4, #4]
    338e:	2200      	movs	r2, #0
    3390:	23c8      	movs	r3, #200	; 0xc8
    3392:	54e2      	strb	r2, [r4, r3]
    3394:	4b1f      	ldr	r3, [pc, #124]	; (3414 <eeprom_emulator_init+0xd4>)
    3396:	4798      	blx	r3
    3398:	2387      	movs	r3, #135	; 0x87
    339a:	5ce3      	ldrb	r3, [r4, r3]
    339c:	201a      	movs	r0, #26
    339e:	2b3f      	cmp	r3, #63	; 0x3f
    33a0:	d02d      	beq.n	33fe <eeprom_emulator_init+0xbe>
    33a2:	466b      	mov	r3, sp
    33a4:	4a1c      	ldr	r2, [pc, #112]	; (3418 <eeprom_emulator_init+0xd8>)
    33a6:	ca31      	ldmia	r2!, {r0, r4, r5}
    33a8:	c331      	stmia	r3!, {r0, r4, r5}
    33aa:	4b19      	ldr	r3, [pc, #100]	; (3410 <eeprom_emulator_init+0xd0>)
    33ac:	8918      	ldrh	r0, [r3, #8]
    33ae:	3801      	subs	r0, #1
    33b0:	b280      	uxth	r0, r0
    33b2:	a903      	add	r1, sp, #12
    33b4:	4b19      	ldr	r3, [pc, #100]	; (341c <eeprom_emulator_init+0xdc>)
    33b6:	4798      	blx	r3
    33b8:	9a03      	ldr	r2, [sp, #12]
    33ba:	9b00      	ldr	r3, [sp, #0]
    33bc:	429a      	cmp	r2, r3
    33be:	d119      	bne.n	33f4 <eeprom_emulator_init+0xb4>
    33c0:	9c04      	ldr	r4, [sp, #16]
    33c2:	9d01      	ldr	r5, [sp, #4]
    33c4:	42ac      	cmp	r4, r5
    33c6:	d117      	bne.n	33f8 <eeprom_emulator_init+0xb8>
    33c8:	9805      	ldr	r0, [sp, #20]
    33ca:	9a02      	ldr	r2, [sp, #8]
    33cc:	4290      	cmp	r0, r2
    33ce:	d115      	bne.n	33fc <eeprom_emulator_init+0xbc>
    33d0:	ab03      	add	r3, sp, #12
    33d2:	7bdb      	ldrb	r3, [r3, #15]
    33d4:	2010      	movs	r0, #16
    33d6:	2b01      	cmp	r3, #1
    33d8:	d111      	bne.n	33fe <eeprom_emulator_init+0xbe>
    33da:	ab03      	add	r3, sp, #12
    33dc:	7b1b      	ldrb	r3, [r3, #12]
    33de:	2b01      	cmp	r3, #1
    33e0:	d10d      	bne.n	33fe <eeprom_emulator_init+0xbe>
    33e2:	ab03      	add	r3, sp, #12
    33e4:	7b5b      	ldrb	r3, [r3, #13]
    33e6:	2b00      	cmp	r3, #0
    33e8:	d109      	bne.n	33fe <eeprom_emulator_init+0xbe>
    33ea:	2201      	movs	r2, #1
    33ec:	4b08      	ldr	r3, [pc, #32]	; (3410 <eeprom_emulator_init+0xd0>)
    33ee:	701a      	strb	r2, [r3, #0]
    33f0:	2000      	movs	r0, #0
    33f2:	e004      	b.n	33fe <eeprom_emulator_init+0xbe>
    33f4:	201a      	movs	r0, #26
    33f6:	e002      	b.n	33fe <eeprom_emulator_init+0xbe>
    33f8:	201a      	movs	r0, #26
    33fa:	e000      	b.n	33fe <eeprom_emulator_init+0xbe>
    33fc:	201a      	movs	r0, #26
    33fe:	b019      	add	sp, #100	; 0x64
    3400:	bd30      	pop	{r4, r5, pc}
    3402:	46c0      	nop			; (mov r8, r8)
    3404:	41004000 	.word	0x41004000
    3408:	00001621 	.word	0x00001621
    340c:	0000186d 	.word	0x0000186d
    3410:	20000114 	.word	0x20000114
    3414:	00003221 	.word	0x00003221
    3418:	00009c4c 	.word	0x00009c4c
    341c:	000032bd 	.word	0x000032bd

00003420 <eeprom_emulator_erase_memory>:
    3420:	b570      	push	{r4, r5, r6, lr}
    3422:	b094      	sub	sp, #80	; 0x50
    3424:	4c2e      	ldr	r4, [pc, #184]	; (34e0 <eeprom_emulator_erase_memory+0xc0>)
    3426:	2200      	movs	r2, #0
    3428:	2387      	movs	r3, #135	; 0x87
    342a:	54e2      	strb	r2, [r4, r3]
    342c:	2000      	movs	r0, #0
    342e:	4b2d      	ldr	r3, [pc, #180]	; (34e4 <eeprom_emulator_erase_memory+0xc4>)
    3430:	4798      	blx	r3
    3432:	8925      	ldrh	r5, [r4, #8]
    3434:	2d04      	cmp	r5, #4
    3436:	d924      	bls.n	3482 <eeprom_emulator_erase_memory+0x62>
    3438:	2600      	movs	r6, #0
    343a:	2404      	movs	r4, #4
    343c:	3d01      	subs	r5, #1
    343e:	42ac      	cmp	r4, r5
    3440:	d019      	beq.n	3476 <eeprom_emulator_erase_memory+0x56>
    3442:	2303      	movs	r3, #3
    3444:	4023      	ands	r3, r4
    3446:	d104      	bne.n	3452 <eeprom_emulator_erase_memory+0x32>
    3448:	08a0      	lsrs	r0, r4, #2
    344a:	b2c0      	uxtb	r0, r0
    344c:	4b25      	ldr	r3, [pc, #148]	; (34e4 <eeprom_emulator_erase_memory+0xc4>)
    344e:	4798      	blx	r3
    3450:	e001      	b.n	3456 <eeprom_emulator_erase_memory+0x36>
    3452:	2b01      	cmp	r3, #1
    3454:	d80f      	bhi.n	3476 <eeprom_emulator_erase_memory+0x56>
    3456:	ad04      	add	r5, sp, #16
    3458:	1c28      	adds	r0, r5, #0
    345a:	21ff      	movs	r1, #255	; 0xff
    345c:	2240      	movs	r2, #64	; 0x40
    345e:	4b22      	ldr	r3, [pc, #136]	; (34e8 <eeprom_emulator_erase_memory+0xc8>)
    3460:	4798      	blx	r3
    3462:	702e      	strb	r6, [r5, #0]
    3464:	1c20      	adds	r0, r4, #0
    3466:	1c29      	adds	r1, r5, #0
    3468:	4b20      	ldr	r3, [pc, #128]	; (34ec <eeprom_emulator_erase_memory+0xcc>)
    346a:	4798      	blx	r3
    346c:	1c20      	adds	r0, r4, #0
    346e:	4920      	ldr	r1, [pc, #128]	; (34f0 <eeprom_emulator_erase_memory+0xd0>)
    3470:	4788      	blx	r1
    3472:	3601      	adds	r6, #1
    3474:	b2b6      	uxth	r6, r6
    3476:	3401      	adds	r4, #1
    3478:	b2a4      	uxth	r4, r4
    347a:	4b19      	ldr	r3, [pc, #100]	; (34e0 <eeprom_emulator_erase_memory+0xc0>)
    347c:	891d      	ldrh	r5, [r3, #8]
    347e:	42a5      	cmp	r5, r4
    3480:	d8dc      	bhi.n	343c <eeprom_emulator_erase_memory+0x1c>
    3482:	ae01      	add	r6, sp, #4
    3484:	4b1b      	ldr	r3, [pc, #108]	; (34f4 <eeprom_emulator_erase_memory+0xd4>)
    3486:	1c32      	adds	r2, r6, #0
    3488:	cb13      	ldmia	r3!, {r0, r1, r4}
    348a:	c213      	stmia	r2!, {r0, r1, r4}
    348c:	ac04      	add	r4, sp, #16
    348e:	1c20      	adds	r0, r4, #0
    3490:	21ff      	movs	r1, #255	; 0xff
    3492:	223d      	movs	r2, #61	; 0x3d
    3494:	4b14      	ldr	r3, [pc, #80]	; (34e8 <eeprom_emulator_erase_memory+0xc8>)
    3496:	4798      	blx	r3
    3498:	9b01      	ldr	r3, [sp, #4]
    349a:	9304      	str	r3, [sp, #16]
    349c:	6870      	ldr	r0, [r6, #4]
    349e:	6060      	str	r0, [r4, #4]
    34a0:	68b6      	ldr	r6, [r6, #8]
    34a2:	60a6      	str	r6, [r4, #8]
    34a4:	2301      	movs	r3, #1
    34a6:	73e3      	strb	r3, [r4, #15]
    34a8:	7323      	strb	r3, [r4, #12]
    34aa:	2300      	movs	r3, #0
    34ac:	7363      	strb	r3, [r4, #13]
    34ae:	73a3      	strb	r3, [r4, #14]
    34b0:	3d01      	subs	r5, #1
    34b2:	17e8      	asrs	r0, r5, #31
    34b4:	0f80      	lsrs	r0, r0, #30
    34b6:	1945      	adds	r5, r0, r5
    34b8:	10a8      	asrs	r0, r5, #2
    34ba:	b2c0      	uxtb	r0, r0
    34bc:	4b09      	ldr	r3, [pc, #36]	; (34e4 <eeprom_emulator_erase_memory+0xc4>)
    34be:	4798      	blx	r3
    34c0:	4d07      	ldr	r5, [pc, #28]	; (34e0 <eeprom_emulator_erase_memory+0xc0>)
    34c2:	8928      	ldrh	r0, [r5, #8]
    34c4:	3801      	subs	r0, #1
    34c6:	b280      	uxth	r0, r0
    34c8:	1c21      	adds	r1, r4, #0
    34ca:	4b08      	ldr	r3, [pc, #32]	; (34ec <eeprom_emulator_erase_memory+0xcc>)
    34cc:	4798      	blx	r3
    34ce:	8928      	ldrh	r0, [r5, #8]
    34d0:	3801      	subs	r0, #1
    34d2:	b280      	uxth	r0, r0
    34d4:	4b06      	ldr	r3, [pc, #24]	; (34f0 <eeprom_emulator_erase_memory+0xd0>)
    34d6:	4798      	blx	r3
    34d8:	4b07      	ldr	r3, [pc, #28]	; (34f8 <eeprom_emulator_erase_memory+0xd8>)
    34da:	4798      	blx	r3
    34dc:	b014      	add	sp, #80	; 0x50
    34de:	bd70      	pop	{r4, r5, r6, pc}
    34e0:	20000114 	.word	0x20000114
    34e4:	000032e1 	.word	0x000032e1
    34e8:	000041ab 	.word	0x000041ab
    34ec:	000032fd 	.word	0x000032fd
    34f0:	00003321 	.word	0x00003321
    34f4:	00009c4c 	.word	0x00009c4c
    34f8:	00003221 	.word	0x00003221

000034fc <eeprom_emulator_read_page>:
    34fc:	b510      	push	{r4, lr}
    34fe:	b090      	sub	sp, #64	; 0x40
    3500:	1c0c      	adds	r4, r1, #0
    3502:	4b15      	ldr	r3, [pc, #84]	; (3558 <eeprom_emulator_read_page+0x5c>)
    3504:	781a      	ldrb	r2, [r3, #0]
    3506:	231f      	movs	r3, #31
    3508:	2a00      	cmp	r2, #0
    350a:	d021      	beq.n	3550 <eeprom_emulator_read_page+0x54>
    350c:	4b12      	ldr	r3, [pc, #72]	; (3558 <eeprom_emulator_read_page+0x5c>)
    350e:	7a9a      	ldrb	r2, [r3, #10]
    3510:	2318      	movs	r3, #24
    3512:	4282      	cmp	r2, r0
    3514:	d91c      	bls.n	3550 <eeprom_emulator_read_page+0x54>
    3516:	23c8      	movs	r3, #200	; 0xc8
    3518:	4a0f      	ldr	r2, [pc, #60]	; (3558 <eeprom_emulator_read_page+0x5c>)
    351a:	5cd3      	ldrb	r3, [r2, r3]
    351c:	2b00      	cmp	r3, #0
    351e:	d00b      	beq.n	3538 <eeprom_emulator_read_page+0x3c>
    3520:	2388      	movs	r3, #136	; 0x88
    3522:	5cd3      	ldrb	r3, [r2, r3]
    3524:	4283      	cmp	r3, r0
    3526:	d107      	bne.n	3538 <eeprom_emulator_read_page+0x3c>
    3528:	1c08      	adds	r0, r1, #0
    352a:	1c11      	adds	r1, r2, #0
    352c:	318c      	adds	r1, #140	; 0x8c
    352e:	223c      	movs	r2, #60	; 0x3c
    3530:	4b0a      	ldr	r3, [pc, #40]	; (355c <eeprom_emulator_read_page+0x60>)
    3532:	4798      	blx	r3
    3534:	2300      	movs	r3, #0
    3536:	e00b      	b.n	3550 <eeprom_emulator_read_page+0x54>
    3538:	4b07      	ldr	r3, [pc, #28]	; (3558 <eeprom_emulator_read_page+0x5c>)
    353a:	1818      	adds	r0, r3, r0
    353c:	7ac0      	ldrb	r0, [r0, #11]
    353e:	4669      	mov	r1, sp
    3540:	4b07      	ldr	r3, [pc, #28]	; (3560 <eeprom_emulator_read_page+0x64>)
    3542:	4798      	blx	r3
    3544:	1c20      	adds	r0, r4, #0
    3546:	a901      	add	r1, sp, #4
    3548:	223c      	movs	r2, #60	; 0x3c
    354a:	4b04      	ldr	r3, [pc, #16]	; (355c <eeprom_emulator_read_page+0x60>)
    354c:	4798      	blx	r3
    354e:	2300      	movs	r3, #0
    3550:	1c18      	adds	r0, r3, #0
    3552:	b010      	add	sp, #64	; 0x40
    3554:	bd10      	pop	{r4, pc}
    3556:	46c0      	nop			; (mov r8, r8)
    3558:	20000114 	.word	0x20000114
    355c:	00004199 	.word	0x00004199
    3560:	000032bd 	.word	0x000032bd

00003564 <eeprom_emulator_commit_page_buffer>:
    3564:	b510      	push	{r4, lr}
    3566:	23c8      	movs	r3, #200	; 0xc8
    3568:	4a07      	ldr	r2, [pc, #28]	; (3588 <eeprom_emulator_commit_page_buffer+0x24>)
    356a:	5cd3      	ldrb	r3, [r2, r3]
    356c:	2b00      	cmp	r3, #0
    356e:	d009      	beq.n	3584 <eeprom_emulator_commit_page_buffer+0x20>
    3570:	1c14      	adds	r4, r2, #0
    3572:	2388      	movs	r3, #136	; 0x88
    3574:	5cd3      	ldrb	r3, [r2, r3]
    3576:	18d3      	adds	r3, r2, r3
    3578:	7ad8      	ldrb	r0, [r3, #11]
    357a:	4b04      	ldr	r3, [pc, #16]	; (358c <eeprom_emulator_commit_page_buffer+0x28>)
    357c:	4798      	blx	r3
    357e:	2200      	movs	r2, #0
    3580:	23c8      	movs	r3, #200	; 0xc8
    3582:	54e2      	strb	r2, [r4, r3]
    3584:	2000      	movs	r0, #0
    3586:	bd10      	pop	{r4, pc}
    3588:	20000114 	.word	0x20000114
    358c:	00003321 	.word	0x00003321

00003590 <eeprom_emulator_write_page>:
    3590:	b5f0      	push	{r4, r5, r6, r7, lr}
    3592:	465f      	mov	r7, fp
    3594:	4656      	mov	r6, sl
    3596:	464d      	mov	r5, r9
    3598:	4644      	mov	r4, r8
    359a:	b4f0      	push	{r4, r5, r6, r7}
    359c:	b085      	sub	sp, #20
    359e:	1c04      	adds	r4, r0, #0
    35a0:	1c0d      	adds	r5, r1, #0
    35a2:	4b5b      	ldr	r3, [pc, #364]	; (3710 <eeprom_emulator_write_page+0x180>)
    35a4:	781b      	ldrb	r3, [r3, #0]
    35a6:	201f      	movs	r0, #31
    35a8:	2b00      	cmp	r3, #0
    35aa:	d100      	bne.n	35ae <eeprom_emulator_write_page+0x1e>
    35ac:	e0a8      	b.n	3700 <eeprom_emulator_write_page+0x170>
    35ae:	4b58      	ldr	r3, [pc, #352]	; (3710 <eeprom_emulator_write_page+0x180>)
    35b0:	7a9b      	ldrb	r3, [r3, #10]
    35b2:	2018      	movs	r0, #24
    35b4:	42a3      	cmp	r3, r4
    35b6:	d800      	bhi.n	35ba <eeprom_emulator_write_page+0x2a>
    35b8:	e0a2      	b.n	3700 <eeprom_emulator_write_page+0x170>
    35ba:	23c8      	movs	r3, #200	; 0xc8
    35bc:	4a54      	ldr	r2, [pc, #336]	; (3710 <eeprom_emulator_write_page+0x180>)
    35be:	5cd3      	ldrb	r3, [r2, r3]
    35c0:	2b00      	cmp	r3, #0
    35c2:	d005      	beq.n	35d0 <eeprom_emulator_write_page+0x40>
    35c4:	2388      	movs	r3, #136	; 0x88
    35c6:	5cd3      	ldrb	r3, [r2, r3]
    35c8:	42a3      	cmp	r3, r4
    35ca:	d001      	beq.n	35d0 <eeprom_emulator_write_page+0x40>
    35cc:	4b51      	ldr	r3, [pc, #324]	; (3714 <eeprom_emulator_write_page+0x184>)
    35ce:	4798      	blx	r3
    35d0:	4b4f      	ldr	r3, [pc, #316]	; (3710 <eeprom_emulator_write_page+0x180>)
    35d2:	191b      	adds	r3, r3, r4
    35d4:	7adb      	ldrb	r3, [r3, #11]
    35d6:	089e      	lsrs	r6, r3, #2
    35d8:	2203      	movs	r2, #3
    35da:	4013      	ands	r3, r2
    35dc:	2b03      	cmp	r3, #3
    35de:	d875      	bhi.n	36cc <eeprom_emulator_write_page+0x13c>
    35e0:	00b0      	lsls	r0, r6, #2
    35e2:	18c7      	adds	r7, r0, r3
    35e4:	b2ff      	uxtb	r7, r7
    35e6:	4a4a      	ldr	r2, [pc, #296]	; (3710 <eeprom_emulator_write_page+0x180>)
    35e8:	6851      	ldr	r1, [r2, #4]
    35ea:	01ba      	lsls	r2, r7, #6
    35ec:	5c52      	ldrb	r2, [r2, r1]
    35ee:	2aff      	cmp	r2, #255	; 0xff
    35f0:	d106      	bne.n	3600 <eeprom_emulator_write_page+0x70>
    35f2:	e056      	b.n	36a2 <eeprom_emulator_write_page+0x112>
    35f4:	18c7      	adds	r7, r0, r3
    35f6:	b2ff      	uxtb	r7, r7
    35f8:	01ba      	lsls	r2, r7, #6
    35fa:	5c52      	ldrb	r2, [r2, r1]
    35fc:	2aff      	cmp	r2, #255	; 0xff
    35fe:	d050      	beq.n	36a2 <eeprom_emulator_write_page+0x112>
    3600:	3301      	adds	r3, #1
    3602:	b2db      	uxtb	r3, r3
    3604:	2b04      	cmp	r3, #4
    3606:	d1f5      	bne.n	35f4 <eeprom_emulator_write_page+0x64>
    3608:	e060      	b.n	36cc <eeprom_emulator_write_page+0x13c>
    360a:	704a      	strb	r2, [r1, #1]
    360c:	3302      	adds	r3, #2
    360e:	4563      	cmp	r3, ip
    3610:	d009      	beq.n	3626 <eeprom_emulator_write_page+0x96>
    3612:	1c19      	adds	r1, r3, #0
    3614:	7818      	ldrb	r0, [r3, #0]
    3616:	42b8      	cmp	r0, r7
    3618:	d101      	bne.n	361e <eeprom_emulator_write_page+0x8e>
    361a:	4650      	mov	r0, sl
    361c:	7058      	strb	r0, [r3, #1]
    361e:	7808      	ldrb	r0, [r1, #0]
    3620:	4548      	cmp	r0, r9
    3622:	d1f3      	bne.n	360c <eeprom_emulator_write_page+0x7c>
    3624:	e7f1      	b.n	360a <eeprom_emulator_write_page+0x7a>
    3626:	2700      	movs	r7, #0
    3628:	4939      	ldr	r1, [pc, #228]	; (3710 <eeprom_emulator_write_page+0x180>)
    362a:	3188      	adds	r1, #136	; 0x88
    362c:	9100      	str	r1, [sp, #0]
    362e:	4a38      	ldr	r2, [pc, #224]	; (3710 <eeprom_emulator_write_page+0x180>)
    3630:	328c      	adds	r2, #140	; 0x8c
    3632:	9201      	str	r2, [sp, #4]
    3634:	46b3      	mov	fp, r6
    3636:	46a1      	mov	r9, r4
    3638:	4644      	mov	r4, r8
    363a:	46aa      	mov	sl, r5
    363c:	2387      	movs	r3, #135	; 0x87
    363e:	4834      	ldr	r0, [pc, #208]	; (3710 <eeprom_emulator_write_page+0x180>)
    3640:	5cc6      	ldrb	r6, [r0, r3]
    3642:	00b6      	lsls	r6, r6, #2
    3644:	19f6      	adds	r6, r6, r7
    3646:	4933      	ldr	r1, [pc, #204]	; (3714 <eeprom_emulator_write_page+0x184>)
    3648:	4788      	blx	r1
    364a:	46a0      	mov	r8, r4
    364c:	7823      	ldrb	r3, [r4, #0]
    364e:	454b      	cmp	r3, r9
    3650:	d109      	bne.n	3666 <eeprom_emulator_write_page+0xd6>
    3652:	2388      	movs	r3, #136	; 0x88
    3654:	4648      	mov	r0, r9
    3656:	4a2e      	ldr	r2, [pc, #184]	; (3710 <eeprom_emulator_write_page+0x180>)
    3658:	54d0      	strb	r0, [r2, r3]
    365a:	9801      	ldr	r0, [sp, #4]
    365c:	4651      	mov	r1, sl
    365e:	223c      	movs	r2, #60	; 0x3c
    3660:	4b2d      	ldr	r3, [pc, #180]	; (3718 <eeprom_emulator_write_page+0x188>)
    3662:	4798      	blx	r3
    3664:	e003      	b.n	366e <eeprom_emulator_write_page+0xde>
    3666:	7860      	ldrb	r0, [r4, #1]
    3668:	9900      	ldr	r1, [sp, #0]
    366a:	4b2c      	ldr	r3, [pc, #176]	; (371c <eeprom_emulator_write_page+0x18c>)
    366c:	4798      	blx	r3
    366e:	b2b0      	uxth	r0, r6
    3670:	4d27      	ldr	r5, [pc, #156]	; (3710 <eeprom_emulator_write_page+0x180>)
    3672:	1c29      	adds	r1, r5, #0
    3674:	3188      	adds	r1, #136	; 0x88
    3676:	4b2a      	ldr	r3, [pc, #168]	; (3720 <eeprom_emulator_write_page+0x190>)
    3678:	4798      	blx	r3
    367a:	4641      	mov	r1, r8
    367c:	780b      	ldrb	r3, [r1, #0]
    367e:	18eb      	adds	r3, r5, r3
    3680:	72de      	strb	r6, [r3, #11]
    3682:	2201      	movs	r2, #1
    3684:	23c8      	movs	r3, #200	; 0xc8
    3686:	54ea      	strb	r2, [r5, r3]
    3688:	3701      	adds	r7, #1
    368a:	3402      	adds	r4, #2
    368c:	2f02      	cmp	r7, #2
    368e:	d1d5      	bne.n	363c <eeprom_emulator_write_page+0xac>
    3690:	465e      	mov	r6, fp
    3692:	4658      	mov	r0, fp
    3694:	4b23      	ldr	r3, [pc, #140]	; (3724 <eeprom_emulator_write_page+0x194>)
    3696:	4798      	blx	r3
    3698:	2387      	movs	r3, #135	; 0x87
    369a:	4a1d      	ldr	r2, [pc, #116]	; (3710 <eeprom_emulator_write_page+0x180>)
    369c:	54d6      	strb	r6, [r2, r3]
    369e:	2000      	movs	r0, #0
    36a0:	e02e      	b.n	3700 <eeprom_emulator_write_page+0x170>
    36a2:	4e1b      	ldr	r6, [pc, #108]	; (3710 <eeprom_emulator_write_page+0x180>)
    36a4:	2388      	movs	r3, #136	; 0x88
    36a6:	54f4      	strb	r4, [r6, r3]
    36a8:	1c30      	adds	r0, r6, #0
    36aa:	308c      	adds	r0, #140	; 0x8c
    36ac:	1c29      	adds	r1, r5, #0
    36ae:	223c      	movs	r2, #60	; 0x3c
    36b0:	4b19      	ldr	r3, [pc, #100]	; (3718 <eeprom_emulator_write_page+0x188>)
    36b2:	4798      	blx	r3
    36b4:	1c31      	adds	r1, r6, #0
    36b6:	3188      	adds	r1, #136	; 0x88
    36b8:	1c38      	adds	r0, r7, #0
    36ba:	4b19      	ldr	r3, [pc, #100]	; (3720 <eeprom_emulator_write_page+0x190>)
    36bc:	4798      	blx	r3
    36be:	1934      	adds	r4, r6, r4
    36c0:	72e7      	strb	r7, [r4, #11]
    36c2:	2201      	movs	r2, #1
    36c4:	23c8      	movs	r3, #200	; 0xc8
    36c6:	54f2      	strb	r2, [r6, r3]
    36c8:	2000      	movs	r0, #0
    36ca:	e019      	b.n	3700 <eeprom_emulator_write_page+0x170>
    36cc:	0231      	lsls	r1, r6, #8
    36ce:	4b10      	ldr	r3, [pc, #64]	; (3710 <eeprom_emulator_write_page+0x180>)
    36d0:	685b      	ldr	r3, [r3, #4]
    36d2:	1859      	adds	r1, r3, r1
    36d4:	ab03      	add	r3, sp, #12
    36d6:	780a      	ldrb	r2, [r1, #0]
    36d8:	701a      	strb	r2, [r3, #0]
    36da:	00b2      	lsls	r2, r6, #2
    36dc:	705a      	strb	r2, [r3, #1]
    36de:	2040      	movs	r0, #64	; 0x40
    36e0:	5c08      	ldrb	r0, [r1, r0]
    36e2:	7098      	strb	r0, [r3, #2]
    36e4:	1c50      	adds	r0, r2, #1
    36e6:	70d8      	strb	r0, [r3, #3]
    36e8:	4698      	mov	r8, r3
    36ea:	a804      	add	r0, sp, #16
    36ec:	4684      	mov	ip, r0
    36ee:	2080      	movs	r0, #128	; 0x80
    36f0:	5c0f      	ldrb	r7, [r1, r0]
    36f2:	20c0      	movs	r0, #192	; 0xc0
    36f4:	5c08      	ldrb	r0, [r1, r0]
    36f6:	4681      	mov	r9, r0
    36f8:	1c91      	adds	r1, r2, #2
    36fa:	468a      	mov	sl, r1
    36fc:	3203      	adds	r2, #3
    36fe:	e788      	b.n	3612 <eeprom_emulator_write_page+0x82>
    3700:	b005      	add	sp, #20
    3702:	bc3c      	pop	{r2, r3, r4, r5}
    3704:	4690      	mov	r8, r2
    3706:	4699      	mov	r9, r3
    3708:	46a2      	mov	sl, r4
    370a:	46ab      	mov	fp, r5
    370c:	bdf0      	pop	{r4, r5, r6, r7, pc}
    370e:	46c0      	nop			; (mov r8, r8)
    3710:	20000114 	.word	0x20000114
    3714:	00003565 	.word	0x00003565
    3718:	00004199 	.word	0x00004199
    371c:	000032bd 	.word	0x000032bd
    3720:	000032fd 	.word	0x000032fd
    3724:	000032e1 	.word	0x000032e1

00003728 <Dummy_Handler>:
    3728:	e7fe      	b.n	3728 <Dummy_Handler>
    372a:	46c0      	nop			; (mov r8, r8)

0000372c <Reset_Handler>:
    372c:	b570      	push	{r4, r5, r6, lr}
    372e:	4b2c      	ldr	r3, [pc, #176]	; (37e0 <Reset_Handler+0xb4>)
    3730:	4a2c      	ldr	r2, [pc, #176]	; (37e4 <Reset_Handler+0xb8>)
    3732:	429a      	cmp	r2, r3
    3734:	d003      	beq.n	373e <Reset_Handler+0x12>
    3736:	4b2c      	ldr	r3, [pc, #176]	; (37e8 <Reset_Handler+0xbc>)
    3738:	4a29      	ldr	r2, [pc, #164]	; (37e0 <Reset_Handler+0xb4>)
    373a:	429a      	cmp	r2, r3
    373c:	d304      	bcc.n	3748 <Reset_Handler+0x1c>
    373e:	4b2b      	ldr	r3, [pc, #172]	; (37ec <Reset_Handler+0xc0>)
    3740:	4a2b      	ldr	r2, [pc, #172]	; (37f0 <Reset_Handler+0xc4>)
    3742:	429a      	cmp	r2, r3
    3744:	d310      	bcc.n	3768 <Reset_Handler+0x3c>
    3746:	e01b      	b.n	3780 <Reset_Handler+0x54>
    3748:	4b2a      	ldr	r3, [pc, #168]	; (37f4 <Reset_Handler+0xc8>)
    374a:	4827      	ldr	r0, [pc, #156]	; (37e8 <Reset_Handler+0xbc>)
    374c:	3003      	adds	r0, #3
    374e:	1ac0      	subs	r0, r0, r3
    3750:	0880      	lsrs	r0, r0, #2
    3752:	3001      	adds	r0, #1
    3754:	0080      	lsls	r0, r0, #2
    3756:	2300      	movs	r3, #0
    3758:	4921      	ldr	r1, [pc, #132]	; (37e0 <Reset_Handler+0xb4>)
    375a:	4a22      	ldr	r2, [pc, #136]	; (37e4 <Reset_Handler+0xb8>)
    375c:	58d4      	ldr	r4, [r2, r3]
    375e:	50cc      	str	r4, [r1, r3]
    3760:	3304      	adds	r3, #4
    3762:	4283      	cmp	r3, r0
    3764:	d1fa      	bne.n	375c <Reset_Handler+0x30>
    3766:	e7ea      	b.n	373e <Reset_Handler+0x12>
    3768:	4b21      	ldr	r3, [pc, #132]	; (37f0 <Reset_Handler+0xc4>)
    376a:	1d1a      	adds	r2, r3, #4
    376c:	491f      	ldr	r1, [pc, #124]	; (37ec <Reset_Handler+0xc0>)
    376e:	3103      	adds	r1, #3
    3770:	1a89      	subs	r1, r1, r2
    3772:	0889      	lsrs	r1, r1, #2
    3774:	0089      	lsls	r1, r1, #2
    3776:	1852      	adds	r2, r2, r1
    3778:	2100      	movs	r1, #0
    377a:	c302      	stmia	r3!, {r1}
    377c:	4293      	cmp	r3, r2
    377e:	d1fc      	bne.n	377a <Reset_Handler+0x4e>
    3780:	4b1d      	ldr	r3, [pc, #116]	; (37f8 <Reset_Handler+0xcc>)
    3782:	21ff      	movs	r1, #255	; 0xff
    3784:	4a1d      	ldr	r2, [pc, #116]	; (37fc <Reset_Handler+0xd0>)
    3786:	438a      	bics	r2, r1
    3788:	609a      	str	r2, [r3, #8]
    378a:	2102      	movs	r1, #2
    378c:	2390      	movs	r3, #144	; 0x90
    378e:	005b      	lsls	r3, r3, #1
    3790:	4a1b      	ldr	r2, [pc, #108]	; (3800 <Reset_Handler+0xd4>)
    3792:	50d1      	str	r1, [r2, r3]
    3794:	4b1b      	ldr	r3, [pc, #108]	; (3804 <Reset_Handler+0xd8>)
    3796:	78d8      	ldrb	r0, [r3, #3]
    3798:	2103      	movs	r1, #3
    379a:	4388      	bics	r0, r1
    379c:	2202      	movs	r2, #2
    379e:	4310      	orrs	r0, r2
    37a0:	70d8      	strb	r0, [r3, #3]
    37a2:	78dd      	ldrb	r5, [r3, #3]
    37a4:	240c      	movs	r4, #12
    37a6:	43a5      	bics	r5, r4
    37a8:	2008      	movs	r0, #8
    37aa:	4305      	orrs	r5, r0
    37ac:	70dd      	strb	r5, [r3, #3]
    37ae:	4b16      	ldr	r3, [pc, #88]	; (3808 <Reset_Handler+0xdc>)
    37b0:	7b9e      	ldrb	r6, [r3, #14]
    37b2:	2530      	movs	r5, #48	; 0x30
    37b4:	43ae      	bics	r6, r5
    37b6:	2520      	movs	r5, #32
    37b8:	4335      	orrs	r5, r6
    37ba:	739d      	strb	r5, [r3, #14]
    37bc:	7b9d      	ldrb	r5, [r3, #14]
    37be:	43a5      	bics	r5, r4
    37c0:	4328      	orrs	r0, r5
    37c2:	7398      	strb	r0, [r3, #14]
    37c4:	7b98      	ldrb	r0, [r3, #14]
    37c6:	4388      	bics	r0, r1
    37c8:	4302      	orrs	r2, r0
    37ca:	739a      	strb	r2, [r3, #14]
    37cc:	4b0f      	ldr	r3, [pc, #60]	; (380c <Reset_Handler+0xe0>)
    37ce:	6859      	ldr	r1, [r3, #4]
    37d0:	2280      	movs	r2, #128	; 0x80
    37d2:	430a      	orrs	r2, r1
    37d4:	605a      	str	r2, [r3, #4]
    37d6:	4b0e      	ldr	r3, [pc, #56]	; (3810 <Reset_Handler+0xe4>)
    37d8:	4798      	blx	r3
    37da:	4b0e      	ldr	r3, [pc, #56]	; (3814 <Reset_Handler+0xe8>)
    37dc:	4798      	blx	r3
    37de:	e7fe      	b.n	37de <Reset_Handler+0xb2>
    37e0:	20000000 	.word	0x20000000
    37e4:	00009f94 	.word	0x00009f94
    37e8:	200000ac 	.word	0x200000ac
    37ec:	20000328 	.word	0x20000328
    37f0:	200000ac 	.word	0x200000ac
    37f4:	20000004 	.word	0x20000004
    37f8:	e000ed00 	.word	0xe000ed00
    37fc:	00000000 	.word	0x00000000
    3800:	41007000 	.word	0x41007000
    3804:	41005000 	.word	0x41005000
    3808:	41004800 	.word	0x41004800
    380c:	41004000 	.word	0x41004000
    3810:	0000414d 	.word	0x0000414d
    3814:	00003965 	.word	0x00003965

00003818 <_read>:
    3818:	b5f0      	push	{r4, r5, r6, r7, lr}
    381a:	4647      	mov	r7, r8
    381c:	b480      	push	{r7}
    381e:	1c0c      	adds	r4, r1, #0
    3820:	4690      	mov	r8, r2
    3822:	2800      	cmp	r0, #0
    3824:	d10c      	bne.n	3840 <_read+0x28>
    3826:	2a00      	cmp	r2, #0
    3828:	dd0d      	ble.n	3846 <_read+0x2e>
    382a:	188f      	adds	r7, r1, r2
    382c:	4e09      	ldr	r6, [pc, #36]	; (3854 <_read+0x3c>)
    382e:	4d0a      	ldr	r5, [pc, #40]	; (3858 <_read+0x40>)
    3830:	6830      	ldr	r0, [r6, #0]
    3832:	1c21      	adds	r1, r4, #0
    3834:	682b      	ldr	r3, [r5, #0]
    3836:	4798      	blx	r3
    3838:	3401      	adds	r4, #1
    383a:	42bc      	cmp	r4, r7
    383c:	d1f8      	bne.n	3830 <_read+0x18>
    383e:	e004      	b.n	384a <_read+0x32>
    3840:	2001      	movs	r0, #1
    3842:	4240      	negs	r0, r0
    3844:	e002      	b.n	384c <_read+0x34>
    3846:	2000      	movs	r0, #0
    3848:	e000      	b.n	384c <_read+0x34>
    384a:	4640      	mov	r0, r8
    384c:	bc04      	pop	{r2}
    384e:	4690      	mov	r8, r2
    3850:	bdf0      	pop	{r4, r5, r6, r7, pc}
    3852:	46c0      	nop			; (mov r8, r8)
    3854:	200002ec 	.word	0x200002ec
    3858:	200002e4 	.word	0x200002e4

0000385c <_write>:
    385c:	b5f0      	push	{r4, r5, r6, r7, lr}
    385e:	4647      	mov	r7, r8
    3860:	b480      	push	{r7}
    3862:	1c0e      	adds	r6, r1, #0
    3864:	1c15      	adds	r5, r2, #0
    3866:	3801      	subs	r0, #1
    3868:	2802      	cmp	r0, #2
    386a:	d810      	bhi.n	388e <_write+0x32>
    386c:	2a00      	cmp	r2, #0
    386e:	d011      	beq.n	3894 <_write+0x38>
    3870:	2400      	movs	r4, #0
    3872:	4b0d      	ldr	r3, [pc, #52]	; (38a8 <_write+0x4c>)
    3874:	4698      	mov	r8, r3
    3876:	4f0d      	ldr	r7, [pc, #52]	; (38ac <_write+0x50>)
    3878:	4643      	mov	r3, r8
    387a:	6818      	ldr	r0, [r3, #0]
    387c:	5d31      	ldrb	r1, [r6, r4]
    387e:	683b      	ldr	r3, [r7, #0]
    3880:	4798      	blx	r3
    3882:	2800      	cmp	r0, #0
    3884:	db08      	blt.n	3898 <_write+0x3c>
    3886:	3401      	adds	r4, #1
    3888:	42a5      	cmp	r5, r4
    388a:	d1f5      	bne.n	3878 <_write+0x1c>
    388c:	e007      	b.n	389e <_write+0x42>
    388e:	2001      	movs	r0, #1
    3890:	4240      	negs	r0, r0
    3892:	e005      	b.n	38a0 <_write+0x44>
    3894:	2000      	movs	r0, #0
    3896:	e003      	b.n	38a0 <_write+0x44>
    3898:	2001      	movs	r0, #1
    389a:	4240      	negs	r0, r0
    389c:	e000      	b.n	38a0 <_write+0x44>
    389e:	1c20      	adds	r0, r4, #0
    38a0:	bc04      	pop	{r2}
    38a2:	4690      	mov	r8, r2
    38a4:	bdf0      	pop	{r4, r5, r6, r7, pc}
    38a6:	46c0      	nop			; (mov r8, r8)
    38a8:	200002ec 	.word	0x200002ec
    38ac:	200002e8 	.word	0x200002e8

000038b0 <_sbrk>:
    38b0:	4b06      	ldr	r3, [pc, #24]	; (38cc <_sbrk+0x1c>)
    38b2:	681b      	ldr	r3, [r3, #0]
    38b4:	2b00      	cmp	r3, #0
    38b6:	d102      	bne.n	38be <_sbrk+0xe>
    38b8:	4a05      	ldr	r2, [pc, #20]	; (38d0 <_sbrk+0x20>)
    38ba:	4b04      	ldr	r3, [pc, #16]	; (38cc <_sbrk+0x1c>)
    38bc:	601a      	str	r2, [r3, #0]
    38be:	4a03      	ldr	r2, [pc, #12]	; (38cc <_sbrk+0x1c>)
    38c0:	6813      	ldr	r3, [r2, #0]
    38c2:	1818      	adds	r0, r3, r0
    38c4:	6010      	str	r0, [r2, #0]
    38c6:	1c18      	adds	r0, r3, #0
    38c8:	4770      	bx	lr
    38ca:	46c0      	nop			; (mov r8, r8)
    38cc:	200001e0 	.word	0x200001e0
    38d0:	20002328 	.word	0x20002328

000038d4 <_close>:
    38d4:	2001      	movs	r0, #1
    38d6:	4240      	negs	r0, r0
    38d8:	4770      	bx	lr
    38da:	46c0      	nop			; (mov r8, r8)

000038dc <_fstat>:
    38dc:	2380      	movs	r3, #128	; 0x80
    38de:	019b      	lsls	r3, r3, #6
    38e0:	604b      	str	r3, [r1, #4]
    38e2:	2000      	movs	r0, #0
    38e4:	4770      	bx	lr
    38e6:	46c0      	nop			; (mov r8, r8)

000038e8 <_isatty>:
    38e8:	2001      	movs	r0, #1
    38ea:	4770      	bx	lr

000038ec <_lseek>:
    38ec:	2000      	movs	r0, #0
    38ee:	4770      	bx	lr

000038f0 <update_adxl_gforce_x>:
 void recalculate_accelerometer_values(void);

//Glue functions
static inline void update_adxl_gforce_x(uint16_t adc_value)
{
	accelerometer.raw_values.x = adc_value;
    38f0:	4b01      	ldr	r3, [pc, #4]	; (38f8 <update_adxl_gforce_x+0x8>)
    38f2:	8018      	strh	r0, [r3, #0]
//	accelerometer.scaled_gforce.x	= adc_to_g_force(adc_value, accelerometer.x_zero_g_point, accelerometer.x_volt_per_one_g);
}
    38f4:	4770      	bx	lr
    38f6:	46c0      	nop			; (mov r8, r8)
    38f8:	200001f0 	.word	0x200001f0

000038fc <update_adxl_gforce_y>:
static inline void update_adxl_gforce_y(uint16_t adc_value)
{
	accelerometer.raw_values.y = adc_value;
    38fc:	4b01      	ldr	r3, [pc, #4]	; (3904 <update_adxl_gforce_y+0x8>)
    38fe:	8058      	strh	r0, [r3, #2]
//	accelerometer.scaled_gforce.y	= adc_to_g_force(adc_value, accelerometer.y_zero_g_point, accelerometer.y_volt_per_one_g);
}
    3900:	4770      	bx	lr
    3902:	46c0      	nop			; (mov r8, r8)
    3904:	200001f0 	.word	0x200001f0

00003908 <update_adxl_gforce_z>:
static inline void update_adxl_gforce_z(uint16_t adc_value)
{
	accelerometer.raw_values.z = adc_value;
    3908:	4b01      	ldr	r3, [pc, #4]	; (3910 <update_adxl_gforce_z+0x8>)
    390a:	8098      	strh	r0, [r3, #4]
//	accelerometer.scaled_gforce.z	= adc_to_g_force(adc_value, accelerometer.z_zero_g_point, accelerometer.z_volt_per_one_g);
}
    390c:	4770      	bx	lr
    390e:	46c0      	nop			; (mov r8, r8)
    3910:	200001f0 	.word	0x200001f0

00003914 <tc_callback_update_sseg>:
//Include glue file
#include "platform.h"

//Callback for updating display on longboard
static void tc_callback_update_sseg(struct tc_module *const module_inst)
{
    3914:	b508      	push	{r3, lr}
	background_service_platform();
    3916:	4b01      	ldr	r3, [pc, #4]	; (391c <tc_callback_update_sseg+0x8>)
    3918:	4798      	blx	r3
}
    391a:	bd08      	pop	{r3, pc}
    391c:	00000871 	.word	0x00000871

00003920 <usart_serial_getchar>:
 * \param[out]    c       Destination for the read character.
 */
static inline void usart_serial_getchar(
		struct usart_module *const module,
		uint8_t *c)
{
    3920:	b570      	push	{r4, r5, r6, lr}
    3922:	b082      	sub	sp, #8
    3924:	1c05      	adds	r5, r0, #0
    3926:	1c0e      	adds	r6, r1, #0
	uint16_t temp = 0;
    3928:	2200      	movs	r2, #0
    392a:	466b      	mov	r3, sp
    392c:	80da      	strh	r2, [r3, #6]

	while(STATUS_OK != usart_read_wait(module, &temp));
    392e:	4c06      	ldr	r4, [pc, #24]	; (3948 <usart_serial_getchar+0x28>)
    3930:	1c28      	adds	r0, r5, #0
    3932:	4669      	mov	r1, sp
    3934:	3106      	adds	r1, #6
    3936:	47a0      	blx	r4
    3938:	2800      	cmp	r0, #0
    393a:	d1f9      	bne.n	3930 <usart_serial_getchar+0x10>

	*c = temp;
    393c:	466b      	mov	r3, sp
    393e:	3306      	adds	r3, #6
    3940:	881b      	ldrh	r3, [r3, #0]
    3942:	7033      	strb	r3, [r6, #0]
}
    3944:	b002      	add	sp, #8
    3946:	bd70      	pop	{r4, r5, r6, pc}
    3948:	00002609 	.word	0x00002609

0000394c <usart_serial_putchar>:
 * \return Status code
 */
static inline enum status_code usart_serial_putchar(
		struct usart_module *const module,
		uint8_t c)
{
    394c:	b570      	push	{r4, r5, r6, lr}
    394e:	1c06      	adds	r6, r0, #0
    3950:	1c0d      	adds	r5, r1, #0
	while(STATUS_OK !=usart_write_wait(module, c));
    3952:	4c03      	ldr	r4, [pc, #12]	; (3960 <usart_serial_putchar+0x14>)
    3954:	1c30      	adds	r0, r6, #0
    3956:	1c29      	adds	r1, r5, #0
    3958:	47a0      	blx	r4
    395a:	2800      	cmp	r0, #0
    395c:	d1fa      	bne.n	3954 <usart_serial_putchar+0x8>

	return STATUS_OK;
}
    395e:	bd70      	pop	{r4, r5, r6, pc}
    3960:	000025dd 	.word	0x000025dd

00003964 <main>:


int main (void)
{
    3964:	b570      	push	{r4, r5, r6, lr}
    3966:	b096      	sub	sp, #88	; 0x58
	system_init();
    3968:	4b44      	ldr	r3, [pc, #272]	; (3a7c <main+0x118>)
    396a:	4798      	blx	r3
	delay_init();
    396c:	4b44      	ldr	r3, [pc, #272]	; (3a80 <main+0x11c>)
    396e:	4798      	blx	r3
{
	/* Sanity check arguments */
	Assert(config);

	/* Set default config in the config struct */
	config->data_order       = USART_DATAORDER_LSB;
    3970:	2380      	movs	r3, #128	; 0x80
    3972:	05db      	lsls	r3, r3, #23
    3974:	9300      	str	r3, [sp, #0]
	config->transfer_mode    = USART_TRANSFER_ASYNCHRONOUSLY;
    3976:	2300      	movs	r3, #0
    3978:	9301      	str	r3, [sp, #4]
	config->parity           = USART_PARITY_NONE;
    397a:	22ff      	movs	r2, #255	; 0xff
    397c:	4668      	mov	r0, sp
    397e:	8102      	strh	r2, [r0, #8]
	config->stopbits         = USART_STOPBITS_1;
    3980:	2200      	movs	r2, #0
    3982:	7283      	strb	r3, [r0, #10]
	config->character_size   = USART_CHARACTER_SIZE_8BIT;
    3984:	72c3      	strb	r3, [r0, #11]
	config->baudrate         = 9600;
	config->receiver_enable  = true;
    3986:	2101      	movs	r1, #1
    3988:	2024      	movs	r0, #36	; 0x24
    398a:	466c      	mov	r4, sp
    398c:	5421      	strb	r1, [r4, r0]
	config->transmitter_enable = true;
    398e:	2025      	movs	r0, #37	; 0x25
    3990:	5421      	strb	r1, [r4, r0]
	config->clock_polarity_inverted = false;
    3992:	2126      	movs	r1, #38	; 0x26
    3994:	5463      	strb	r3, [r4, r1]
	config->use_external_clock = false;
    3996:	2127      	movs	r1, #39	; 0x27
    3998:	5463      	strb	r3, [r4, r1]
	config->ext_clock_freq   = 0;
    399a:	930a      	str	r3, [sp, #40]	; 0x28
	config->mux_setting      = USART_RX_1_TX_2_XCK_3;
    399c:	2188      	movs	r1, #136	; 0x88
    399e:	0349      	lsls	r1, r1, #13
    39a0:	9103      	str	r1, [sp, #12]
	config->run_in_standby   = false;
    39a2:	212c      	movs	r1, #44	; 0x2c
    39a4:	5463      	strb	r3, [r4, r1]
	config->pinmux_pad0      = PINMUX_DEFAULT;
	config->pinmux_pad1      = PINMUX_DEFAULT;
	config->pinmux_pad2      = PINMUX_DEFAULT;
	config->pinmux_pad3      = PINMUX_DEFAULT;
#ifdef FEATURE_USART_OVER_SAMPLE
	config->sample_adjustment     = USART_SAMPLE_ADJUSTMENT_7_8_9;
    39a6:	9305      	str	r3, [sp, #20]
	config->sample_rate           = USART_SAMPLE_RATE_16X_ARITHMETIC;
    39a8:	8223      	strh	r3, [r4, #16]
#endif
#ifdef FEATURE_USART_LIN_SLAVE
	config->lin_slave_enable      = false;
    39aa:	76e3      	strb	r3, [r4, #27]
	config->lin_header_delay = LIN_MASTER_HEADER_DELAY_0;
	config->lin_break_length = LIN_MASTER_BREAK_LENGTH_13_BIT;
#endif

#ifdef FEATURE_USART_IMMEDIATE_BUFFER_OVERFLOW_NOTIFICATION
	config->immediate_buffer_overflow_notification  = false;
    39ac:	7622      	strb	r2, [r4, #24]
#endif
#ifdef FEATURE_USART_START_FRAME_DECTION
	config->start_frame_detection_enable            = false;
    39ae:	7722      	strb	r2, [r4, #28]
#endif
#ifdef FEATURE_USART_IRDA
	config->encoding_format_enable                  = false;
    39b0:	7662      	strb	r2, [r4, #25]
	config->receive_pulse_length                    = 19;
    39b2:	2313      	movs	r3, #19
    39b4:	76a3      	strb	r3, [r4, #26]
	config->iso7816_config.inhibit_nack             = ISO7816_INHIBIT_NACK_DISABLE;
	config->iso7816_config.successive_recv_nack     = ISO7816_SUCCESSIVE_RECV_NACK_DISABLE;
	config->iso7816_config.max_iterations           = 7;
#endif
#ifdef FEATURE_USART_COLLISION_DECTION
	config->collision_detection_enable              = false;
    39b6:	7762      	strb	r2, [r4, #29]
{
	struct usart_config uart_settings;
	usart_get_config_defaults(&uart_settings);
	
	//Set clock to 8M
	uart_settings.generator_source = GCLK_GENERATOR_3;
    39b8:	2203      	movs	r2, #3
    39ba:	232d      	movs	r3, #45	; 0x2d
    39bc:	54e2      	strb	r2, [r4, r3]
	
	uart_settings.mux_setting = USART_RX_1_TX_2_XCK_3;
	uart_settings.pinmux_pad0 = PINMUX_PA24C_SERCOM3_PAD2; // Tx
    39be:	4b31      	ldr	r3, [pc, #196]	; (3a84 <main+0x120>)
    39c0:	930c      	str	r3, [sp, #48]	; 0x30
	uart_settings.pinmux_pad1 = PINMUX_PA23C_SERCOM3_PAD1; // Rx
    39c2:	4b31      	ldr	r3, [pc, #196]	; (3a88 <main+0x124>)
    39c4:	930d      	str	r3, [sp, #52]	; 0x34
	uart_settings.pinmux_pad2 = PINMUX_UNUSED;
    39c6:	2301      	movs	r3, #1
    39c8:	425b      	negs	r3, r3
    39ca:	930e      	str	r3, [sp, #56]	; 0x38
	uart_settings.pinmux_pad3 = PINMUX_UNUSED;
    39cc:	930f      	str	r3, [sp, #60]	; 0x3c
	uart_settings.baudrate = 11500;
    39ce:	4b2f      	ldr	r3, [pc, #188]	; (3a8c <main+0x128>)
    39d0:	9308      	str	r3, [sp, #32]
	while (usart_init(&usart_instance, SERCOM3, &uart_settings) != STATUS_OK){}
    39d2:	4e2f      	ldr	r6, [pc, #188]	; (3a90 <main+0x12c>)
    39d4:	4d2f      	ldr	r5, [pc, #188]	; (3a94 <main+0x130>)
    39d6:	4c30      	ldr	r4, [pc, #192]	; (3a98 <main+0x134>)
    39d8:	1c30      	adds	r0, r6, #0
    39da:	1c29      	adds	r1, r5, #0
    39dc:	466a      	mov	r2, sp
    39de:	47a0      	blx	r4
    39e0:	2800      	cmp	r0, #0
    39e2:	d1f9      	bne.n	39d8 <main+0x74>
static inline void stdio_serial_init(
		struct usart_module *const module,
		usart_inst_t const hw,
		const struct usart_config *const config)
{
	stdio_base = (void *)module;
    39e4:	4c2a      	ldr	r4, [pc, #168]	; (3a90 <main+0x12c>)
    39e6:	4b2d      	ldr	r3, [pc, #180]	; (3a9c <main+0x138>)
    39e8:	601c      	str	r4, [r3, #0]
	ptr_put = (int (*)(void volatile*,char))&usart_serial_putchar;
    39ea:	4a2d      	ldr	r2, [pc, #180]	; (3aa0 <main+0x13c>)
    39ec:	4b2d      	ldr	r3, [pc, #180]	; (3aa4 <main+0x140>)
    39ee:	601a      	str	r2, [r3, #0]
	ptr_get = (void (*)(void volatile*,char*))&usart_serial_getchar;
    39f0:	4a2d      	ldr	r2, [pc, #180]	; (3aa8 <main+0x144>)
    39f2:	4b2e      	ldr	r3, [pc, #184]	; (3aac <main+0x148>)
    39f4:	601a      	str	r2, [r3, #0]
static inline bool usart_serial_init(
		struct usart_module *const module,
		usart_inst_t const hw,
		const struct usart_config *const config)
{
	if (usart_init(module, hw, config) == STATUS_OK) {
    39f6:	1c20      	adds	r0, r4, #0
    39f8:	4926      	ldr	r1, [pc, #152]	; (3a94 <main+0x130>)
    39fa:	466a      	mov	r2, sp
    39fc:	4b26      	ldr	r3, [pc, #152]	; (3a98 <main+0x134>)
    39fe:	4798      	blx	r3

	usart_serial_init(module, hw, config);
# if defined(__GNUC__)
	// Specify that stdout and stdin should not be buffered.
	setbuf(stdout, NULL);
    3a00:	4e2b      	ldr	r6, [pc, #172]	; (3ab0 <main+0x14c>)
    3a02:	6833      	ldr	r3, [r6, #0]
    3a04:	6898      	ldr	r0, [r3, #8]
    3a06:	2100      	movs	r1, #0
    3a08:	4d2a      	ldr	r5, [pc, #168]	; (3ab4 <main+0x150>)
    3a0a:	47a8      	blx	r5
	setbuf(stdin, NULL);
    3a0c:	6833      	ldr	r3, [r6, #0]
    3a0e:	6858      	ldr	r0, [r3, #4]
    3a10:	2100      	movs	r1, #0
    3a12:	47a8      	blx	r5
	/* Sanity check arguments */
	Assert(module);
	Assert(module->hw);

	/* Get a pointer to the hardware module instance */
	SercomUsart *const usart_hw = &(module->hw->USART);
    3a14:	6825      	ldr	r5, [r4, #0]

#if USART_CALLBACK_MODE == true
	/* Enable Global interrupt for module */
	system_interrupt_enable(_sercom_get_interrupt_vector(module->hw));
    3a16:	1c28      	adds	r0, r5, #0
    3a18:	4b27      	ldr	r3, [pc, #156]	; (3ab8 <main+0x154>)
    3a1a:	4798      	blx	r3
    3a1c:	221f      	movs	r2, #31
    3a1e:	4010      	ands	r0, r2
    3a20:	2201      	movs	r2, #1
    3a22:	4082      	lsls	r2, r0
    3a24:	4b25      	ldr	r3, [pc, #148]	; (3abc <main+0x158>)
    3a26:	601a      	str	r2, [r3, #0]
{
	/* Sanity check arguments */
	Assert(module);
	Assert(module->hw);

	SercomUsart *const usart_hw = &(module->hw->USART);
    3a28:	6823      	ldr	r3, [r4, #0]

#ifdef FEATURE_USART_SYNC_SCHEME_V2
	return (usart_hw->SYNCBUSY.reg);
    3a2a:	69da      	ldr	r2, [r3, #28]
		const struct usart_module *const module)
{
	/* Sanity check */
	Assert(module);

	while (usart_is_syncing(module)) {
    3a2c:	2a00      	cmp	r2, #0
    3a2e:	d1fc      	bne.n	3a2a <main+0xc6>

	/* Wait until synchronization is complete */
	_usart_wait_for_sync(module);

	/* Enable USART module */
	usart_hw->CTRLA.reg |= SERCOM_USART_CTRLA_ENABLE;
    3a30:	682a      	ldr	r2, [r5, #0]
    3a32:	2302      	movs	r3, #2
    3a34:	4313      	orrs	r3, r2
    3a36:	602b      	str	r3, [r5, #0]
	
	stdio_serial_init(&usart_instance, SERCOM3, &uart_settings);
	usart_enable(&usart_instance);
	
	printf("\n\rUart0 init!\n\r");
    3a38:	4821      	ldr	r0, [pc, #132]	; (3ac0 <main+0x15c>)
    3a3a:	4b22      	ldr	r3, [pc, #136]	; (3ac4 <main+0x160>)
    3a3c:	4798      	blx	r3
	init_uart0();
	
	//Timer set up
	configure_tc(0xff);
    3a3e:	20ff      	movs	r0, #255	; 0xff
    3a40:	4b21      	ldr	r3, [pc, #132]	; (3ac8 <main+0x164>)
    3a42:	4798      	blx	r3
	configure_tc_callbacks(tc_callback_update_sseg);
    3a44:	4821      	ldr	r0, [pc, #132]	; (3acc <main+0x168>)
    3a46:	4b22      	ldr	r3, [pc, #136]	; (3ad0 <main+0x16c>)
    3a48:	4798      	blx	r3
	
	//Set up adc
	void (*adc_callbacks[6])(uint16_t) = {update_adxl_gforce_z, update_adxl_gforce_y, update_adxl_gforce_x};
    3a4a:	2300      	movs	r3, #0
    3a4c:	9313      	str	r3, [sp, #76]	; 0x4c
    3a4e:	9314      	str	r3, [sp, #80]	; 0x50
    3a50:	9315      	str	r3, [sp, #84]	; 0x54
    3a52:	4b20      	ldr	r3, [pc, #128]	; (3ad4 <main+0x170>)
    3a54:	9310      	str	r3, [sp, #64]	; 0x40
    3a56:	4b20      	ldr	r3, [pc, #128]	; (3ad8 <main+0x174>)
    3a58:	9311      	str	r3, [sp, #68]	; 0x44
    3a5a:	4b20      	ldr	r3, [pc, #128]	; (3adc <main+0x178>)
    3a5c:	9312      	str	r3, [sp, #72]	; 0x48
	configure_adc(3, adc_callbacks);
    3a5e:	2003      	movs	r0, #3
    3a60:	a910      	add	r1, sp, #64	; 0x40
    3a62:	4b1f      	ldr	r3, [pc, #124]	; (3ae0 <main+0x17c>)
    3a64:	4798      	blx	r3
	
	init_platform();
    3a66:	4b1f      	ldr	r3, [pc, #124]	; (3ae4 <main+0x180>)
    3a68:	4798      	blx	r3
	
	//Wait some for button read and then calibrate adxl
	init_adxl_calibration(adxl_calibrate_button_platform);
    3a6a:	481f      	ldr	r0, [pc, #124]	; (3ae8 <main+0x184>)
    3a6c:	4b1f      	ldr	r3, [pc, #124]	; (3aec <main+0x188>)
    3a6e:	4798      	blx	r3
	
	while (true) {
		/* Infinite loop */

			//Update floats from accelerometer
			recalculate_accelerometer_values();
    3a70:	4d1f      	ldr	r5, [pc, #124]	; (3af0 <main+0x18c>)
			
			//Run platform specifics
			main_platform();
    3a72:	4c20      	ldr	r4, [pc, #128]	; (3af4 <main+0x190>)
	
	while (true) {
		/* Infinite loop */

			//Update floats from accelerometer
			recalculate_accelerometer_values();
    3a74:	47a8      	blx	r5
			
			//Run platform specifics
			main_platform();
    3a76:	47a0      	blx	r4
    3a78:	e7fc      	b.n	3a74 <main+0x110>
    3a7a:	46c0      	nop			; (mov r8, r8)
    3a7c:	00002e51 	.word	0x00002e51
    3a80:	0000101d 	.word	0x0000101d
    3a84:	00180002 	.word	0x00180002
    3a88:	00170002 	.word	0x00170002
    3a8c:	00002cec 	.word	0x00002cec
    3a90:	200002f0 	.word	0x200002f0
    3a94:	42001400 	.word	0x42001400
    3a98:	000022e5 	.word	0x000022e5
    3a9c:	200002ec 	.word	0x200002ec
    3aa0:	0000394d 	.word	0x0000394d
    3aa4:	200002e8 	.word	0x200002e8
    3aa8:	00003921 	.word	0x00003921
    3aac:	200002e4 	.word	0x200002e4
    3ab0:	20000070 	.word	0x20000070
    3ab4:	000041f1 	.word	0x000041f1
    3ab8:	00002205 	.word	0x00002205
    3abc:	e000e100 	.word	0xe000e100
    3ac0:	00009c58 	.word	0x00009c58
    3ac4:	000041bd 	.word	0x000041bd
    3ac8:	00000f61 	.word	0x00000f61
    3acc:	00003915 	.word	0x00003915
    3ad0:	00000fd1 	.word	0x00000fd1
    3ad4:	00003909 	.word	0x00003909
    3ad8:	000038fd 	.word	0x000038fd
    3adc:	000038f1 	.word	0x000038f1
    3ae0:	00000681 	.word	0x00000681
    3ae4:	0000081d 	.word	0x0000081d
    3ae8:	20000224 	.word	0x20000224
    3aec:	00000451 	.word	0x00000451
    3af0:	00000111 	.word	0x00000111
    3af4:	000008a9 	.word	0x000008a9

00003af8 <atan>:
    3af8:	b5f8      	push	{r3, r4, r5, r6, r7, lr}
    3afa:	4656      	mov	r6, sl
    3afc:	464d      	mov	r5, r9
    3afe:	4644      	mov	r4, r8
    3b00:	465f      	mov	r7, fp
    3b02:	4bc5      	ldr	r3, [pc, #788]	; (3e18 <atan+0x320>)
    3b04:	b4f0      	push	{r4, r5, r6, r7}
    3b06:	004e      	lsls	r6, r1, #1
    3b08:	4681      	mov	r9, r0
    3b0a:	4688      	mov	r8, r1
    3b0c:	468a      	mov	sl, r1
    3b0e:	0876      	lsrs	r6, r6, #1
    3b10:	429e      	cmp	r6, r3
    3b12:	dd0c      	ble.n	3b2e <atan+0x36>
    3b14:	4bc1      	ldr	r3, [pc, #772]	; (3e1c <atan+0x324>)
    3b16:	429e      	cmp	r6, r3
    3b18:	dd00      	ble.n	3b1c <atan+0x24>
    3b1a:	e0a7      	b.n	3c6c <atan+0x174>
    3b1c:	d100      	bne.n	3b20 <atan+0x28>
    3b1e:	e0a2      	b.n	3c66 <atan+0x16e>
    3b20:	4650      	mov	r0, sl
    3b22:	4abf      	ldr	r2, [pc, #764]	; (3e20 <atan+0x328>)
    3b24:	2800      	cmp	r0, #0
    3b26:	dc00      	bgt.n	3b2a <atan+0x32>
    3b28:	e0e3      	b.n	3cf2 <atan+0x1fa>
    3b2a:	4bbe      	ldr	r3, [pc, #760]	; (3e24 <atan+0x32c>)
    3b2c:	e0a6      	b.n	3c7c <atan+0x184>
    3b2e:	4bbe      	ldr	r3, [pc, #760]	; (3e28 <atan+0x330>)
    3b30:	429e      	cmp	r6, r3
    3b32:	dd00      	ble.n	3b36 <atan+0x3e>
    3b34:	e0b8      	b.n	3ca8 <atan+0x1b0>
    3b36:	4bbd      	ldr	r3, [pc, #756]	; (3e2c <atan+0x334>)
    3b38:	429e      	cmp	r6, r3
    3b3a:	dc00      	bgt.n	3b3e <atan+0x46>
    3b3c:	e0a6      	b.n	3c8c <atan+0x194>
    3b3e:	2401      	movs	r4, #1
    3b40:	4264      	negs	r4, r4
    3b42:	46a3      	mov	fp, r4
    3b44:	464a      	mov	r2, r9
    3b46:	4643      	mov	r3, r8
    3b48:	4648      	mov	r0, r9
    3b4a:	4641      	mov	r1, r8
    3b4c:	f004 fea0 	bl	8890 <__aeabi_dmul>
    3b50:	1c06      	adds	r6, r0, #0
    3b52:	1c0f      	adds	r7, r1, #0
    3b54:	1c32      	adds	r2, r6, #0
    3b56:	1c3b      	adds	r3, r7, #0
    3b58:	f004 fe9a 	bl	8890 <__aeabi_dmul>
    3b5c:	4b8f      	ldr	r3, [pc, #572]	; (3d9c <atan+0x2a4>)
    3b5e:	4a8e      	ldr	r2, [pc, #568]	; (3d98 <atan+0x2a0>)
    3b60:	1c04      	adds	r4, r0, #0
    3b62:	1c0d      	adds	r5, r1, #0
    3b64:	f004 fe94 	bl	8890 <__aeabi_dmul>
    3b68:	4a8d      	ldr	r2, [pc, #564]	; (3da0 <atan+0x2a8>)
    3b6a:	4b8e      	ldr	r3, [pc, #568]	; (3da4 <atan+0x2ac>)
    3b6c:	f003 ff04 	bl	7978 <__aeabi_dadd>
    3b70:	1c22      	adds	r2, r4, #0
    3b72:	1c2b      	adds	r3, r5, #0
    3b74:	f004 fe8c 	bl	8890 <__aeabi_dmul>
    3b78:	4a8b      	ldr	r2, [pc, #556]	; (3da8 <atan+0x2b0>)
    3b7a:	4b8c      	ldr	r3, [pc, #560]	; (3dac <atan+0x2b4>)
    3b7c:	f003 fefc 	bl	7978 <__aeabi_dadd>
    3b80:	1c22      	adds	r2, r4, #0
    3b82:	1c2b      	adds	r3, r5, #0
    3b84:	f004 fe84 	bl	8890 <__aeabi_dmul>
    3b88:	4a89      	ldr	r2, [pc, #548]	; (3db0 <atan+0x2b8>)
    3b8a:	4b8a      	ldr	r3, [pc, #552]	; (3db4 <atan+0x2bc>)
    3b8c:	f003 fef4 	bl	7978 <__aeabi_dadd>
    3b90:	1c22      	adds	r2, r4, #0
    3b92:	1c2b      	adds	r3, r5, #0
    3b94:	f004 fe7c 	bl	8890 <__aeabi_dmul>
    3b98:	4a87      	ldr	r2, [pc, #540]	; (3db8 <atan+0x2c0>)
    3b9a:	4b88      	ldr	r3, [pc, #544]	; (3dbc <atan+0x2c4>)
    3b9c:	f003 feec 	bl	7978 <__aeabi_dadd>
    3ba0:	1c22      	adds	r2, r4, #0
    3ba2:	1c2b      	adds	r3, r5, #0
    3ba4:	f004 fe74 	bl	8890 <__aeabi_dmul>
    3ba8:	4a85      	ldr	r2, [pc, #532]	; (3dc0 <atan+0x2c8>)
    3baa:	4b86      	ldr	r3, [pc, #536]	; (3dc4 <atan+0x2cc>)
    3bac:	f003 fee4 	bl	7978 <__aeabi_dadd>
    3bb0:	1c32      	adds	r2, r6, #0
    3bb2:	1c3b      	adds	r3, r7, #0
    3bb4:	f004 fe6c 	bl	8890 <__aeabi_dmul>
    3bb8:	4a83      	ldr	r2, [pc, #524]	; (3dc8 <atan+0x2d0>)
    3bba:	4b84      	ldr	r3, [pc, #528]	; (3dcc <atan+0x2d4>)
    3bbc:	1c06      	adds	r6, r0, #0
    3bbe:	1c0f      	adds	r7, r1, #0
    3bc0:	1c20      	adds	r0, r4, #0
    3bc2:	1c29      	adds	r1, r5, #0
    3bc4:	f004 fe64 	bl	8890 <__aeabi_dmul>
    3bc8:	4a81      	ldr	r2, [pc, #516]	; (3dd0 <atan+0x2d8>)
    3bca:	4b82      	ldr	r3, [pc, #520]	; (3dd4 <atan+0x2dc>)
    3bcc:	f005 f8f0 	bl	8db0 <__aeabi_dsub>
    3bd0:	1c22      	adds	r2, r4, #0
    3bd2:	1c2b      	adds	r3, r5, #0
    3bd4:	f004 fe5c 	bl	8890 <__aeabi_dmul>
    3bd8:	4a7f      	ldr	r2, [pc, #508]	; (3dd8 <atan+0x2e0>)
    3bda:	4b80      	ldr	r3, [pc, #512]	; (3ddc <atan+0x2e4>)
    3bdc:	f005 f8e8 	bl	8db0 <__aeabi_dsub>
    3be0:	1c22      	adds	r2, r4, #0
    3be2:	1c2b      	adds	r3, r5, #0
    3be4:	f004 fe54 	bl	8890 <__aeabi_dmul>
    3be8:	4a7d      	ldr	r2, [pc, #500]	; (3de0 <atan+0x2e8>)
    3bea:	4b7e      	ldr	r3, [pc, #504]	; (3de4 <atan+0x2ec>)
    3bec:	f005 f8e0 	bl	8db0 <__aeabi_dsub>
    3bf0:	1c22      	adds	r2, r4, #0
    3bf2:	1c2b      	adds	r3, r5, #0
    3bf4:	f004 fe4c 	bl	8890 <__aeabi_dmul>
    3bf8:	4a7b      	ldr	r2, [pc, #492]	; (3de8 <atan+0x2f0>)
    3bfa:	4b7c      	ldr	r3, [pc, #496]	; (3dec <atan+0x2f4>)
    3bfc:	f005 f8d8 	bl	8db0 <__aeabi_dsub>
    3c00:	1c22      	adds	r2, r4, #0
    3c02:	1c2b      	adds	r3, r5, #0
    3c04:	f004 fe44 	bl	8890 <__aeabi_dmul>
    3c08:	1c02      	adds	r2, r0, #0
    3c0a:	4658      	mov	r0, fp
    3c0c:	1c0b      	adds	r3, r1, #0
    3c0e:	3001      	adds	r0, #1
    3c10:	d100      	bne.n	3c14 <atan+0x11c>
    3c12:	e070      	b.n	3cf6 <atan+0x1fe>
    3c14:	4659      	mov	r1, fp
    3c16:	00cc      	lsls	r4, r1, #3
    3c18:	1c30      	adds	r0, r6, #0
    3c1a:	1c39      	adds	r1, r7, #0
    3c1c:	f003 feac 	bl	7978 <__aeabi_dadd>
    3c20:	464a      	mov	r2, r9
    3c22:	4643      	mov	r3, r8
    3c24:	f004 fe34 	bl	8890 <__aeabi_dmul>
    3c28:	4d81      	ldr	r5, [pc, #516]	; (3e30 <atan+0x338>)
    3c2a:	1c0b      	adds	r3, r1, #0
    3c2c:	4981      	ldr	r1, [pc, #516]	; (3e34 <atan+0x33c>)
    3c2e:	192d      	adds	r5, r5, r4
    3c30:	1c02      	adds	r2, r0, #0
    3c32:	190c      	adds	r4, r1, r4
    3c34:	1c10      	adds	r0, r2, #0
    3c36:	1c19      	adds	r1, r3, #0
    3c38:	6822      	ldr	r2, [r4, #0]
    3c3a:	6863      	ldr	r3, [r4, #4]
    3c3c:	f005 f8b8 	bl	8db0 <__aeabi_dsub>
    3c40:	464a      	mov	r2, r9
    3c42:	4643      	mov	r3, r8
    3c44:	f005 f8b4 	bl	8db0 <__aeabi_dsub>
    3c48:	1c02      	adds	r2, r0, #0
    3c4a:	1c0b      	adds	r3, r1, #0
    3c4c:	6828      	ldr	r0, [r5, #0]
    3c4e:	6869      	ldr	r1, [r5, #4]
    3c50:	f005 f8ae 	bl	8db0 <__aeabi_dsub>
    3c54:	1c02      	adds	r2, r0, #0
    3c56:	4650      	mov	r0, sl
    3c58:	1c0b      	adds	r3, r1, #0
    3c5a:	2800      	cmp	r0, #0
    3c5c:	da0e      	bge.n	3c7c <atan+0x184>
    3c5e:	2080      	movs	r0, #128	; 0x80
    3c60:	0600      	lsls	r0, r0, #24
    3c62:	180b      	adds	r3, r1, r0
    3c64:	e00a      	b.n	3c7c <atan+0x184>
    3c66:	2800      	cmp	r0, #0
    3c68:	d100      	bne.n	3c6c <atan+0x174>
    3c6a:	e759      	b.n	3b20 <atan+0x28>
    3c6c:	464a      	mov	r2, r9
    3c6e:	4643      	mov	r3, r8
    3c70:	4648      	mov	r0, r9
    3c72:	4641      	mov	r1, r8
    3c74:	f003 fe80 	bl	7978 <__aeabi_dadd>
    3c78:	1c02      	adds	r2, r0, #0
    3c7a:	1c0b      	adds	r3, r1, #0
    3c7c:	1c10      	adds	r0, r2, #0
    3c7e:	1c19      	adds	r1, r3, #0
    3c80:	bc3c      	pop	{r2, r3, r4, r5}
    3c82:	4690      	mov	r8, r2
    3c84:	4699      	mov	r9, r3
    3c86:	46a2      	mov	sl, r4
    3c88:	46ab      	mov	fp, r5
    3c8a:	bdf8      	pop	{r3, r4, r5, r6, r7, pc}
    3c8c:	4a58      	ldr	r2, [pc, #352]	; (3df0 <atan+0x2f8>)
    3c8e:	4b59      	ldr	r3, [pc, #356]	; (3df4 <atan+0x2fc>)
    3c90:	f003 fe72 	bl	7978 <__aeabi_dadd>
    3c94:	4a58      	ldr	r2, [pc, #352]	; (3df8 <atan+0x300>)
    3c96:	4b59      	ldr	r3, [pc, #356]	; (3dfc <atan+0x304>)
    3c98:	f002 ff2a 	bl	6af0 <__aeabi_dcmpgt>
    3c9c:	2800      	cmp	r0, #0
    3c9e:	d100      	bne.n	3ca2 <atan+0x1aa>
    3ca0:	e74d      	b.n	3b3e <atan+0x46>
    3ca2:	464a      	mov	r2, r9
    3ca4:	4643      	mov	r3, r8
    3ca6:	e7e9      	b.n	3c7c <atan+0x184>
    3ca8:	f000 f8ce 	bl	3e48 <fabs>
    3cac:	4b62      	ldr	r3, [pc, #392]	; (3e38 <atan+0x340>)
    3cae:	1c04      	adds	r4, r0, #0
    3cb0:	1c0d      	adds	r5, r1, #0
    3cb2:	429e      	cmp	r6, r3
    3cb4:	dc30      	bgt.n	3d18 <atan+0x220>
    3cb6:	4b61      	ldr	r3, [pc, #388]	; (3e3c <atan+0x344>)
    3cb8:	429e      	cmp	r6, r3
    3cba:	dc56      	bgt.n	3d6a <atan+0x272>
    3cbc:	1c22      	adds	r2, r4, #0
    3cbe:	1c2b      	adds	r3, r5, #0
    3cc0:	f003 fe5a 	bl	7978 <__aeabi_dadd>
    3cc4:	4a4c      	ldr	r2, [pc, #304]	; (3df8 <atan+0x300>)
    3cc6:	4b4d      	ldr	r3, [pc, #308]	; (3dfc <atan+0x304>)
    3cc8:	f005 f872 	bl	8db0 <__aeabi_dsub>
    3ccc:	4a4c      	ldr	r2, [pc, #304]	; (3e00 <atan+0x308>)
    3cce:	4b4d      	ldr	r3, [pc, #308]	; (3e04 <atan+0x30c>)
    3cd0:	1c06      	adds	r6, r0, #0
    3cd2:	1c0f      	adds	r7, r1, #0
    3cd4:	1c20      	adds	r0, r4, #0
    3cd6:	1c29      	adds	r1, r5, #0
    3cd8:	f003 fe4e 	bl	7978 <__aeabi_dadd>
    3cdc:	1c02      	adds	r2, r0, #0
    3cde:	1c0b      	adds	r3, r1, #0
    3ce0:	1c30      	adds	r0, r6, #0
    3ce2:	1c39      	adds	r1, r7, #0
    3ce4:	f004 f96a 	bl	7fbc <__aeabi_ddiv>
    3ce8:	4688      	mov	r8, r1
    3cea:	2100      	movs	r1, #0
    3cec:	4681      	mov	r9, r0
    3cee:	468b      	mov	fp, r1
    3cf0:	e728      	b.n	3b44 <atan+0x4c>
    3cf2:	4b53      	ldr	r3, [pc, #332]	; (3e40 <atan+0x348>)
    3cf4:	e7c2      	b.n	3c7c <atan+0x184>
    3cf6:	1c30      	adds	r0, r6, #0
    3cf8:	1c39      	adds	r1, r7, #0
    3cfa:	f003 fe3d 	bl	7978 <__aeabi_dadd>
    3cfe:	464a      	mov	r2, r9
    3d00:	4643      	mov	r3, r8
    3d02:	f004 fdc5 	bl	8890 <__aeabi_dmul>
    3d06:	1c02      	adds	r2, r0, #0
    3d08:	1c0b      	adds	r3, r1, #0
    3d0a:	4648      	mov	r0, r9
    3d0c:	4641      	mov	r1, r8
    3d0e:	f005 f84f 	bl	8db0 <__aeabi_dsub>
    3d12:	1c02      	adds	r2, r0, #0
    3d14:	1c0b      	adds	r3, r1, #0
    3d16:	e7b1      	b.n	3c7c <atan+0x184>
    3d18:	4b4a      	ldr	r3, [pc, #296]	; (3e44 <atan+0x34c>)
    3d1a:	429e      	cmp	r6, r3
    3d1c:	dc1a      	bgt.n	3d54 <atan+0x25c>
    3d1e:	4a3a      	ldr	r2, [pc, #232]	; (3e08 <atan+0x310>)
    3d20:	4b3a      	ldr	r3, [pc, #232]	; (3e0c <atan+0x314>)
    3d22:	f005 f845 	bl	8db0 <__aeabi_dsub>
    3d26:	4a38      	ldr	r2, [pc, #224]	; (3e08 <atan+0x310>)
    3d28:	4b38      	ldr	r3, [pc, #224]	; (3e0c <atan+0x314>)
    3d2a:	1c06      	adds	r6, r0, #0
    3d2c:	1c0f      	adds	r7, r1, #0
    3d2e:	1c20      	adds	r0, r4, #0
    3d30:	1c29      	adds	r1, r5, #0
    3d32:	f004 fdad 	bl	8890 <__aeabi_dmul>
    3d36:	4a30      	ldr	r2, [pc, #192]	; (3df8 <atan+0x300>)
    3d38:	4b30      	ldr	r3, [pc, #192]	; (3dfc <atan+0x304>)
    3d3a:	f003 fe1d 	bl	7978 <__aeabi_dadd>
    3d3e:	1c02      	adds	r2, r0, #0
    3d40:	1c0b      	adds	r3, r1, #0
    3d42:	1c30      	adds	r0, r6, #0
    3d44:	1c39      	adds	r1, r7, #0
    3d46:	f004 f939 	bl	7fbc <__aeabi_ddiv>
    3d4a:	4681      	mov	r9, r0
    3d4c:	2002      	movs	r0, #2
    3d4e:	4688      	mov	r8, r1
    3d50:	4683      	mov	fp, r0
    3d52:	e6f7      	b.n	3b44 <atan+0x4c>
    3d54:	482e      	ldr	r0, [pc, #184]	; (3e10 <atan+0x318>)
    3d56:	492f      	ldr	r1, [pc, #188]	; (3e14 <atan+0x31c>)
    3d58:	1c22      	adds	r2, r4, #0
    3d5a:	1c2b      	adds	r3, r5, #0
    3d5c:	f004 f92e 	bl	7fbc <__aeabi_ddiv>
    3d60:	4688      	mov	r8, r1
    3d62:	2103      	movs	r1, #3
    3d64:	4681      	mov	r9, r0
    3d66:	468b      	mov	fp, r1
    3d68:	e6ec      	b.n	3b44 <atan+0x4c>
    3d6a:	4a23      	ldr	r2, [pc, #140]	; (3df8 <atan+0x300>)
    3d6c:	4b23      	ldr	r3, [pc, #140]	; (3dfc <atan+0x304>)
    3d6e:	f005 f81f 	bl	8db0 <__aeabi_dsub>
    3d72:	4a21      	ldr	r2, [pc, #132]	; (3df8 <atan+0x300>)
    3d74:	4b21      	ldr	r3, [pc, #132]	; (3dfc <atan+0x304>)
    3d76:	1c06      	adds	r6, r0, #0
    3d78:	1c0f      	adds	r7, r1, #0
    3d7a:	1c20      	adds	r0, r4, #0
    3d7c:	1c29      	adds	r1, r5, #0
    3d7e:	f003 fdfb 	bl	7978 <__aeabi_dadd>
    3d82:	1c0b      	adds	r3, r1, #0
    3d84:	1c02      	adds	r2, r0, #0
    3d86:	1c39      	adds	r1, r7, #0
    3d88:	1c30      	adds	r0, r6, #0
    3d8a:	f004 f917 	bl	7fbc <__aeabi_ddiv>
    3d8e:	2301      	movs	r3, #1
    3d90:	4681      	mov	r9, r0
    3d92:	4688      	mov	r8, r1
    3d94:	469b      	mov	fp, r3
    3d96:	e6d5      	b.n	3b44 <atan+0x4c>
    3d98:	e322da11 	.word	0xe322da11
    3d9c:	3f90ad3a 	.word	0x3f90ad3a
    3da0:	24760deb 	.word	0x24760deb
    3da4:	3fa97b4b 	.word	0x3fa97b4b
    3da8:	a0d03d51 	.word	0xa0d03d51
    3dac:	3fb10d66 	.word	0x3fb10d66
    3db0:	c54c206e 	.word	0xc54c206e
    3db4:	3fb745cd 	.word	0x3fb745cd
    3db8:	920083ff 	.word	0x920083ff
    3dbc:	3fc24924 	.word	0x3fc24924
    3dc0:	5555550d 	.word	0x5555550d
    3dc4:	3fd55555 	.word	0x3fd55555
    3dc8:	2c6a6c2f 	.word	0x2c6a6c2f
    3dcc:	bfa2b444 	.word	0xbfa2b444
    3dd0:	52defd9a 	.word	0x52defd9a
    3dd4:	3fadde2d 	.word	0x3fadde2d
    3dd8:	af749a6d 	.word	0xaf749a6d
    3ddc:	3fb3b0f2 	.word	0x3fb3b0f2
    3de0:	fe231671 	.word	0xfe231671
    3de4:	3fbc71c6 	.word	0x3fbc71c6
    3de8:	9998ebc4 	.word	0x9998ebc4
    3dec:	3fc99999 	.word	0x3fc99999
    3df0:	8800759c 	.word	0x8800759c
    3df4:	7e37e43c 	.word	0x7e37e43c
    3df8:	00000000 	.word	0x00000000
    3dfc:	3ff00000 	.word	0x3ff00000
    3e00:	00000000 	.word	0x00000000
    3e04:	40000000 	.word	0x40000000
    3e08:	00000000 	.word	0x00000000
    3e0c:	3ff80000 	.word	0x3ff80000
    3e10:	00000000 	.word	0x00000000
    3e14:	bff00000 	.word	0xbff00000
    3e18:	440fffff 	.word	0x440fffff
    3e1c:	7ff00000 	.word	0x7ff00000
    3e20:	54442d18 	.word	0x54442d18
    3e24:	3ff921fb 	.word	0x3ff921fb
    3e28:	3fdbffff 	.word	0x3fdbffff
    3e2c:	3e1fffff 	.word	0x3e1fffff
    3e30:	00009c88 	.word	0x00009c88
    3e34:	00009c68 	.word	0x00009c68
    3e38:	3ff2ffff 	.word	0x3ff2ffff
    3e3c:	3fe5ffff 	.word	0x3fe5ffff
    3e40:	bff921fb 	.word	0xbff921fb
    3e44:	40037fff 	.word	0x40037fff

00003e48 <fabs>:
    3e48:	004b      	lsls	r3, r1, #1
    3e4a:	0859      	lsrs	r1, r3, #1
    3e4c:	4770      	bx	lr
    3e4e:	46c0      	nop			; (mov r8, r8)

00003e50 <sqrt>:
    3e50:	b5f0      	push	{r4, r5, r6, r7, lr}
    3e52:	4647      	mov	r7, r8
    3e54:	b480      	push	{r7}
    3e56:	b08a      	sub	sp, #40	; 0x28
    3e58:	1c04      	adds	r4, r0, #0
    3e5a:	1c0d      	adds	r5, r1, #0
    3e5c:	f000 f858 	bl	3f10 <__ieee754_sqrt>
    3e60:	4a29      	ldr	r2, [pc, #164]	; (3f08 <sqrt+0xb8>)
    3e62:	2300      	movs	r3, #0
    3e64:	56d3      	ldrsb	r3, [r2, r3]
    3e66:	4690      	mov	r8, r2
    3e68:	1c06      	adds	r6, r0, #0
    3e6a:	1c0f      	adds	r7, r1, #0
    3e6c:	3301      	adds	r3, #1
    3e6e:	d00d      	beq.n	3e8c <sqrt+0x3c>
    3e70:	1c20      	adds	r0, r4, #0
    3e72:	1c29      	adds	r1, r5, #0
    3e74:	f000 f932 	bl	40dc <__fpclassifyd>
    3e78:	2800      	cmp	r0, #0
    3e7a:	d007      	beq.n	3e8c <sqrt+0x3c>
    3e7c:	1c20      	adds	r0, r4, #0
    3e7e:	1c29      	adds	r1, r5, #0
    3e80:	4b20      	ldr	r3, [pc, #128]	; (3f04 <sqrt+0xb4>)
    3e82:	4a1f      	ldr	r2, [pc, #124]	; (3f00 <sqrt+0xb0>)
    3e84:	f002 fe20 	bl	6ac8 <__aeabi_dcmplt>
    3e88:	2800      	cmp	r0, #0
    3e8a:	d105      	bne.n	3e98 <sqrt+0x48>
    3e8c:	1c30      	adds	r0, r6, #0
    3e8e:	1c39      	adds	r1, r7, #0
    3e90:	b00a      	add	sp, #40	; 0x28
    3e92:	bc04      	pop	{r2}
    3e94:	4690      	mov	r8, r2
    3e96:	bdf0      	pop	{r4, r5, r6, r7, pc}
    3e98:	2301      	movs	r3, #1
    3e9a:	9300      	str	r3, [sp, #0]
    3e9c:	4b1b      	ldr	r3, [pc, #108]	; (3f0c <sqrt+0xbc>)
    3e9e:	9404      	str	r4, [sp, #16]
    3ea0:	9505      	str	r5, [sp, #20]
    3ea2:	9301      	str	r3, [sp, #4]
    3ea4:	2300      	movs	r3, #0
    3ea6:	9308      	str	r3, [sp, #32]
    3ea8:	4643      	mov	r3, r8
    3eaa:	9402      	str	r4, [sp, #8]
    3eac:	9503      	str	r5, [sp, #12]
    3eae:	781c      	ldrb	r4, [r3, #0]
    3eb0:	2c00      	cmp	r4, #0
    3eb2:	d10e      	bne.n	3ed2 <sqrt+0x82>
    3eb4:	4b13      	ldr	r3, [pc, #76]	; (3f04 <sqrt+0xb4>)
    3eb6:	4a12      	ldr	r2, [pc, #72]	; (3f00 <sqrt+0xb0>)
    3eb8:	9206      	str	r2, [sp, #24]
    3eba:	9307      	str	r3, [sp, #28]
    3ebc:	4668      	mov	r0, sp
    3ebe:	f000 f93d 	bl	413c <matherr>
    3ec2:	2800      	cmp	r0, #0
    3ec4:	d00f      	beq.n	3ee6 <sqrt+0x96>
    3ec6:	9b08      	ldr	r3, [sp, #32]
    3ec8:	2b00      	cmp	r3, #0
    3eca:	d111      	bne.n	3ef0 <sqrt+0xa0>
    3ecc:	9e06      	ldr	r6, [sp, #24]
    3ece:	9f07      	ldr	r7, [sp, #28]
    3ed0:	e7dc      	b.n	3e8c <sqrt+0x3c>
    3ed2:	490c      	ldr	r1, [pc, #48]	; (3f04 <sqrt+0xb4>)
    3ed4:	480a      	ldr	r0, [pc, #40]	; (3f00 <sqrt+0xb0>)
    3ed6:	1c02      	adds	r2, r0, #0
    3ed8:	1c0b      	adds	r3, r1, #0
    3eda:	f004 f86f 	bl	7fbc <__aeabi_ddiv>
    3ede:	9006      	str	r0, [sp, #24]
    3ee0:	9107      	str	r1, [sp, #28]
    3ee2:	2c02      	cmp	r4, #2
    3ee4:	d1ea      	bne.n	3ebc <sqrt+0x6c>
    3ee6:	f000 f92b 	bl	4140 <__errno>
    3eea:	2321      	movs	r3, #33	; 0x21
    3eec:	6003      	str	r3, [r0, #0]
    3eee:	e7ea      	b.n	3ec6 <sqrt+0x76>
    3ef0:	f000 f926 	bl	4140 <__errno>
    3ef4:	9c08      	ldr	r4, [sp, #32]
    3ef6:	6004      	str	r4, [r0, #0]
    3ef8:	e7e8      	b.n	3ecc <sqrt+0x7c>
    3efa:	46c0      	nop			; (mov r8, r8)
    3efc:	46c0      	nop			; (mov r8, r8)
    3efe:	46c0      	nop			; (mov r8, r8)
	...
    3f08:	2000000d 	.word	0x2000000d
    3f0c:	00009ca8 	.word	0x00009ca8

00003f10 <__ieee754_sqrt>:
    3f10:	b5f0      	push	{r4, r5, r6, r7, lr}
    3f12:	465f      	mov	r7, fp
    3f14:	4656      	mov	r6, sl
    3f16:	464d      	mov	r5, r9
    3f18:	4644      	mov	r4, r8
    3f1a:	b4f0      	push	{r4, r5, r6, r7}
    3f1c:	4e6c      	ldr	r6, [pc, #432]	; (40d0 <__ieee754_sqrt+0x1c0>)
    3f1e:	1c0d      	adds	r5, r1, #0
    3f20:	1c37      	adds	r7, r6, #0
    3f22:	b083      	sub	sp, #12
    3f24:	1c04      	adds	r4, r0, #0
    3f26:	1c02      	adds	r2, r0, #0
    3f28:	1c0b      	adds	r3, r1, #0
    3f2a:	402f      	ands	r7, r5
    3f2c:	42b7      	cmp	r7, r6
    3f2e:	d100      	bne.n	3f32 <__ieee754_sqrt+0x22>
    3f30:	e0ad      	b.n	408e <__ieee754_sqrt+0x17e>
    3f32:	2900      	cmp	r1, #0
    3f34:	dc00      	bgt.n	3f38 <__ieee754_sqrt+0x28>
    3f36:	e08b      	b.n	4050 <__ieee754_sqrt+0x140>
    3f38:	152f      	asrs	r7, r5, #20
    3f3a:	d100      	bne.n	3f3e <__ieee754_sqrt+0x2e>
    3f3c:	e094      	b.n	4068 <__ieee754_sqrt+0x158>
    3f3e:	4d65      	ldr	r5, [pc, #404]	; (40d4 <__ieee754_sqrt+0x1c4>)
    3f40:	0309      	lsls	r1, r1, #12
    3f42:	2380      	movs	r3, #128	; 0x80
    3f44:	0b09      	lsrs	r1, r1, #12
    3f46:	035b      	lsls	r3, r3, #13
    3f48:	197f      	adds	r7, r7, r5
    3f4a:	430b      	orrs	r3, r1
    3f4c:	07fe      	lsls	r6, r7, #31
    3f4e:	d500      	bpl.n	3f52 <__ieee754_sqrt+0x42>
    3f50:	e070      	b.n	4034 <__ieee754_sqrt+0x124>
    3f52:	107f      	asrs	r7, r7, #1
    3f54:	0fc2      	lsrs	r2, r0, #31
    3f56:	46b8      	mov	r8, r7
    3f58:	005b      	lsls	r3, r3, #1
    3f5a:	2700      	movs	r7, #0
    3f5c:	2180      	movs	r1, #128	; 0x80
    3f5e:	189b      	adds	r3, r3, r2
    3f60:	2416      	movs	r4, #22
    3f62:	0042      	lsls	r2, r0, #1
    3f64:	9700      	str	r7, [sp, #0]
    3f66:	2000      	movs	r0, #0
    3f68:	0389      	lsls	r1, r1, #14
    3f6a:	1845      	adds	r5, r0, r1
    3f6c:	429d      	cmp	r5, r3
    3f6e:	dc04      	bgt.n	3f7a <__ieee754_sqrt+0x6a>
    3f70:	1868      	adds	r0, r5, r1
    3f72:	1b5b      	subs	r3, r3, r5
    3f74:	9d00      	ldr	r5, [sp, #0]
    3f76:	186d      	adds	r5, r5, r1
    3f78:	9500      	str	r5, [sp, #0]
    3f7a:	0fd5      	lsrs	r5, r2, #31
    3f7c:	005b      	lsls	r3, r3, #1
    3f7e:	3c01      	subs	r4, #1
    3f80:	195b      	adds	r3, r3, r5
    3f82:	0052      	lsls	r2, r2, #1
    3f84:	0849      	lsrs	r1, r1, #1
    3f86:	2c00      	cmp	r4, #0
    3f88:	d1ef      	bne.n	3f6a <__ieee754_sqrt+0x5a>
    3f8a:	2180      	movs	r1, #128	; 0x80
    3f8c:	2600      	movs	r6, #0
    3f8e:	0609      	lsls	r1, r1, #24
    3f90:	2520      	movs	r5, #32
    3f92:	9601      	str	r6, [sp, #4]
    3f94:	46b4      	mov	ip, r6
    3f96:	4689      	mov	r9, r1
    3f98:	e009      	b.n	3fae <__ieee754_sqrt+0x9e>
    3f9a:	4283      	cmp	r3, r0
    3f9c:	d046      	beq.n	402c <__ieee754_sqrt+0x11c>
    3f9e:	0fd4      	lsrs	r4, r2, #31
    3fa0:	005b      	lsls	r3, r3, #1
    3fa2:	3d01      	subs	r5, #1
    3fa4:	191b      	adds	r3, r3, r4
    3fa6:	0052      	lsls	r2, r2, #1
    3fa8:	0849      	lsrs	r1, r1, #1
    3faa:	2d00      	cmp	r5, #0
    3fac:	d01c      	beq.n	3fe8 <__ieee754_sqrt+0xd8>
    3fae:	4666      	mov	r6, ip
    3fb0:	198c      	adds	r4, r1, r6
    3fb2:	4283      	cmp	r3, r0
    3fb4:	ddf1      	ble.n	3f9a <__ieee754_sqrt+0x8a>
    3fb6:	1867      	adds	r7, r4, r1
    3fb8:	0fe6      	lsrs	r6, r4, #31
    3fba:	46bc      	mov	ip, r7
    3fbc:	07f6      	lsls	r6, r6, #31
    3fbe:	4682      	mov	sl, r0
    3fc0:	454e      	cmp	r6, r9
    3fc2:	d02c      	beq.n	401e <__ieee754_sqrt+0x10e>
    3fc4:	1a1b      	subs	r3, r3, r0
    3fc6:	42a2      	cmp	r2, r4
    3fc8:	4180      	sbcs	r0, r0
    3fca:	4240      	negs	r0, r0
    3fcc:	9f01      	ldr	r7, [sp, #4]
    3fce:	1a1b      	subs	r3, r3, r0
    3fd0:	1b12      	subs	r2, r2, r4
    3fd2:	187f      	adds	r7, r7, r1
    3fd4:	0fd4      	lsrs	r4, r2, #31
    3fd6:	005b      	lsls	r3, r3, #1
    3fd8:	3d01      	subs	r5, #1
    3fda:	9701      	str	r7, [sp, #4]
    3fdc:	4650      	mov	r0, sl
    3fde:	191b      	adds	r3, r3, r4
    3fe0:	0052      	lsls	r2, r2, #1
    3fe2:	0849      	lsrs	r1, r1, #1
    3fe4:	2d00      	cmp	r5, #0
    3fe6:	d1e2      	bne.n	3fae <__ieee754_sqrt+0x9e>
    3fe8:	4313      	orrs	r3, r2
    3fea:	d128      	bne.n	403e <__ieee754_sqrt+0x12e>
    3fec:	9801      	ldr	r0, [sp, #4]
    3fee:	0843      	lsrs	r3, r0, #1
    3ff0:	9d00      	ldr	r5, [sp, #0]
    3ff2:	4e39      	ldr	r6, [pc, #228]	; (40d8 <__ieee754_sqrt+0x1c8>)
    3ff4:	106a      	asrs	r2, r5, #1
    3ff6:	1992      	adds	r2, r2, r6
    3ff8:	07ed      	lsls	r5, r5, #31
    3ffa:	d502      	bpl.n	4002 <__ieee754_sqrt+0xf2>
    3ffc:	2180      	movs	r1, #128	; 0x80
    3ffe:	0609      	lsls	r1, r1, #24
    4000:	430b      	orrs	r3, r1
    4002:	4640      	mov	r0, r8
    4004:	0507      	lsls	r7, r0, #20
    4006:	18b9      	adds	r1, r7, r2
    4008:	1c1c      	adds	r4, r3, #0
    400a:	1c0d      	adds	r5, r1, #0
    400c:	1c20      	adds	r0, r4, #0
    400e:	1c29      	adds	r1, r5, #0
    4010:	b003      	add	sp, #12
    4012:	bc3c      	pop	{r2, r3, r4, r5}
    4014:	4690      	mov	r8, r2
    4016:	4699      	mov	r9, r3
    4018:	46a2      	mov	sl, r4
    401a:	46ab      	mov	fp, r5
    401c:	bdf0      	pop	{r4, r5, r6, r7, pc}
    401e:	0fff      	lsrs	r7, r7, #31
    4020:	07ff      	lsls	r7, r7, #31
    4022:	427e      	negs	r6, r7
    4024:	417e      	adcs	r6, r7
    4026:	46b2      	mov	sl, r6
    4028:	4482      	add	sl, r0
    402a:	e7cb      	b.n	3fc4 <__ieee754_sqrt+0xb4>
    402c:	4294      	cmp	r4, r2
    402e:	d9c2      	bls.n	3fb6 <__ieee754_sqrt+0xa6>
    4030:	1c18      	adds	r0, r3, #0
    4032:	e7b4      	b.n	3f9e <__ieee754_sqrt+0x8e>
    4034:	0fc2      	lsrs	r2, r0, #31
    4036:	005b      	lsls	r3, r3, #1
    4038:	189b      	adds	r3, r3, r2
    403a:	0040      	lsls	r0, r0, #1
    403c:	e789      	b.n	3f52 <__ieee754_sqrt+0x42>
    403e:	9901      	ldr	r1, [sp, #4]
    4040:	3101      	adds	r1, #1
    4042:	d02f      	beq.n	40a4 <__ieee754_sqrt+0x194>
    4044:	9c01      	ldr	r4, [sp, #4]
    4046:	2301      	movs	r3, #1
    4048:	4023      	ands	r3, r4
    404a:	191b      	adds	r3, r3, r4
    404c:	085b      	lsrs	r3, r3, #1
    404e:	e7cf      	b.n	3ff0 <__ieee754_sqrt+0xe0>
    4050:	006b      	lsls	r3, r5, #1
    4052:	085b      	lsrs	r3, r3, #1
    4054:	431a      	orrs	r2, r3
    4056:	d0d9      	beq.n	400c <__ieee754_sqrt+0xfc>
    4058:	2700      	movs	r7, #0
    405a:	2900      	cmp	r1, #0
    405c:	d12b      	bne.n	40b6 <__ieee754_sqrt+0x1a6>
    405e:	0ac1      	lsrs	r1, r0, #11
    4060:	3f15      	subs	r7, #21
    4062:	0540      	lsls	r0, r0, #21
    4064:	2900      	cmp	r1, #0
    4066:	d0fa      	beq.n	405e <__ieee754_sqrt+0x14e>
    4068:	2280      	movs	r2, #128	; 0x80
    406a:	0352      	lsls	r2, r2, #13
    406c:	4211      	tst	r1, r2
    406e:	d11e      	bne.n	40ae <__ieee754_sqrt+0x19e>
    4070:	2300      	movs	r3, #0
    4072:	0049      	lsls	r1, r1, #1
    4074:	3301      	adds	r3, #1
    4076:	4211      	tst	r1, r2
    4078:	d0fb      	beq.n	4072 <__ieee754_sqrt+0x162>
    407a:	2401      	movs	r4, #1
    407c:	2220      	movs	r2, #32
    407e:	1ae4      	subs	r4, r4, r3
    4080:	1ad2      	subs	r2, r2, r3
    4082:	193f      	adds	r7, r7, r4
    4084:	1c04      	adds	r4, r0, #0
    4086:	40d4      	lsrs	r4, r2
    4088:	4321      	orrs	r1, r4
    408a:	4098      	lsls	r0, r3
    408c:	e757      	b.n	3f3e <__ieee754_sqrt+0x2e>
    408e:	1c20      	adds	r0, r4, #0
    4090:	1c29      	adds	r1, r5, #0
    4092:	f004 fbfd 	bl	8890 <__aeabi_dmul>
    4096:	1c22      	adds	r2, r4, #0
    4098:	1c2b      	adds	r3, r5, #0
    409a:	f003 fc6d 	bl	7978 <__aeabi_dadd>
    409e:	1c04      	adds	r4, r0, #0
    40a0:	1c0d      	adds	r5, r1, #0
    40a2:	e7b3      	b.n	400c <__ieee754_sqrt+0xfc>
    40a4:	9a00      	ldr	r2, [sp, #0]
    40a6:	2300      	movs	r3, #0
    40a8:	3201      	adds	r2, #1
    40aa:	9200      	str	r2, [sp, #0]
    40ac:	e7a0      	b.n	3ff0 <__ieee754_sqrt+0xe0>
    40ae:	2220      	movs	r2, #32
    40b0:	2401      	movs	r4, #1
    40b2:	2300      	movs	r3, #0
    40b4:	e7e5      	b.n	4082 <__ieee754_sqrt+0x172>
    40b6:	1c22      	adds	r2, r4, #0
    40b8:	1c2b      	adds	r3, r5, #0
    40ba:	1c20      	adds	r0, r4, #0
    40bc:	1c29      	adds	r1, r5, #0
    40be:	f004 fe77 	bl	8db0 <__aeabi_dsub>
    40c2:	1c02      	adds	r2, r0, #0
    40c4:	1c0b      	adds	r3, r1, #0
    40c6:	f003 ff79 	bl	7fbc <__aeabi_ddiv>
    40ca:	1c04      	adds	r4, r0, #0
    40cc:	1c0d      	adds	r5, r1, #0
    40ce:	e79d      	b.n	400c <__ieee754_sqrt+0xfc>
    40d0:	7ff00000 	.word	0x7ff00000
    40d4:	fffffc01 	.word	0xfffffc01
    40d8:	3fe00000 	.word	0x3fe00000

000040dc <__fpclassifyd>:
    40dc:	1c0b      	adds	r3, r1, #0
    40de:	1c01      	adds	r1, r0, #0
    40e0:	1c02      	adds	r2, r0, #0
    40e2:	b530      	push	{r4, r5, lr}
    40e4:	4319      	orrs	r1, r3
    40e6:	2002      	movs	r0, #2
    40e8:	2900      	cmp	r1, #0
    40ea:	d100      	bne.n	40ee <__fpclassifyd+0x12>
    40ec:	bd30      	pop	{r4, r5, pc}
    40ee:	2180      	movs	r1, #128	; 0x80
    40f0:	0609      	lsls	r1, r1, #24
    40f2:	428b      	cmp	r3, r1
    40f4:	d016      	beq.n	4124 <__fpclassifyd+0x48>
    40f6:	490d      	ldr	r1, [pc, #52]	; (412c <__fpclassifyd+0x50>)
    40f8:	2004      	movs	r0, #4
    40fa:	185c      	adds	r4, r3, r1
    40fc:	490c      	ldr	r1, [pc, #48]	; (4130 <__fpclassifyd+0x54>)
    40fe:	428c      	cmp	r4, r1
    4100:	d9f4      	bls.n	40ec <__fpclassifyd+0x10>
    4102:	4d0c      	ldr	r5, [pc, #48]	; (4134 <__fpclassifyd+0x58>)
    4104:	195c      	adds	r4, r3, r5
    4106:	428c      	cmp	r4, r1
    4108:	d9f0      	bls.n	40ec <__fpclassifyd+0x10>
    410a:	4c0b      	ldr	r4, [pc, #44]	; (4138 <__fpclassifyd+0x5c>)
    410c:	0059      	lsls	r1, r3, #1
    410e:	0849      	lsrs	r1, r1, #1
    4110:	2003      	movs	r0, #3
    4112:	42a1      	cmp	r1, r4
    4114:	d9ea      	bls.n	40ec <__fpclassifyd+0x10>
    4116:	4c07      	ldr	r4, [pc, #28]	; (4134 <__fpclassifyd+0x58>)
    4118:	2000      	movs	r0, #0
    411a:	42a1      	cmp	r1, r4
    411c:	d1e6      	bne.n	40ec <__fpclassifyd+0x10>
    411e:	4250      	negs	r0, r2
    4120:	4150      	adcs	r0, r2
    4122:	e7e3      	b.n	40ec <__fpclassifyd+0x10>
    4124:	2a00      	cmp	r2, #0
    4126:	d0e1      	beq.n	40ec <__fpclassifyd+0x10>
    4128:	e7ef      	b.n	410a <__fpclassifyd+0x2e>
    412a:	46c0      	nop			; (mov r8, r8)
    412c:	fff00000 	.word	0xfff00000
    4130:	7fdfffff 	.word	0x7fdfffff
    4134:	7ff00000 	.word	0x7ff00000
    4138:	000fffff 	.word	0x000fffff

0000413c <matherr>:
    413c:	2000      	movs	r0, #0
    413e:	4770      	bx	lr

00004140 <__errno>:
    4140:	4b01      	ldr	r3, [pc, #4]	; (4148 <__errno+0x8>)
    4142:	6818      	ldr	r0, [r3, #0]
    4144:	4770      	bx	lr
    4146:	46c0      	nop			; (mov r8, r8)
    4148:	20000070 	.word	0x20000070

0000414c <__libc_init_array>:
    414c:	b570      	push	{r4, r5, r6, lr}
    414e:	4b0e      	ldr	r3, [pc, #56]	; (4188 <__libc_init_array+0x3c>)
    4150:	4d0e      	ldr	r5, [pc, #56]	; (418c <__libc_init_array+0x40>)
    4152:	2400      	movs	r4, #0
    4154:	1aed      	subs	r5, r5, r3
    4156:	10ad      	asrs	r5, r5, #2
    4158:	1c1e      	adds	r6, r3, #0
    415a:	42ac      	cmp	r4, r5
    415c:	d004      	beq.n	4168 <__libc_init_array+0x1c>
    415e:	00a3      	lsls	r3, r4, #2
    4160:	58f3      	ldr	r3, [r6, r3]
    4162:	4798      	blx	r3
    4164:	3401      	adds	r4, #1
    4166:	e7f8      	b.n	415a <__libc_init_array+0xe>
    4168:	f005 ff04 	bl	9f74 <_init>
    416c:	4b08      	ldr	r3, [pc, #32]	; (4190 <__libc_init_array+0x44>)
    416e:	4d09      	ldr	r5, [pc, #36]	; (4194 <__libc_init_array+0x48>)
    4170:	2400      	movs	r4, #0
    4172:	1aed      	subs	r5, r5, r3
    4174:	10ad      	asrs	r5, r5, #2
    4176:	1c1e      	adds	r6, r3, #0
    4178:	42ac      	cmp	r4, r5
    417a:	d004      	beq.n	4186 <__libc_init_array+0x3a>
    417c:	00a3      	lsls	r3, r4, #2
    417e:	58f3      	ldr	r3, [r6, r3]
    4180:	4798      	blx	r3
    4182:	3401      	adds	r4, #1
    4184:	e7f8      	b.n	4178 <__libc_init_array+0x2c>
    4186:	bd70      	pop	{r4, r5, r6, pc}
    4188:	00009f80 	.word	0x00009f80
    418c:	00009f80 	.word	0x00009f80
    4190:	00009f80 	.word	0x00009f80
    4194:	00009f84 	.word	0x00009f84

00004198 <memcpy>:
    4198:	b510      	push	{r4, lr}
    419a:	2300      	movs	r3, #0
    419c:	4293      	cmp	r3, r2
    419e:	d003      	beq.n	41a8 <memcpy+0x10>
    41a0:	5ccc      	ldrb	r4, [r1, r3]
    41a2:	54c4      	strb	r4, [r0, r3]
    41a4:	3301      	adds	r3, #1
    41a6:	e7f9      	b.n	419c <memcpy+0x4>
    41a8:	bd10      	pop	{r4, pc}

000041aa <memset>:
    41aa:	1c03      	adds	r3, r0, #0
    41ac:	1882      	adds	r2, r0, r2
    41ae:	4293      	cmp	r3, r2
    41b0:	d002      	beq.n	41b8 <memset+0xe>
    41b2:	7019      	strb	r1, [r3, #0]
    41b4:	3301      	adds	r3, #1
    41b6:	e7fa      	b.n	41ae <memset+0x4>
    41b8:	4770      	bx	lr
	...

000041bc <iprintf>:
    41bc:	b40f      	push	{r0, r1, r2, r3}
    41be:	4b0b      	ldr	r3, [pc, #44]	; (41ec <iprintf+0x30>)
    41c0:	b513      	push	{r0, r1, r4, lr}
    41c2:	681c      	ldr	r4, [r3, #0]
    41c4:	2c00      	cmp	r4, #0
    41c6:	d005      	beq.n	41d4 <iprintf+0x18>
    41c8:	69a3      	ldr	r3, [r4, #24]
    41ca:	2b00      	cmp	r3, #0
    41cc:	d102      	bne.n	41d4 <iprintf+0x18>
    41ce:	1c20      	adds	r0, r4, #0
    41d0:	f001 fe60 	bl	5e94 <__sinit>
    41d4:	ab05      	add	r3, sp, #20
    41d6:	68a1      	ldr	r1, [r4, #8]
    41d8:	1c20      	adds	r0, r4, #0
    41da:	9a04      	ldr	r2, [sp, #16]
    41dc:	9301      	str	r3, [sp, #4]
    41de:	f000 f8bf 	bl	4360 <_vfiprintf_r>
    41e2:	bc16      	pop	{r1, r2, r4}
    41e4:	bc08      	pop	{r3}
    41e6:	b004      	add	sp, #16
    41e8:	4718      	bx	r3
    41ea:	46c0      	nop			; (mov r8, r8)
    41ec:	20000070 	.word	0x20000070

000041f0 <setbuf>:
    41f0:	b508      	push	{r3, lr}
    41f2:	424a      	negs	r2, r1
    41f4:	414a      	adcs	r2, r1
    41f6:	2380      	movs	r3, #128	; 0x80
    41f8:	0052      	lsls	r2, r2, #1
    41fa:	00db      	lsls	r3, r3, #3
    41fc:	f000 f802 	bl	4204 <setvbuf>
    4200:	bd08      	pop	{r3, pc}
	...

00004204 <setvbuf>:
    4204:	b5f7      	push	{r0, r1, r2, r4, r5, r6, r7, lr}
    4206:	1c1e      	adds	r6, r3, #0
    4208:	4b3c      	ldr	r3, [pc, #240]	; (42fc <setvbuf+0xf8>)
    420a:	1c04      	adds	r4, r0, #0
    420c:	681d      	ldr	r5, [r3, #0]
    420e:	1c0f      	adds	r7, r1, #0
    4210:	9201      	str	r2, [sp, #4]
    4212:	2d00      	cmp	r5, #0
    4214:	d005      	beq.n	4222 <setvbuf+0x1e>
    4216:	69aa      	ldr	r2, [r5, #24]
    4218:	2a00      	cmp	r2, #0
    421a:	d102      	bne.n	4222 <setvbuf+0x1e>
    421c:	1c28      	adds	r0, r5, #0
    421e:	f001 fe39 	bl	5e94 <__sinit>
    4222:	4b37      	ldr	r3, [pc, #220]	; (4300 <setvbuf+0xfc>)
    4224:	429c      	cmp	r4, r3
    4226:	d101      	bne.n	422c <setvbuf+0x28>
    4228:	686c      	ldr	r4, [r5, #4]
    422a:	e008      	b.n	423e <setvbuf+0x3a>
    422c:	4b35      	ldr	r3, [pc, #212]	; (4304 <setvbuf+0x100>)
    422e:	429c      	cmp	r4, r3
    4230:	d101      	bne.n	4236 <setvbuf+0x32>
    4232:	68ac      	ldr	r4, [r5, #8]
    4234:	e003      	b.n	423e <setvbuf+0x3a>
    4236:	4b34      	ldr	r3, [pc, #208]	; (4308 <setvbuf+0x104>)
    4238:	429c      	cmp	r4, r3
    423a:	d100      	bne.n	423e <setvbuf+0x3a>
    423c:	68ec      	ldr	r4, [r5, #12]
    423e:	9b01      	ldr	r3, [sp, #4]
    4240:	2b02      	cmp	r3, #2
    4242:	d857      	bhi.n	42f4 <setvbuf+0xf0>
    4244:	2e00      	cmp	r6, #0
    4246:	db55      	blt.n	42f4 <setvbuf+0xf0>
    4248:	1c28      	adds	r0, r5, #0
    424a:	1c21      	adds	r1, r4, #0
    424c:	f001 fda2 	bl	5d94 <_fflush_r>
    4250:	2300      	movs	r3, #0
    4252:	6063      	str	r3, [r4, #4]
    4254:	61a3      	str	r3, [r4, #24]
    4256:	89a3      	ldrh	r3, [r4, #12]
    4258:	061a      	lsls	r2, r3, #24
    425a:	d503      	bpl.n	4264 <setvbuf+0x60>
    425c:	1c28      	adds	r0, r5, #0
    425e:	6921      	ldr	r1, [r4, #16]
    4260:	f002 f9ee 	bl	6640 <_free_r>
    4264:	89a3      	ldrh	r3, [r4, #12]
    4266:	2283      	movs	r2, #131	; 0x83
    4268:	4393      	bics	r3, r2
    426a:	81a3      	strh	r3, [r4, #12]
    426c:	9b01      	ldr	r3, [sp, #4]
    426e:	2b02      	cmp	r3, #2
    4270:	d013      	beq.n	429a <setvbuf+0x96>
    4272:	2f00      	cmp	r7, #0
    4274:	d125      	bne.n	42c2 <setvbuf+0xbe>
    4276:	2e00      	cmp	r6, #0
    4278:	d101      	bne.n	427e <setvbuf+0x7a>
    427a:	2680      	movs	r6, #128	; 0x80
    427c:	00f6      	lsls	r6, r6, #3
    427e:	1c30      	adds	r0, r6, #0
    4280:	f001 fecc 	bl	601c <malloc>
    4284:	1e07      	subs	r7, r0, #0
    4286:	d118      	bne.n	42ba <setvbuf+0xb6>
    4288:	2080      	movs	r0, #128	; 0x80
    428a:	00c0      	lsls	r0, r0, #3
    428c:	f001 fec6 	bl	601c <malloc>
    4290:	1e07      	subs	r7, r0, #0
    4292:	d110      	bne.n	42b6 <setvbuf+0xb2>
    4294:	2001      	movs	r0, #1
    4296:	4240      	negs	r0, r0
    4298:	e000      	b.n	429c <setvbuf+0x98>
    429a:	2000      	movs	r0, #0
    429c:	89a3      	ldrh	r3, [r4, #12]
    429e:	2202      	movs	r2, #2
    42a0:	4313      	orrs	r3, r2
    42a2:	81a3      	strh	r3, [r4, #12]
    42a4:	2300      	movs	r3, #0
    42a6:	60a3      	str	r3, [r4, #8]
    42a8:	1c23      	adds	r3, r4, #0
    42aa:	3347      	adds	r3, #71	; 0x47
    42ac:	6023      	str	r3, [r4, #0]
    42ae:	6123      	str	r3, [r4, #16]
    42b0:	2301      	movs	r3, #1
    42b2:	6163      	str	r3, [r4, #20]
    42b4:	e020      	b.n	42f8 <setvbuf+0xf4>
    42b6:	2680      	movs	r6, #128	; 0x80
    42b8:	00f6      	lsls	r6, r6, #3
    42ba:	89a3      	ldrh	r3, [r4, #12]
    42bc:	2280      	movs	r2, #128	; 0x80
    42be:	4313      	orrs	r3, r2
    42c0:	81a3      	strh	r3, [r4, #12]
    42c2:	9a01      	ldr	r2, [sp, #4]
    42c4:	2a01      	cmp	r2, #1
    42c6:	d104      	bne.n	42d2 <setvbuf+0xce>
    42c8:	89a3      	ldrh	r3, [r4, #12]
    42ca:	4313      	orrs	r3, r2
    42cc:	81a3      	strh	r3, [r4, #12]
    42ce:	4273      	negs	r3, r6
    42d0:	61a3      	str	r3, [r4, #24]
    42d2:	4b0e      	ldr	r3, [pc, #56]	; (430c <setvbuf+0x108>)
    42d4:	2000      	movs	r0, #0
    42d6:	62ab      	str	r3, [r5, #40]	; 0x28
    42d8:	89a3      	ldrh	r3, [r4, #12]
    42da:	6027      	str	r7, [r4, #0]
    42dc:	6127      	str	r7, [r4, #16]
    42de:	6166      	str	r6, [r4, #20]
    42e0:	071a      	lsls	r2, r3, #28
    42e2:	d509      	bpl.n	42f8 <setvbuf+0xf4>
    42e4:	2203      	movs	r2, #3
    42e6:	4013      	ands	r3, r2
    42e8:	425a      	negs	r2, r3
    42ea:	4153      	adcs	r3, r2
    42ec:	425b      	negs	r3, r3
    42ee:	401e      	ands	r6, r3
    42f0:	60a6      	str	r6, [r4, #8]
    42f2:	e001      	b.n	42f8 <setvbuf+0xf4>
    42f4:	2001      	movs	r0, #1
    42f6:	4240      	negs	r0, r0
    42f8:	bdfe      	pop	{r1, r2, r3, r4, r5, r6, r7, pc}
    42fa:	46c0      	nop			; (mov r8, r8)
    42fc:	20000070 	.word	0x20000070
    4300:	00009d0c 	.word	0x00009d0c
    4304:	00009d2c 	.word	0x00009d2c
    4308:	00009d4c 	.word	0x00009d4c
    430c:	00005ded 	.word	0x00005ded

00004310 <__sfputc_r>:
    4310:	6893      	ldr	r3, [r2, #8]
    4312:	b510      	push	{r4, lr}
    4314:	3b01      	subs	r3, #1
    4316:	6093      	str	r3, [r2, #8]
    4318:	2b00      	cmp	r3, #0
    431a:	da05      	bge.n	4328 <__sfputc_r+0x18>
    431c:	6994      	ldr	r4, [r2, #24]
    431e:	42a3      	cmp	r3, r4
    4320:	db08      	blt.n	4334 <__sfputc_r+0x24>
    4322:	b2cb      	uxtb	r3, r1
    4324:	2b0a      	cmp	r3, #10
    4326:	d005      	beq.n	4334 <__sfputc_r+0x24>
    4328:	6813      	ldr	r3, [r2, #0]
    432a:	1c58      	adds	r0, r3, #1
    432c:	6010      	str	r0, [r2, #0]
    432e:	7019      	strb	r1, [r3, #0]
    4330:	b2c8      	uxtb	r0, r1
    4332:	e001      	b.n	4338 <__sfputc_r+0x28>
    4334:	f000 fd72 	bl	4e1c <__swbuf_r>
    4338:	bd10      	pop	{r4, pc}

0000433a <__sfputs_r>:
    433a:	b5f8      	push	{r3, r4, r5, r6, r7, lr}
    433c:	1c06      	adds	r6, r0, #0
    433e:	1c0f      	adds	r7, r1, #0
    4340:	1c14      	adds	r4, r2, #0
    4342:	18d5      	adds	r5, r2, r3
    4344:	42ac      	cmp	r4, r5
    4346:	d008      	beq.n	435a <__sfputs_r+0x20>
    4348:	7821      	ldrb	r1, [r4, #0]
    434a:	1c30      	adds	r0, r6, #0
    434c:	1c3a      	adds	r2, r7, #0
    434e:	f7ff ffdf 	bl	4310 <__sfputc_r>
    4352:	3401      	adds	r4, #1
    4354:	1c43      	adds	r3, r0, #1
    4356:	d1f5      	bne.n	4344 <__sfputs_r+0xa>
    4358:	e000      	b.n	435c <__sfputs_r+0x22>
    435a:	2000      	movs	r0, #0
    435c:	bdf8      	pop	{r3, r4, r5, r6, r7, pc}
	...

00004360 <_vfiprintf_r>:
    4360:	b5f0      	push	{r4, r5, r6, r7, lr}
    4362:	b09f      	sub	sp, #124	; 0x7c
    4364:	1c06      	adds	r6, r0, #0
    4366:	1c0f      	adds	r7, r1, #0
    4368:	9203      	str	r2, [sp, #12]
    436a:	9305      	str	r3, [sp, #20]
    436c:	2800      	cmp	r0, #0
    436e:	d004      	beq.n	437a <_vfiprintf_r+0x1a>
    4370:	6981      	ldr	r1, [r0, #24]
    4372:	2900      	cmp	r1, #0
    4374:	d101      	bne.n	437a <_vfiprintf_r+0x1a>
    4376:	f001 fd8d 	bl	5e94 <__sinit>
    437a:	4b75      	ldr	r3, [pc, #468]	; (4550 <_vfiprintf_r+0x1f0>)
    437c:	429f      	cmp	r7, r3
    437e:	d101      	bne.n	4384 <_vfiprintf_r+0x24>
    4380:	6877      	ldr	r7, [r6, #4]
    4382:	e008      	b.n	4396 <_vfiprintf_r+0x36>
    4384:	4b73      	ldr	r3, [pc, #460]	; (4554 <_vfiprintf_r+0x1f4>)
    4386:	429f      	cmp	r7, r3
    4388:	d101      	bne.n	438e <_vfiprintf_r+0x2e>
    438a:	68b7      	ldr	r7, [r6, #8]
    438c:	e003      	b.n	4396 <_vfiprintf_r+0x36>
    438e:	4b72      	ldr	r3, [pc, #456]	; (4558 <_vfiprintf_r+0x1f8>)
    4390:	429f      	cmp	r7, r3
    4392:	d100      	bne.n	4396 <_vfiprintf_r+0x36>
    4394:	68f7      	ldr	r7, [r6, #12]
    4396:	89bb      	ldrh	r3, [r7, #12]
    4398:	071a      	lsls	r2, r3, #28
    439a:	d50a      	bpl.n	43b2 <_vfiprintf_r+0x52>
    439c:	693b      	ldr	r3, [r7, #16]
    439e:	2b00      	cmp	r3, #0
    43a0:	d007      	beq.n	43b2 <_vfiprintf_r+0x52>
    43a2:	ad06      	add	r5, sp, #24
    43a4:	2300      	movs	r3, #0
    43a6:	616b      	str	r3, [r5, #20]
    43a8:	2320      	movs	r3, #32
    43aa:	766b      	strb	r3, [r5, #25]
    43ac:	2330      	movs	r3, #48	; 0x30
    43ae:	76ab      	strb	r3, [r5, #26]
    43b0:	e03b      	b.n	442a <_vfiprintf_r+0xca>
    43b2:	1c30      	adds	r0, r6, #0
    43b4:	1c39      	adds	r1, r7, #0
    43b6:	f000 fd89 	bl	4ecc <__swsetup_r>
    43ba:	2800      	cmp	r0, #0
    43bc:	d0f1      	beq.n	43a2 <_vfiprintf_r+0x42>
    43be:	2001      	movs	r0, #1
    43c0:	4240      	negs	r0, r0
    43c2:	e0c2      	b.n	454a <_vfiprintf_r+0x1ea>
    43c4:	9a05      	ldr	r2, [sp, #20]
    43c6:	1d11      	adds	r1, r2, #4
    43c8:	6812      	ldr	r2, [r2, #0]
    43ca:	9105      	str	r1, [sp, #20]
    43cc:	2a00      	cmp	r2, #0
    43ce:	db76      	blt.n	44be <_vfiprintf_r+0x15e>
    43d0:	9209      	str	r2, [sp, #36]	; 0x24
    43d2:	3401      	adds	r4, #1
    43d4:	7823      	ldrb	r3, [r4, #0]
    43d6:	2b2e      	cmp	r3, #46	; 0x2e
    43d8:	d100      	bne.n	43dc <_vfiprintf_r+0x7c>
    43da:	e081      	b.n	44e0 <_vfiprintf_r+0x180>
    43dc:	7821      	ldrb	r1, [r4, #0]
    43de:	485f      	ldr	r0, [pc, #380]	; (455c <_vfiprintf_r+0x1fc>)
    43e0:	2203      	movs	r2, #3
    43e2:	f001 fe25 	bl	6030 <memchr>
    43e6:	2800      	cmp	r0, #0
    43e8:	d007      	beq.n	43fa <_vfiprintf_r+0x9a>
    43ea:	495c      	ldr	r1, [pc, #368]	; (455c <_vfiprintf_r+0x1fc>)
    43ec:	682a      	ldr	r2, [r5, #0]
    43ee:	1a43      	subs	r3, r0, r1
    43f0:	2040      	movs	r0, #64	; 0x40
    43f2:	4098      	lsls	r0, r3
    43f4:	4310      	orrs	r0, r2
    43f6:	6028      	str	r0, [r5, #0]
    43f8:	3401      	adds	r4, #1
    43fa:	7821      	ldrb	r1, [r4, #0]
    43fc:	1c63      	adds	r3, r4, #1
    43fe:	4858      	ldr	r0, [pc, #352]	; (4560 <_vfiprintf_r+0x200>)
    4400:	2206      	movs	r2, #6
    4402:	9303      	str	r3, [sp, #12]
    4404:	7629      	strb	r1, [r5, #24]
    4406:	f001 fe13 	bl	6030 <memchr>
    440a:	2800      	cmp	r0, #0
    440c:	d100      	bne.n	4410 <_vfiprintf_r+0xb0>
    440e:	e08a      	b.n	4526 <_vfiprintf_r+0x1c6>
    4410:	4b54      	ldr	r3, [pc, #336]	; (4564 <_vfiprintf_r+0x204>)
    4412:	2b00      	cmp	r3, #0
    4414:	d17e      	bne.n	4514 <_vfiprintf_r+0x1b4>
    4416:	9b05      	ldr	r3, [sp, #20]
    4418:	2207      	movs	r2, #7
    441a:	3307      	adds	r3, #7
    441c:	4393      	bics	r3, r2
    441e:	3308      	adds	r3, #8
    4420:	9305      	str	r3, [sp, #20]
    4422:	696a      	ldr	r2, [r5, #20]
    4424:	9904      	ldr	r1, [sp, #16]
    4426:	1853      	adds	r3, r2, r1
    4428:	616b      	str	r3, [r5, #20]
    442a:	9c03      	ldr	r4, [sp, #12]
    442c:	7823      	ldrb	r3, [r4, #0]
    442e:	2b00      	cmp	r3, #0
    4430:	d104      	bne.n	443c <_vfiprintf_r+0xdc>
    4432:	9903      	ldr	r1, [sp, #12]
    4434:	1a61      	subs	r1, r4, r1
    4436:	9102      	str	r1, [sp, #8]
    4438:	d010      	beq.n	445c <_vfiprintf_r+0xfc>
    443a:	e003      	b.n	4444 <_vfiprintf_r+0xe4>
    443c:	2b25      	cmp	r3, #37	; 0x25
    443e:	d0f8      	beq.n	4432 <_vfiprintf_r+0xd2>
    4440:	3401      	adds	r4, #1
    4442:	e7f3      	b.n	442c <_vfiprintf_r+0xcc>
    4444:	1c30      	adds	r0, r6, #0
    4446:	1c39      	adds	r1, r7, #0
    4448:	9a03      	ldr	r2, [sp, #12]
    444a:	9b02      	ldr	r3, [sp, #8]
    444c:	f7ff ff75 	bl	433a <__sfputs_r>
    4450:	3001      	adds	r0, #1
    4452:	d075      	beq.n	4540 <_vfiprintf_r+0x1e0>
    4454:	696a      	ldr	r2, [r5, #20]
    4456:	9902      	ldr	r1, [sp, #8]
    4458:	1853      	adds	r3, r2, r1
    445a:	616b      	str	r3, [r5, #20]
    445c:	7823      	ldrb	r3, [r4, #0]
    445e:	2b00      	cmp	r3, #0
    4460:	d06e      	beq.n	4540 <_vfiprintf_r+0x1e0>
    4462:	2201      	movs	r2, #1
    4464:	4252      	negs	r2, r2
    4466:	606a      	str	r2, [r5, #4]
    4468:	466a      	mov	r2, sp
    446a:	2300      	movs	r3, #0
    446c:	325b      	adds	r2, #91	; 0x5b
    446e:	3401      	adds	r4, #1
    4470:	602b      	str	r3, [r5, #0]
    4472:	60eb      	str	r3, [r5, #12]
    4474:	60ab      	str	r3, [r5, #8]
    4476:	7013      	strb	r3, [r2, #0]
    4478:	65ab      	str	r3, [r5, #88]	; 0x58
    447a:	7821      	ldrb	r1, [r4, #0]
    447c:	483a      	ldr	r0, [pc, #232]	; (4568 <_vfiprintf_r+0x208>)
    447e:	2205      	movs	r2, #5
    4480:	f001 fdd6 	bl	6030 <memchr>
    4484:	2800      	cmp	r0, #0
    4486:	d008      	beq.n	449a <_vfiprintf_r+0x13a>
    4488:	4a37      	ldr	r2, [pc, #220]	; (4568 <_vfiprintf_r+0x208>)
    448a:	3401      	adds	r4, #1
    448c:	1a83      	subs	r3, r0, r2
    448e:	2001      	movs	r0, #1
    4490:	4098      	lsls	r0, r3
    4492:	682b      	ldr	r3, [r5, #0]
    4494:	4318      	orrs	r0, r3
    4496:	6028      	str	r0, [r5, #0]
    4498:	e7ef      	b.n	447a <_vfiprintf_r+0x11a>
    449a:	682b      	ldr	r3, [r5, #0]
    449c:	06d9      	lsls	r1, r3, #27
    449e:	d503      	bpl.n	44a8 <_vfiprintf_r+0x148>
    44a0:	466a      	mov	r2, sp
    44a2:	2120      	movs	r1, #32
    44a4:	325b      	adds	r2, #91	; 0x5b
    44a6:	7011      	strb	r1, [r2, #0]
    44a8:	071a      	lsls	r2, r3, #28
    44aa:	d503      	bpl.n	44b4 <_vfiprintf_r+0x154>
    44ac:	466a      	mov	r2, sp
    44ae:	212b      	movs	r1, #43	; 0x2b
    44b0:	325b      	adds	r2, #91	; 0x5b
    44b2:	7011      	strb	r1, [r2, #0]
    44b4:	7822      	ldrb	r2, [r4, #0]
    44b6:	2a2a      	cmp	r2, #42	; 0x2a
    44b8:	d084      	beq.n	43c4 <_vfiprintf_r+0x64>
    44ba:	9b09      	ldr	r3, [sp, #36]	; 0x24
    44bc:	e005      	b.n	44ca <_vfiprintf_r+0x16a>
    44be:	4252      	negs	r2, r2
    44c0:	60ea      	str	r2, [r5, #12]
    44c2:	2202      	movs	r2, #2
    44c4:	4313      	orrs	r3, r2
    44c6:	602b      	str	r3, [r5, #0]
    44c8:	e783      	b.n	43d2 <_vfiprintf_r+0x72>
    44ca:	7822      	ldrb	r2, [r4, #0]
    44cc:	3a30      	subs	r2, #48	; 0x30
    44ce:	2a09      	cmp	r2, #9
    44d0:	d804      	bhi.n	44dc <_vfiprintf_r+0x17c>
    44d2:	210a      	movs	r1, #10
    44d4:	434b      	muls	r3, r1
    44d6:	3401      	adds	r4, #1
    44d8:	189b      	adds	r3, r3, r2
    44da:	e7f6      	b.n	44ca <_vfiprintf_r+0x16a>
    44dc:	9309      	str	r3, [sp, #36]	; 0x24
    44de:	e779      	b.n	43d4 <_vfiprintf_r+0x74>
    44e0:	7863      	ldrb	r3, [r4, #1]
    44e2:	2b2a      	cmp	r3, #42	; 0x2a
    44e4:	d109      	bne.n	44fa <_vfiprintf_r+0x19a>
    44e6:	9b05      	ldr	r3, [sp, #20]
    44e8:	3402      	adds	r4, #2
    44ea:	1d1a      	adds	r2, r3, #4
    44ec:	681b      	ldr	r3, [r3, #0]
    44ee:	9205      	str	r2, [sp, #20]
    44f0:	2b00      	cmp	r3, #0
    44f2:	da0d      	bge.n	4510 <_vfiprintf_r+0x1b0>
    44f4:	2301      	movs	r3, #1
    44f6:	425b      	negs	r3, r3
    44f8:	e00a      	b.n	4510 <_vfiprintf_r+0x1b0>
    44fa:	3401      	adds	r4, #1
    44fc:	2300      	movs	r3, #0
    44fe:	7822      	ldrb	r2, [r4, #0]
    4500:	3a30      	subs	r2, #48	; 0x30
    4502:	2a09      	cmp	r2, #9
    4504:	d804      	bhi.n	4510 <_vfiprintf_r+0x1b0>
    4506:	210a      	movs	r1, #10
    4508:	434b      	muls	r3, r1
    450a:	3401      	adds	r4, #1
    450c:	189b      	adds	r3, r3, r2
    450e:	e7f6      	b.n	44fe <_vfiprintf_r+0x19e>
    4510:	9307      	str	r3, [sp, #28]
    4512:	e763      	b.n	43dc <_vfiprintf_r+0x7c>
    4514:	ab05      	add	r3, sp, #20
    4516:	9300      	str	r3, [sp, #0]
    4518:	1c30      	adds	r0, r6, #0
    451a:	1c29      	adds	r1, r5, #0
    451c:	1c3a      	adds	r2, r7, #0
    451e:	4b13      	ldr	r3, [pc, #76]	; (456c <_vfiprintf_r+0x20c>)
    4520:	f000 f8c6 	bl	46b0 <_printf_float>
    4524:	e007      	b.n	4536 <_vfiprintf_r+0x1d6>
    4526:	ab05      	add	r3, sp, #20
    4528:	9300      	str	r3, [sp, #0]
    452a:	1c30      	adds	r0, r6, #0
    452c:	1c29      	adds	r1, r5, #0
    452e:	1c3a      	adds	r2, r7, #0
    4530:	4b0e      	ldr	r3, [pc, #56]	; (456c <_vfiprintf_r+0x20c>)
    4532:	f000 fb5d 	bl	4bf0 <_printf_i>
    4536:	9004      	str	r0, [sp, #16]
    4538:	9904      	ldr	r1, [sp, #16]
    453a:	3101      	adds	r1, #1
    453c:	d000      	beq.n	4540 <_vfiprintf_r+0x1e0>
    453e:	e770      	b.n	4422 <_vfiprintf_r+0xc2>
    4540:	89bb      	ldrh	r3, [r7, #12]
    4542:	065a      	lsls	r2, r3, #25
    4544:	d500      	bpl.n	4548 <_vfiprintf_r+0x1e8>
    4546:	e73a      	b.n	43be <_vfiprintf_r+0x5e>
    4548:	980b      	ldr	r0, [sp, #44]	; 0x2c
    454a:	b01f      	add	sp, #124	; 0x7c
    454c:	bdf0      	pop	{r4, r5, r6, r7, pc}
    454e:	46c0      	nop			; (mov r8, r8)
    4550:	00009d0c 	.word	0x00009d0c
    4554:	00009d2c 	.word	0x00009d2c
    4558:	00009d4c 	.word	0x00009d4c
    455c:	00009cbe 	.word	0x00009cbe
    4560:	00009cc2 	.word	0x00009cc2
    4564:	000046b1 	.word	0x000046b1
    4568:	00009cb8 	.word	0x00009cb8
    456c:	0000433b 	.word	0x0000433b

00004570 <__cvt>:
    4570:	b5f0      	push	{r4, r5, r6, r7, lr}
    4572:	b08b      	sub	sp, #44	; 0x2c
    4574:	1c16      	adds	r6, r2, #0
    4576:	1c1c      	adds	r4, r3, #0
    4578:	9912      	ldr	r1, [sp, #72]	; 0x48
    457a:	d504      	bpl.n	4586 <__cvt+0x16>
    457c:	2280      	movs	r2, #128	; 0x80
    457e:	0612      	lsls	r2, r2, #24
    4580:	18a4      	adds	r4, r4, r2
    4582:	232d      	movs	r3, #45	; 0x2d
    4584:	e000      	b.n	4588 <__cvt+0x18>
    4586:	2300      	movs	r3, #0
    4588:	9f14      	ldr	r7, [sp, #80]	; 0x50
    458a:	700b      	strb	r3, [r1, #0]
    458c:	2320      	movs	r3, #32
    458e:	439f      	bics	r7, r3
    4590:	2f46      	cmp	r7, #70	; 0x46
    4592:	d008      	beq.n	45a6 <__cvt+0x36>
    4594:	1c3a      	adds	r2, r7, #0
    4596:	3a45      	subs	r2, #69	; 0x45
    4598:	4251      	negs	r1, r2
    459a:	414a      	adcs	r2, r1
    459c:	9910      	ldr	r1, [sp, #64]	; 0x40
    459e:	2302      	movs	r3, #2
    45a0:	1889      	adds	r1, r1, r2
    45a2:	9110      	str	r1, [sp, #64]	; 0x40
    45a4:	e000      	b.n	45a8 <__cvt+0x38>
    45a6:	2303      	movs	r3, #3
    45a8:	9300      	str	r3, [sp, #0]
    45aa:	9b13      	ldr	r3, [sp, #76]	; 0x4c
    45ac:	9a10      	ldr	r2, [sp, #64]	; 0x40
    45ae:	9302      	str	r3, [sp, #8]
    45b0:	ab08      	add	r3, sp, #32
    45b2:	9303      	str	r3, [sp, #12]
    45b4:	ab09      	add	r3, sp, #36	; 0x24
    45b6:	9201      	str	r2, [sp, #4]
    45b8:	9304      	str	r3, [sp, #16]
    45ba:	1c32      	adds	r2, r6, #0
    45bc:	1c23      	adds	r3, r4, #0
    45be:	f000 fd83 	bl	50c8 <_dtoa_r>
    45c2:	1c05      	adds	r5, r0, #0
    45c4:	2f47      	cmp	r7, #71	; 0x47
    45c6:	d102      	bne.n	45ce <__cvt+0x5e>
    45c8:	9911      	ldr	r1, [sp, #68]	; 0x44
    45ca:	07c9      	lsls	r1, r1, #31
    45cc:	d52c      	bpl.n	4628 <__cvt+0xb8>
    45ce:	9910      	ldr	r1, [sp, #64]	; 0x40
    45d0:	1869      	adds	r1, r5, r1
    45d2:	9107      	str	r1, [sp, #28]
    45d4:	2f46      	cmp	r7, #70	; 0x46
    45d6:	d114      	bne.n	4602 <__cvt+0x92>
    45d8:	782b      	ldrb	r3, [r5, #0]
    45da:	2b30      	cmp	r3, #48	; 0x30
    45dc:	d10c      	bne.n	45f8 <__cvt+0x88>
    45de:	1c30      	adds	r0, r6, #0
    45e0:	1c21      	adds	r1, r4, #0
    45e2:	4b16      	ldr	r3, [pc, #88]	; (463c <__cvt+0xcc>)
    45e4:	4a14      	ldr	r2, [pc, #80]	; (4638 <__cvt+0xc8>)
    45e6:	f002 fa69 	bl	6abc <__aeabi_dcmpeq>
    45ea:	2800      	cmp	r0, #0
    45ec:	d104      	bne.n	45f8 <__cvt+0x88>
    45ee:	9a10      	ldr	r2, [sp, #64]	; 0x40
    45f0:	2301      	movs	r3, #1
    45f2:	9913      	ldr	r1, [sp, #76]	; 0x4c
    45f4:	1a9b      	subs	r3, r3, r2
    45f6:	600b      	str	r3, [r1, #0]
    45f8:	9a13      	ldr	r2, [sp, #76]	; 0x4c
    45fa:	9907      	ldr	r1, [sp, #28]
    45fc:	6813      	ldr	r3, [r2, #0]
    45fe:	18c9      	adds	r1, r1, r3
    4600:	9107      	str	r1, [sp, #28]
    4602:	1c30      	adds	r0, r6, #0
    4604:	1c21      	adds	r1, r4, #0
    4606:	4b0d      	ldr	r3, [pc, #52]	; (463c <__cvt+0xcc>)
    4608:	4a0b      	ldr	r2, [pc, #44]	; (4638 <__cvt+0xc8>)
    460a:	f002 fa57 	bl	6abc <__aeabi_dcmpeq>
    460e:	2800      	cmp	r0, #0
    4610:	d001      	beq.n	4616 <__cvt+0xa6>
    4612:	9a07      	ldr	r2, [sp, #28]
    4614:	9209      	str	r2, [sp, #36]	; 0x24
    4616:	9b09      	ldr	r3, [sp, #36]	; 0x24
    4618:	9907      	ldr	r1, [sp, #28]
    461a:	428b      	cmp	r3, r1
    461c:	d204      	bcs.n	4628 <__cvt+0xb8>
    461e:	1c5a      	adds	r2, r3, #1
    4620:	9209      	str	r2, [sp, #36]	; 0x24
    4622:	2230      	movs	r2, #48	; 0x30
    4624:	701a      	strb	r2, [r3, #0]
    4626:	e7f6      	b.n	4616 <__cvt+0xa6>
    4628:	9b09      	ldr	r3, [sp, #36]	; 0x24
    462a:	1c28      	adds	r0, r5, #0
    462c:	1b5a      	subs	r2, r3, r5
    462e:	9b15      	ldr	r3, [sp, #84]	; 0x54
    4630:	601a      	str	r2, [r3, #0]
    4632:	b00b      	add	sp, #44	; 0x2c
    4634:	bdf0      	pop	{r4, r5, r6, r7, pc}
    4636:	46c0      	nop			; (mov r8, r8)
	...

00004640 <__exponent>:
    4640:	b5f0      	push	{r4, r5, r6, r7, lr}
    4642:	232b      	movs	r3, #43	; 0x2b
    4644:	b085      	sub	sp, #20
    4646:	1c05      	adds	r5, r0, #0
    4648:	1c0c      	adds	r4, r1, #0
    464a:	7002      	strb	r2, [r0, #0]
    464c:	1c86      	adds	r6, r0, #2
    464e:	2900      	cmp	r1, #0
    4650:	da01      	bge.n	4656 <__exponent+0x16>
    4652:	424c      	negs	r4, r1
    4654:	232d      	movs	r3, #45	; 0x2d
    4656:	706b      	strb	r3, [r5, #1]
    4658:	2c09      	cmp	r4, #9
    465a:	dd1e      	ble.n	469a <__exponent+0x5a>
    465c:	466f      	mov	r7, sp
    465e:	370e      	adds	r7, #14
    4660:	1c20      	adds	r0, r4, #0
    4662:	210a      	movs	r1, #10
    4664:	9701      	str	r7, [sp, #4]
    4666:	f002 fa0d 	bl	6a84 <__aeabi_idivmod>
    466a:	3130      	adds	r1, #48	; 0x30
    466c:	7039      	strb	r1, [r7, #0]
    466e:	1c20      	adds	r0, r4, #0
    4670:	210a      	movs	r1, #10
    4672:	f002 f9b1 	bl	69d8 <__aeabi_idiv>
    4676:	3f01      	subs	r7, #1
    4678:	1e04      	subs	r4, r0, #0
    467a:	2c09      	cmp	r4, #9
    467c:	dcf0      	bgt.n	4660 <__exponent+0x20>
    467e:	9b01      	ldr	r3, [sp, #4]
    4680:	3430      	adds	r4, #48	; 0x30
    4682:	3b01      	subs	r3, #1
    4684:	701c      	strb	r4, [r3, #0]
    4686:	466a      	mov	r2, sp
    4688:	320f      	adds	r2, #15
    468a:	1c30      	adds	r0, r6, #0
    468c:	4293      	cmp	r3, r2
    468e:	d209      	bcs.n	46a4 <__exponent+0x64>
    4690:	781a      	ldrb	r2, [r3, #0]
    4692:	3301      	adds	r3, #1
    4694:	7032      	strb	r2, [r6, #0]
    4696:	3601      	adds	r6, #1
    4698:	e7f5      	b.n	4686 <__exponent+0x46>
    469a:	2330      	movs	r3, #48	; 0x30
    469c:	18e4      	adds	r4, r4, r3
    469e:	7033      	strb	r3, [r6, #0]
    46a0:	1cb0      	adds	r0, r6, #2
    46a2:	7074      	strb	r4, [r6, #1]
    46a4:	1b40      	subs	r0, r0, r5
    46a6:	b005      	add	sp, #20
    46a8:	bdf0      	pop	{r4, r5, r6, r7, pc}
    46aa:	0000      	movs	r0, r0
    46ac:	0000      	movs	r0, r0
	...

000046b0 <_printf_float>:
    46b0:	b5f0      	push	{r4, r5, r6, r7, lr}
    46b2:	b093      	sub	sp, #76	; 0x4c
    46b4:	1c0c      	adds	r4, r1, #0
    46b6:	920a      	str	r2, [sp, #40]	; 0x28
    46b8:	930b      	str	r3, [sp, #44]	; 0x2c
    46ba:	9e18      	ldr	r6, [sp, #96]	; 0x60
    46bc:	1c05      	adds	r5, r0, #0
    46be:	f001 fc59 	bl	5f74 <_localeconv_r>
    46c2:	6800      	ldr	r0, [r0, #0]
    46c4:	900c      	str	r0, [sp, #48]	; 0x30
    46c6:	f002 f8b5 	bl	6834 <strlen>
    46ca:	2300      	movs	r3, #0
    46cc:	9310      	str	r3, [sp, #64]	; 0x40
    46ce:	6833      	ldr	r3, [r6, #0]
    46d0:	2207      	movs	r2, #7
    46d2:	3307      	adds	r3, #7
    46d4:	4393      	bics	r3, r2
    46d6:	1c1a      	adds	r2, r3, #0
    46d8:	3208      	adds	r2, #8
    46da:	900d      	str	r0, [sp, #52]	; 0x34
    46dc:	7e27      	ldrb	r7, [r4, #24]
    46de:	6818      	ldr	r0, [r3, #0]
    46e0:	6859      	ldr	r1, [r3, #4]
    46e2:	6032      	str	r2, [r6, #0]
    46e4:	64a0      	str	r0, [r4, #72]	; 0x48
    46e6:	64e1      	str	r1, [r4, #76]	; 0x4c
    46e8:	f7ff fcf8 	bl	40dc <__fpclassifyd>
    46ec:	2801      	cmp	r0, #1
    46ee:	d119      	bne.n	4724 <_printf_float+0x74>
    46f0:	6ca0      	ldr	r0, [r4, #72]	; 0x48
    46f2:	6ce1      	ldr	r1, [r4, #76]	; 0x4c
    46f4:	4bb9      	ldr	r3, [pc, #740]	; (49dc <_printf_float+0x32c>)
    46f6:	4ab8      	ldr	r2, [pc, #736]	; (49d8 <_printf_float+0x328>)
    46f8:	f002 f9e6 	bl	6ac8 <__aeabi_dcmplt>
    46fc:	2800      	cmp	r0, #0
    46fe:	d003      	beq.n	4708 <_printf_float+0x58>
    4700:	1c23      	adds	r3, r4, #0
    4702:	222d      	movs	r2, #45	; 0x2d
    4704:	3343      	adds	r3, #67	; 0x43
    4706:	701a      	strb	r2, [r3, #0]
    4708:	2f47      	cmp	r7, #71	; 0x47
    470a:	d801      	bhi.n	4710 <_printf_float+0x60>
    470c:	4eb4      	ldr	r6, [pc, #720]	; (49e0 <_printf_float+0x330>)
    470e:	e000      	b.n	4712 <_printf_float+0x62>
    4710:	4eb4      	ldr	r6, [pc, #720]	; (49e4 <_printf_float+0x334>)
    4712:	2303      	movs	r3, #3
    4714:	6820      	ldr	r0, [r4, #0]
    4716:	6123      	str	r3, [r4, #16]
    4718:	2304      	movs	r3, #4
    471a:	4398      	bics	r0, r3
    471c:	2100      	movs	r1, #0
    471e:	6020      	str	r0, [r4, #0]
    4720:	9109      	str	r1, [sp, #36]	; 0x24
    4722:	e091      	b.n	4848 <_printf_float+0x198>
    4724:	6ca0      	ldr	r0, [r4, #72]	; 0x48
    4726:	6ce1      	ldr	r1, [r4, #76]	; 0x4c
    4728:	f7ff fcd8 	bl	40dc <__fpclassifyd>
    472c:	6823      	ldr	r3, [r4, #0]
    472e:	2800      	cmp	r0, #0
    4730:	d10c      	bne.n	474c <_printf_float+0x9c>
    4732:	2f47      	cmp	r7, #71	; 0x47
    4734:	d801      	bhi.n	473a <_printf_float+0x8a>
    4736:	4eac      	ldr	r6, [pc, #688]	; (49e8 <_printf_float+0x338>)
    4738:	e000      	b.n	473c <_printf_float+0x8c>
    473a:	4eac      	ldr	r6, [pc, #688]	; (49ec <_printf_float+0x33c>)
    473c:	2203      	movs	r2, #3
    473e:	6122      	str	r2, [r4, #16]
    4740:	2204      	movs	r2, #4
    4742:	4393      	bics	r3, r2
    4744:	2200      	movs	r2, #0
    4746:	6023      	str	r3, [r4, #0]
    4748:	9209      	str	r2, [sp, #36]	; 0x24
    474a:	e07d      	b.n	4848 <_printf_float+0x198>
    474c:	6862      	ldr	r2, [r4, #4]
    474e:	1c56      	adds	r6, r2, #1
    4750:	d101      	bne.n	4756 <_printf_float+0xa6>
    4752:	2206      	movs	r2, #6
    4754:	e007      	b.n	4766 <_printf_float+0xb6>
    4756:	2120      	movs	r1, #32
    4758:	1c38      	adds	r0, r7, #0
    475a:	4388      	bics	r0, r1
    475c:	2847      	cmp	r0, #71	; 0x47
    475e:	d103      	bne.n	4768 <_printf_float+0xb8>
    4760:	2a00      	cmp	r2, #0
    4762:	d101      	bne.n	4768 <_printf_float+0xb8>
    4764:	2201      	movs	r2, #1
    4766:	6062      	str	r2, [r4, #4]
    4768:	2280      	movs	r2, #128	; 0x80
    476a:	00d2      	lsls	r2, r2, #3
    476c:	4313      	orrs	r3, r2
    476e:	6023      	str	r3, [r4, #0]
    4770:	9301      	str	r3, [sp, #4]
    4772:	466b      	mov	r3, sp
    4774:	333b      	adds	r3, #59	; 0x3b
    4776:	9302      	str	r3, [sp, #8]
    4778:	ab0f      	add	r3, sp, #60	; 0x3c
    477a:	6861      	ldr	r1, [r4, #4]
    477c:	9303      	str	r3, [sp, #12]
    477e:	ab10      	add	r3, sp, #64	; 0x40
    4780:	9305      	str	r3, [sp, #20]
    4782:	2300      	movs	r3, #0
    4784:	9100      	str	r1, [sp, #0]
    4786:	9306      	str	r3, [sp, #24]
    4788:	9704      	str	r7, [sp, #16]
    478a:	6ca2      	ldr	r2, [r4, #72]	; 0x48
    478c:	6ce3      	ldr	r3, [r4, #76]	; 0x4c
    478e:	1c28      	adds	r0, r5, #0
    4790:	f7ff feee 	bl	4570 <__cvt>
    4794:	2320      	movs	r3, #32
    4796:	1c3a      	adds	r2, r7, #0
    4798:	1c06      	adds	r6, r0, #0
    479a:	439a      	bics	r2, r3
    479c:	990f      	ldr	r1, [sp, #60]	; 0x3c
    479e:	2a47      	cmp	r2, #71	; 0x47
    47a0:	d107      	bne.n	47b2 <_printf_float+0x102>
    47a2:	1ccb      	adds	r3, r1, #3
    47a4:	db02      	blt.n	47ac <_printf_float+0xfc>
    47a6:	6860      	ldr	r0, [r4, #4]
    47a8:	4281      	cmp	r1, r0
    47aa:	dd2e      	ble.n	480a <_printf_float+0x15a>
    47ac:	3f02      	subs	r7, #2
    47ae:	b2ff      	uxtb	r7, r7
    47b0:	e001      	b.n	47b6 <_printf_float+0x106>
    47b2:	2f65      	cmp	r7, #101	; 0x65
    47b4:	d812      	bhi.n	47dc <_printf_float+0x12c>
    47b6:	1c20      	adds	r0, r4, #0
    47b8:	3901      	subs	r1, #1
    47ba:	1c3a      	adds	r2, r7, #0
    47bc:	3050      	adds	r0, #80	; 0x50
    47be:	910f      	str	r1, [sp, #60]	; 0x3c
    47c0:	f7ff ff3e 	bl	4640 <__exponent>
    47c4:	9b10      	ldr	r3, [sp, #64]	; 0x40
    47c6:	9009      	str	r0, [sp, #36]	; 0x24
    47c8:	18c2      	adds	r2, r0, r3
    47ca:	6122      	str	r2, [r4, #16]
    47cc:	2b01      	cmp	r3, #1
    47ce:	dc02      	bgt.n	47d6 <_printf_float+0x126>
    47d0:	6821      	ldr	r1, [r4, #0]
    47d2:	07c9      	lsls	r1, r1, #31
    47d4:	d52f      	bpl.n	4836 <_printf_float+0x186>
    47d6:	3201      	adds	r2, #1
    47d8:	6122      	str	r2, [r4, #16]
    47da:	e02c      	b.n	4836 <_printf_float+0x186>
    47dc:	2f66      	cmp	r7, #102	; 0x66
    47de:	d115      	bne.n	480c <_printf_float+0x15c>
    47e0:	6863      	ldr	r3, [r4, #4]
    47e2:	2900      	cmp	r1, #0
    47e4:	dd08      	ble.n	47f8 <_printf_float+0x148>
    47e6:	6121      	str	r1, [r4, #16]
    47e8:	2b00      	cmp	r3, #0
    47ea:	d102      	bne.n	47f2 <_printf_float+0x142>
    47ec:	6822      	ldr	r2, [r4, #0]
    47ee:	07d2      	lsls	r2, r2, #31
    47f0:	d51d      	bpl.n	482e <_printf_float+0x17e>
    47f2:	3301      	adds	r3, #1
    47f4:	18c9      	adds	r1, r1, r3
    47f6:	e011      	b.n	481c <_printf_float+0x16c>
    47f8:	2b00      	cmp	r3, #0
    47fa:	d103      	bne.n	4804 <_printf_float+0x154>
    47fc:	6820      	ldr	r0, [r4, #0]
    47fe:	2201      	movs	r2, #1
    4800:	4210      	tst	r0, r2
    4802:	d000      	beq.n	4806 <_printf_float+0x156>
    4804:	1c9a      	adds	r2, r3, #2
    4806:	6122      	str	r2, [r4, #16]
    4808:	e011      	b.n	482e <_printf_float+0x17e>
    480a:	2767      	movs	r7, #103	; 0x67
    480c:	9a10      	ldr	r2, [sp, #64]	; 0x40
    480e:	4291      	cmp	r1, r2
    4810:	db06      	blt.n	4820 <_printf_float+0x170>
    4812:	6822      	ldr	r2, [r4, #0]
    4814:	6121      	str	r1, [r4, #16]
    4816:	07d2      	lsls	r2, r2, #31
    4818:	d509      	bpl.n	482e <_printf_float+0x17e>
    481a:	3101      	adds	r1, #1
    481c:	6121      	str	r1, [r4, #16]
    481e:	e006      	b.n	482e <_printf_float+0x17e>
    4820:	2301      	movs	r3, #1
    4822:	2900      	cmp	r1, #0
    4824:	dc01      	bgt.n	482a <_printf_float+0x17a>
    4826:	2302      	movs	r3, #2
    4828:	1a5b      	subs	r3, r3, r1
    482a:	18d3      	adds	r3, r2, r3
    482c:	6123      	str	r3, [r4, #16]
    482e:	9b0f      	ldr	r3, [sp, #60]	; 0x3c
    4830:	2000      	movs	r0, #0
    4832:	65a3      	str	r3, [r4, #88]	; 0x58
    4834:	9009      	str	r0, [sp, #36]	; 0x24
    4836:	466b      	mov	r3, sp
    4838:	333b      	adds	r3, #59	; 0x3b
    483a:	781b      	ldrb	r3, [r3, #0]
    483c:	2b00      	cmp	r3, #0
    483e:	d003      	beq.n	4848 <_printf_float+0x198>
    4840:	1c23      	adds	r3, r4, #0
    4842:	222d      	movs	r2, #45	; 0x2d
    4844:	3343      	adds	r3, #67	; 0x43
    4846:	701a      	strb	r2, [r3, #0]
    4848:	990b      	ldr	r1, [sp, #44]	; 0x2c
    484a:	1c28      	adds	r0, r5, #0
    484c:	9100      	str	r1, [sp, #0]
    484e:	aa11      	add	r2, sp, #68	; 0x44
    4850:	1c21      	adds	r1, r4, #0
    4852:	9b0a      	ldr	r3, [sp, #40]	; 0x28
    4854:	f000 f958 	bl	4b08 <_printf_common>
    4858:	3001      	adds	r0, #1
    485a:	d102      	bne.n	4862 <_printf_float+0x1b2>
    485c:	2001      	movs	r0, #1
    485e:	4240      	negs	r0, r0
    4860:	e14c      	b.n	4afc <_printf_float+0x44c>
    4862:	6822      	ldr	r2, [r4, #0]
    4864:	0553      	lsls	r3, r2, #21
    4866:	d404      	bmi.n	4872 <_printf_float+0x1c2>
    4868:	1c28      	adds	r0, r5, #0
    486a:	990a      	ldr	r1, [sp, #40]	; 0x28
    486c:	1c32      	adds	r2, r6, #0
    486e:	6923      	ldr	r3, [r4, #16]
    4870:	e067      	b.n	4942 <_printf_float+0x292>
    4872:	2f65      	cmp	r7, #101	; 0x65
    4874:	d800      	bhi.n	4878 <_printf_float+0x1c8>
    4876:	e0e0      	b.n	4a3a <_printf_float+0x38a>
    4878:	6ca0      	ldr	r0, [r4, #72]	; 0x48
    487a:	6ce1      	ldr	r1, [r4, #76]	; 0x4c
    487c:	4b57      	ldr	r3, [pc, #348]	; (49dc <_printf_float+0x32c>)
    487e:	4a56      	ldr	r2, [pc, #344]	; (49d8 <_printf_float+0x328>)
    4880:	f002 f91c 	bl	6abc <__aeabi_dcmpeq>
    4884:	2800      	cmp	r0, #0
    4886:	d02b      	beq.n	48e0 <_printf_float+0x230>
    4888:	1c28      	adds	r0, r5, #0
    488a:	990a      	ldr	r1, [sp, #40]	; 0x28
    488c:	4a58      	ldr	r2, [pc, #352]	; (49f0 <_printf_float+0x340>)
    488e:	2301      	movs	r3, #1
    4890:	9e0b      	ldr	r6, [sp, #44]	; 0x2c
    4892:	47b0      	blx	r6
    4894:	3001      	adds	r0, #1
    4896:	d0e1      	beq.n	485c <_printf_float+0x1ac>
    4898:	9f0f      	ldr	r7, [sp, #60]	; 0x3c
    489a:	9810      	ldr	r0, [sp, #64]	; 0x40
    489c:	4287      	cmp	r7, r0
    489e:	db07      	blt.n	48b0 <_printf_float+0x200>
    48a0:	6821      	ldr	r1, [r4, #0]
    48a2:	07c9      	lsls	r1, r1, #31
    48a4:	d404      	bmi.n	48b0 <_printf_float+0x200>
    48a6:	6827      	ldr	r7, [r4, #0]
    48a8:	07bf      	lsls	r7, r7, #30
    48aa:	d500      	bpl.n	48ae <_printf_float+0x1fe>
    48ac:	e10e      	b.n	4acc <_printf_float+0x41c>
    48ae:	e113      	b.n	4ad8 <_printf_float+0x428>
    48b0:	1c28      	adds	r0, r5, #0
    48b2:	990a      	ldr	r1, [sp, #40]	; 0x28
    48b4:	9a0c      	ldr	r2, [sp, #48]	; 0x30
    48b6:	9b0d      	ldr	r3, [sp, #52]	; 0x34
    48b8:	9e0b      	ldr	r6, [sp, #44]	; 0x2c
    48ba:	47b0      	blx	r6
    48bc:	3001      	adds	r0, #1
    48be:	d0cd      	beq.n	485c <_printf_float+0x1ac>
    48c0:	2600      	movs	r6, #0
    48c2:	9b10      	ldr	r3, [sp, #64]	; 0x40
    48c4:	3b01      	subs	r3, #1
    48c6:	429e      	cmp	r6, r3
    48c8:	daed      	bge.n	48a6 <_printf_float+0x1f6>
    48ca:	1c22      	adds	r2, r4, #0
    48cc:	1c28      	adds	r0, r5, #0
    48ce:	990a      	ldr	r1, [sp, #40]	; 0x28
    48d0:	321a      	adds	r2, #26
    48d2:	2301      	movs	r3, #1
    48d4:	9f0b      	ldr	r7, [sp, #44]	; 0x2c
    48d6:	47b8      	blx	r7
    48d8:	3001      	adds	r0, #1
    48da:	d0bf      	beq.n	485c <_printf_float+0x1ac>
    48dc:	3601      	adds	r6, #1
    48de:	e7f0      	b.n	48c2 <_printf_float+0x212>
    48e0:	980f      	ldr	r0, [sp, #60]	; 0x3c
    48e2:	2800      	cmp	r0, #0
    48e4:	dc30      	bgt.n	4948 <_printf_float+0x298>
    48e6:	1c28      	adds	r0, r5, #0
    48e8:	990a      	ldr	r1, [sp, #40]	; 0x28
    48ea:	4a41      	ldr	r2, [pc, #260]	; (49f0 <_printf_float+0x340>)
    48ec:	2301      	movs	r3, #1
    48ee:	9f0b      	ldr	r7, [sp, #44]	; 0x2c
    48f0:	47b8      	blx	r7
    48f2:	3001      	adds	r0, #1
    48f4:	d0b2      	beq.n	485c <_printf_float+0x1ac>
    48f6:	980f      	ldr	r0, [sp, #60]	; 0x3c
    48f8:	2800      	cmp	r0, #0
    48fa:	d105      	bne.n	4908 <_printf_float+0x258>
    48fc:	9910      	ldr	r1, [sp, #64]	; 0x40
    48fe:	2900      	cmp	r1, #0
    4900:	d102      	bne.n	4908 <_printf_float+0x258>
    4902:	6822      	ldr	r2, [r4, #0]
    4904:	07d2      	lsls	r2, r2, #31
    4906:	d5ce      	bpl.n	48a6 <_printf_float+0x1f6>
    4908:	1c28      	adds	r0, r5, #0
    490a:	990a      	ldr	r1, [sp, #40]	; 0x28
    490c:	9a0c      	ldr	r2, [sp, #48]	; 0x30
    490e:	9b0d      	ldr	r3, [sp, #52]	; 0x34
    4910:	9f0b      	ldr	r7, [sp, #44]	; 0x2c
    4912:	47b8      	blx	r7
    4914:	3001      	adds	r0, #1
    4916:	d0a1      	beq.n	485c <_printf_float+0x1ac>
    4918:	2700      	movs	r7, #0
    491a:	980f      	ldr	r0, [sp, #60]	; 0x3c
    491c:	9709      	str	r7, [sp, #36]	; 0x24
    491e:	9f09      	ldr	r7, [sp, #36]	; 0x24
    4920:	4243      	negs	r3, r0
    4922:	990a      	ldr	r1, [sp, #40]	; 0x28
    4924:	1c28      	adds	r0, r5, #0
    4926:	429f      	cmp	r7, r3
    4928:	da09      	bge.n	493e <_printf_float+0x28e>
    492a:	1c22      	adds	r2, r4, #0
    492c:	321a      	adds	r2, #26
    492e:	2301      	movs	r3, #1
    4930:	9f0b      	ldr	r7, [sp, #44]	; 0x2c
    4932:	47b8      	blx	r7
    4934:	3001      	adds	r0, #1
    4936:	d091      	beq.n	485c <_printf_float+0x1ac>
    4938:	9f09      	ldr	r7, [sp, #36]	; 0x24
    493a:	3701      	adds	r7, #1
    493c:	e7ed      	b.n	491a <_printf_float+0x26a>
    493e:	9b10      	ldr	r3, [sp, #64]	; 0x40
    4940:	1c32      	adds	r2, r6, #0
    4942:	9e0b      	ldr	r6, [sp, #44]	; 0x2c
    4944:	47b0      	blx	r6
    4946:	e0b5      	b.n	4ab4 <_printf_float+0x404>
    4948:	9f10      	ldr	r7, [sp, #64]	; 0x40
    494a:	6da3      	ldr	r3, [r4, #88]	; 0x58
    494c:	9708      	str	r7, [sp, #32]
    494e:	429f      	cmp	r7, r3
    4950:	dd00      	ble.n	4954 <_printf_float+0x2a4>
    4952:	9308      	str	r3, [sp, #32]
    4954:	9f08      	ldr	r7, [sp, #32]
    4956:	2f00      	cmp	r7, #0
    4958:	dc01      	bgt.n	495e <_printf_float+0x2ae>
    495a:	2700      	movs	r7, #0
    495c:	e014      	b.n	4988 <_printf_float+0x2d8>
    495e:	1c28      	adds	r0, r5, #0
    4960:	990a      	ldr	r1, [sp, #40]	; 0x28
    4962:	1c32      	adds	r2, r6, #0
    4964:	9b08      	ldr	r3, [sp, #32]
    4966:	9f0b      	ldr	r7, [sp, #44]	; 0x2c
    4968:	47b8      	blx	r7
    496a:	3001      	adds	r0, #1
    496c:	d1f5      	bne.n	495a <_printf_float+0x2aa>
    496e:	e775      	b.n	485c <_printf_float+0x1ac>
    4970:	1c22      	adds	r2, r4, #0
    4972:	1c28      	adds	r0, r5, #0
    4974:	990a      	ldr	r1, [sp, #40]	; 0x28
    4976:	321a      	adds	r2, #26
    4978:	2301      	movs	r3, #1
    497a:	9f0b      	ldr	r7, [sp, #44]	; 0x2c
    497c:	47b8      	blx	r7
    497e:	3001      	adds	r0, #1
    4980:	d100      	bne.n	4984 <_printf_float+0x2d4>
    4982:	e76b      	b.n	485c <_printf_float+0x1ac>
    4984:	9f09      	ldr	r7, [sp, #36]	; 0x24
    4986:	3701      	adds	r7, #1
    4988:	9709      	str	r7, [sp, #36]	; 0x24
    498a:	9f08      	ldr	r7, [sp, #32]
    498c:	6da3      	ldr	r3, [r4, #88]	; 0x58
    498e:	43fa      	mvns	r2, r7
    4990:	17d2      	asrs	r2, r2, #31
    4992:	403a      	ands	r2, r7
    4994:	9f09      	ldr	r7, [sp, #36]	; 0x24
    4996:	1a9a      	subs	r2, r3, r2
    4998:	4297      	cmp	r7, r2
    499a:	dbe9      	blt.n	4970 <_printf_float+0x2c0>
    499c:	980f      	ldr	r0, [sp, #60]	; 0x3c
    499e:	9910      	ldr	r1, [sp, #64]	; 0x40
    49a0:	18f3      	adds	r3, r6, r3
    49a2:	9309      	str	r3, [sp, #36]	; 0x24
    49a4:	4288      	cmp	r0, r1
    49a6:	db0e      	blt.n	49c6 <_printf_float+0x316>
    49a8:	6822      	ldr	r2, [r4, #0]
    49aa:	07d2      	lsls	r2, r2, #31
    49ac:	d40b      	bmi.n	49c6 <_printf_float+0x316>
    49ae:	9b10      	ldr	r3, [sp, #64]	; 0x40
    49b0:	9f0f      	ldr	r7, [sp, #60]	; 0x3c
    49b2:	18f6      	adds	r6, r6, r3
    49b4:	1bdb      	subs	r3, r3, r7
    49b6:	9f09      	ldr	r7, [sp, #36]	; 0x24
    49b8:	1bf6      	subs	r6, r6, r7
    49ba:	429e      	cmp	r6, r3
    49bc:	dd00      	ble.n	49c0 <_printf_float+0x310>
    49be:	1c1e      	adds	r6, r3, #0
    49c0:	2e00      	cmp	r6, #0
    49c2:	dc17      	bgt.n	49f4 <_printf_float+0x344>
    49c4:	e01f      	b.n	4a06 <_printf_float+0x356>
    49c6:	1c28      	adds	r0, r5, #0
    49c8:	990a      	ldr	r1, [sp, #40]	; 0x28
    49ca:	9a0c      	ldr	r2, [sp, #48]	; 0x30
    49cc:	9b0d      	ldr	r3, [sp, #52]	; 0x34
    49ce:	9f0b      	ldr	r7, [sp, #44]	; 0x2c
    49d0:	47b8      	blx	r7
    49d2:	3001      	adds	r0, #1
    49d4:	d1eb      	bne.n	49ae <_printf_float+0x2fe>
    49d6:	e741      	b.n	485c <_printf_float+0x1ac>
	...
    49e0:	00009cc9 	.word	0x00009cc9
    49e4:	00009ccd 	.word	0x00009ccd
    49e8:	00009cd1 	.word	0x00009cd1
    49ec:	00009cd5 	.word	0x00009cd5
    49f0:	00009cd9 	.word	0x00009cd9
    49f4:	1c28      	adds	r0, r5, #0
    49f6:	990a      	ldr	r1, [sp, #40]	; 0x28
    49f8:	9a09      	ldr	r2, [sp, #36]	; 0x24
    49fa:	1c33      	adds	r3, r6, #0
    49fc:	9f0b      	ldr	r7, [sp, #44]	; 0x2c
    49fe:	47b8      	blx	r7
    4a00:	3001      	adds	r0, #1
    4a02:	d100      	bne.n	4a06 <_printf_float+0x356>
    4a04:	e72a      	b.n	485c <_printf_float+0x1ac>
    4a06:	2700      	movs	r7, #0
    4a08:	e00b      	b.n	4a22 <_printf_float+0x372>
    4a0a:	1c22      	adds	r2, r4, #0
    4a0c:	1c28      	adds	r0, r5, #0
    4a0e:	990a      	ldr	r1, [sp, #40]	; 0x28
    4a10:	321a      	adds	r2, #26
    4a12:	2301      	movs	r3, #1
    4a14:	9f0b      	ldr	r7, [sp, #44]	; 0x2c
    4a16:	47b8      	blx	r7
    4a18:	3001      	adds	r0, #1
    4a1a:	d100      	bne.n	4a1e <_printf_float+0x36e>
    4a1c:	e71e      	b.n	485c <_printf_float+0x1ac>
    4a1e:	9f09      	ldr	r7, [sp, #36]	; 0x24
    4a20:	3701      	adds	r7, #1
    4a22:	9709      	str	r7, [sp, #36]	; 0x24
    4a24:	9810      	ldr	r0, [sp, #64]	; 0x40
    4a26:	990f      	ldr	r1, [sp, #60]	; 0x3c
    4a28:	43f3      	mvns	r3, r6
    4a2a:	17db      	asrs	r3, r3, #31
    4a2c:	9f09      	ldr	r7, [sp, #36]	; 0x24
    4a2e:	1a42      	subs	r2, r0, r1
    4a30:	4033      	ands	r3, r6
    4a32:	1ad3      	subs	r3, r2, r3
    4a34:	429f      	cmp	r7, r3
    4a36:	dbe8      	blt.n	4a0a <_printf_float+0x35a>
    4a38:	e735      	b.n	48a6 <_printf_float+0x1f6>
    4a3a:	9810      	ldr	r0, [sp, #64]	; 0x40
    4a3c:	2801      	cmp	r0, #1
    4a3e:	dc02      	bgt.n	4a46 <_printf_float+0x396>
    4a40:	2301      	movs	r3, #1
    4a42:	421a      	tst	r2, r3
    4a44:	d03a      	beq.n	4abc <_printf_float+0x40c>
    4a46:	1c28      	adds	r0, r5, #0
    4a48:	990a      	ldr	r1, [sp, #40]	; 0x28
    4a4a:	1c32      	adds	r2, r6, #0
    4a4c:	2301      	movs	r3, #1
    4a4e:	9f0b      	ldr	r7, [sp, #44]	; 0x2c
    4a50:	47b8      	blx	r7
    4a52:	3001      	adds	r0, #1
    4a54:	d100      	bne.n	4a58 <_printf_float+0x3a8>
    4a56:	e701      	b.n	485c <_printf_float+0x1ac>
    4a58:	1c28      	adds	r0, r5, #0
    4a5a:	990a      	ldr	r1, [sp, #40]	; 0x28
    4a5c:	9a0c      	ldr	r2, [sp, #48]	; 0x30
    4a5e:	9b0d      	ldr	r3, [sp, #52]	; 0x34
    4a60:	47b8      	blx	r7
    4a62:	3001      	adds	r0, #1
    4a64:	d100      	bne.n	4a68 <_printf_float+0x3b8>
    4a66:	e6f9      	b.n	485c <_printf_float+0x1ac>
    4a68:	6ca0      	ldr	r0, [r4, #72]	; 0x48
    4a6a:	6ce1      	ldr	r1, [r4, #76]	; 0x4c
    4a6c:	4b25      	ldr	r3, [pc, #148]	; (4b04 <_printf_float+0x454>)
    4a6e:	4a24      	ldr	r2, [pc, #144]	; (4b00 <_printf_float+0x450>)
    4a70:	f002 f824 	bl	6abc <__aeabi_dcmpeq>
    4a74:	2800      	cmp	r0, #0
    4a76:	d001      	beq.n	4a7c <_printf_float+0x3cc>
    4a78:	2600      	movs	r6, #0
    4a7a:	e010      	b.n	4a9e <_printf_float+0x3ee>
    4a7c:	9b10      	ldr	r3, [sp, #64]	; 0x40
    4a7e:	1c72      	adds	r2, r6, #1
    4a80:	3b01      	subs	r3, #1
    4a82:	1c28      	adds	r0, r5, #0
    4a84:	990a      	ldr	r1, [sp, #40]	; 0x28
    4a86:	e01c      	b.n	4ac2 <_printf_float+0x412>
    4a88:	1c22      	adds	r2, r4, #0
    4a8a:	1c28      	adds	r0, r5, #0
    4a8c:	990a      	ldr	r1, [sp, #40]	; 0x28
    4a8e:	321a      	adds	r2, #26
    4a90:	2301      	movs	r3, #1
    4a92:	9f0b      	ldr	r7, [sp, #44]	; 0x2c
    4a94:	47b8      	blx	r7
    4a96:	3001      	adds	r0, #1
    4a98:	d100      	bne.n	4a9c <_printf_float+0x3ec>
    4a9a:	e6df      	b.n	485c <_printf_float+0x1ac>
    4a9c:	3601      	adds	r6, #1
    4a9e:	9b10      	ldr	r3, [sp, #64]	; 0x40
    4aa0:	3b01      	subs	r3, #1
    4aa2:	429e      	cmp	r6, r3
    4aa4:	dbf0      	blt.n	4a88 <_printf_float+0x3d8>
    4aa6:	1c22      	adds	r2, r4, #0
    4aa8:	1c28      	adds	r0, r5, #0
    4aaa:	990a      	ldr	r1, [sp, #40]	; 0x28
    4aac:	3250      	adds	r2, #80	; 0x50
    4aae:	9b09      	ldr	r3, [sp, #36]	; 0x24
    4ab0:	9f0b      	ldr	r7, [sp, #44]	; 0x2c
    4ab2:	47b8      	blx	r7
    4ab4:	3001      	adds	r0, #1
    4ab6:	d000      	beq.n	4aba <_printf_float+0x40a>
    4ab8:	e6f5      	b.n	48a6 <_printf_float+0x1f6>
    4aba:	e6cf      	b.n	485c <_printf_float+0x1ac>
    4abc:	990a      	ldr	r1, [sp, #40]	; 0x28
    4abe:	1c28      	adds	r0, r5, #0
    4ac0:	1c32      	adds	r2, r6, #0
    4ac2:	9e0b      	ldr	r6, [sp, #44]	; 0x2c
    4ac4:	47b0      	blx	r6
    4ac6:	3001      	adds	r0, #1
    4ac8:	d1ed      	bne.n	4aa6 <_printf_float+0x3f6>
    4aca:	e6c7      	b.n	485c <_printf_float+0x1ac>
    4acc:	2600      	movs	r6, #0
    4ace:	68e0      	ldr	r0, [r4, #12]
    4ad0:	9911      	ldr	r1, [sp, #68]	; 0x44
    4ad2:	1a43      	subs	r3, r0, r1
    4ad4:	429e      	cmp	r6, r3
    4ad6:	db05      	blt.n	4ae4 <_printf_float+0x434>
    4ad8:	9b11      	ldr	r3, [sp, #68]	; 0x44
    4ada:	68e0      	ldr	r0, [r4, #12]
    4adc:	4298      	cmp	r0, r3
    4ade:	da0d      	bge.n	4afc <_printf_float+0x44c>
    4ae0:	1c18      	adds	r0, r3, #0
    4ae2:	e00b      	b.n	4afc <_printf_float+0x44c>
    4ae4:	1c22      	adds	r2, r4, #0
    4ae6:	1c28      	adds	r0, r5, #0
    4ae8:	990a      	ldr	r1, [sp, #40]	; 0x28
    4aea:	3219      	adds	r2, #25
    4aec:	2301      	movs	r3, #1
    4aee:	9f0b      	ldr	r7, [sp, #44]	; 0x2c
    4af0:	47b8      	blx	r7
    4af2:	3001      	adds	r0, #1
    4af4:	d100      	bne.n	4af8 <_printf_float+0x448>
    4af6:	e6b1      	b.n	485c <_printf_float+0x1ac>
    4af8:	3601      	adds	r6, #1
    4afa:	e7e8      	b.n	4ace <_printf_float+0x41e>
    4afc:	b013      	add	sp, #76	; 0x4c
    4afe:	bdf0      	pop	{r4, r5, r6, r7, pc}
	...

00004b08 <_printf_common>:
    4b08:	b5f7      	push	{r0, r1, r2, r4, r5, r6, r7, lr}
    4b0a:	1c15      	adds	r5, r2, #0
    4b0c:	9301      	str	r3, [sp, #4]
    4b0e:	690a      	ldr	r2, [r1, #16]
    4b10:	688b      	ldr	r3, [r1, #8]
    4b12:	1c06      	adds	r6, r0, #0
    4b14:	1c0c      	adds	r4, r1, #0
    4b16:	4293      	cmp	r3, r2
    4b18:	da00      	bge.n	4b1c <_printf_common+0x14>
    4b1a:	1c13      	adds	r3, r2, #0
    4b1c:	1c22      	adds	r2, r4, #0
    4b1e:	602b      	str	r3, [r5, #0]
    4b20:	3243      	adds	r2, #67	; 0x43
    4b22:	7812      	ldrb	r2, [r2, #0]
    4b24:	2a00      	cmp	r2, #0
    4b26:	d001      	beq.n	4b2c <_printf_common+0x24>
    4b28:	3301      	adds	r3, #1
    4b2a:	602b      	str	r3, [r5, #0]
    4b2c:	6820      	ldr	r0, [r4, #0]
    4b2e:	0680      	lsls	r0, r0, #26
    4b30:	d502      	bpl.n	4b38 <_printf_common+0x30>
    4b32:	682b      	ldr	r3, [r5, #0]
    4b34:	3302      	adds	r3, #2
    4b36:	602b      	str	r3, [r5, #0]
    4b38:	6821      	ldr	r1, [r4, #0]
    4b3a:	2706      	movs	r7, #6
    4b3c:	400f      	ands	r7, r1
    4b3e:	d01f      	beq.n	4b80 <_printf_common+0x78>
    4b40:	1c23      	adds	r3, r4, #0
    4b42:	3343      	adds	r3, #67	; 0x43
    4b44:	781b      	ldrb	r3, [r3, #0]
    4b46:	1e5a      	subs	r2, r3, #1
    4b48:	4193      	sbcs	r3, r2
    4b4a:	6822      	ldr	r2, [r4, #0]
    4b4c:	0692      	lsls	r2, r2, #26
    4b4e:	d51f      	bpl.n	4b90 <_printf_common+0x88>
    4b50:	18e1      	adds	r1, r4, r3
    4b52:	3140      	adds	r1, #64	; 0x40
    4b54:	2030      	movs	r0, #48	; 0x30
    4b56:	70c8      	strb	r0, [r1, #3]
    4b58:	1c21      	adds	r1, r4, #0
    4b5a:	1c5a      	adds	r2, r3, #1
    4b5c:	3145      	adds	r1, #69	; 0x45
    4b5e:	7809      	ldrb	r1, [r1, #0]
    4b60:	18a2      	adds	r2, r4, r2
    4b62:	3240      	adds	r2, #64	; 0x40
    4b64:	3302      	adds	r3, #2
    4b66:	70d1      	strb	r1, [r2, #3]
    4b68:	e012      	b.n	4b90 <_printf_common+0x88>
    4b6a:	1c22      	adds	r2, r4, #0
    4b6c:	1c30      	adds	r0, r6, #0
    4b6e:	9901      	ldr	r1, [sp, #4]
    4b70:	3219      	adds	r2, #25
    4b72:	2301      	movs	r3, #1
    4b74:	9f08      	ldr	r7, [sp, #32]
    4b76:	47b8      	blx	r7
    4b78:	3001      	adds	r0, #1
    4b7a:	d011      	beq.n	4ba0 <_printf_common+0x98>
    4b7c:	9f00      	ldr	r7, [sp, #0]
    4b7e:	3701      	adds	r7, #1
    4b80:	9700      	str	r7, [sp, #0]
    4b82:	68e0      	ldr	r0, [r4, #12]
    4b84:	6829      	ldr	r1, [r5, #0]
    4b86:	9f00      	ldr	r7, [sp, #0]
    4b88:	1a43      	subs	r3, r0, r1
    4b8a:	429f      	cmp	r7, r3
    4b8c:	dbed      	blt.n	4b6a <_printf_common+0x62>
    4b8e:	e7d7      	b.n	4b40 <_printf_common+0x38>
    4b90:	1c22      	adds	r2, r4, #0
    4b92:	1c30      	adds	r0, r6, #0
    4b94:	9901      	ldr	r1, [sp, #4]
    4b96:	3243      	adds	r2, #67	; 0x43
    4b98:	9f08      	ldr	r7, [sp, #32]
    4b9a:	47b8      	blx	r7
    4b9c:	3001      	adds	r0, #1
    4b9e:	d102      	bne.n	4ba6 <_printf_common+0x9e>
    4ba0:	2001      	movs	r0, #1
    4ba2:	4240      	negs	r0, r0
    4ba4:	e023      	b.n	4bee <_printf_common+0xe6>
    4ba6:	6820      	ldr	r0, [r4, #0]
    4ba8:	2106      	movs	r1, #6
    4baa:	682b      	ldr	r3, [r5, #0]
    4bac:	68e2      	ldr	r2, [r4, #12]
    4bae:	4001      	ands	r1, r0
    4bb0:	2500      	movs	r5, #0
    4bb2:	2904      	cmp	r1, #4
    4bb4:	d103      	bne.n	4bbe <_printf_common+0xb6>
    4bb6:	1ad5      	subs	r5, r2, r3
    4bb8:	43eb      	mvns	r3, r5
    4bba:	17db      	asrs	r3, r3, #31
    4bbc:	401d      	ands	r5, r3
    4bbe:	68a2      	ldr	r2, [r4, #8]
    4bc0:	6923      	ldr	r3, [r4, #16]
    4bc2:	429a      	cmp	r2, r3
    4bc4:	dd01      	ble.n	4bca <_printf_common+0xc2>
    4bc6:	1ad3      	subs	r3, r2, r3
    4bc8:	18ed      	adds	r5, r5, r3
    4bca:	2700      	movs	r7, #0
    4bcc:	9700      	str	r7, [sp, #0]
    4bce:	9f00      	ldr	r7, [sp, #0]
    4bd0:	42af      	cmp	r7, r5
    4bd2:	da0b      	bge.n	4bec <_printf_common+0xe4>
    4bd4:	1c22      	adds	r2, r4, #0
    4bd6:	1c30      	adds	r0, r6, #0
    4bd8:	9901      	ldr	r1, [sp, #4]
    4bda:	321a      	adds	r2, #26
    4bdc:	2301      	movs	r3, #1
    4bde:	9f08      	ldr	r7, [sp, #32]
    4be0:	47b8      	blx	r7
    4be2:	3001      	adds	r0, #1
    4be4:	d0dc      	beq.n	4ba0 <_printf_common+0x98>
    4be6:	9f00      	ldr	r7, [sp, #0]
    4be8:	3701      	adds	r7, #1
    4bea:	e7ef      	b.n	4bcc <_printf_common+0xc4>
    4bec:	2000      	movs	r0, #0
    4bee:	bdfe      	pop	{r1, r2, r3, r4, r5, r6, r7, pc}

00004bf0 <_printf_i>:
    4bf0:	b5f0      	push	{r4, r5, r6, r7, lr}
    4bf2:	1c0d      	adds	r5, r1, #0
    4bf4:	b08b      	sub	sp, #44	; 0x2c
    4bf6:	3543      	adds	r5, #67	; 0x43
    4bf8:	9206      	str	r2, [sp, #24]
    4bfa:	9005      	str	r0, [sp, #20]
    4bfc:	9307      	str	r3, [sp, #28]
    4bfe:	9504      	str	r5, [sp, #16]
    4c00:	7e0b      	ldrb	r3, [r1, #24]
    4c02:	1c0c      	adds	r4, r1, #0
    4c04:	9a10      	ldr	r2, [sp, #64]	; 0x40
    4c06:	2b6e      	cmp	r3, #110	; 0x6e
    4c08:	d100      	bne.n	4c0c <_printf_i+0x1c>
    4c0a:	e0a7      	b.n	4d5c <_printf_i+0x16c>
    4c0c:	d811      	bhi.n	4c32 <_printf_i+0x42>
    4c0e:	2b63      	cmp	r3, #99	; 0x63
    4c10:	d022      	beq.n	4c58 <_printf_i+0x68>
    4c12:	d809      	bhi.n	4c28 <_printf_i+0x38>
    4c14:	2b00      	cmp	r3, #0
    4c16:	d100      	bne.n	4c1a <_printf_i+0x2a>
    4c18:	e0b0      	b.n	4d7c <_printf_i+0x18c>
    4c1a:	2b58      	cmp	r3, #88	; 0x58
    4c1c:	d000      	beq.n	4c20 <_printf_i+0x30>
    4c1e:	e0c0      	b.n	4da2 <_printf_i+0x1b2>
    4c20:	3145      	adds	r1, #69	; 0x45
    4c22:	700b      	strb	r3, [r1, #0]
    4c24:	4d7b      	ldr	r5, [pc, #492]	; (4e14 <_printf_i+0x224>)
    4c26:	e04e      	b.n	4cc6 <_printf_i+0xd6>
    4c28:	2b64      	cmp	r3, #100	; 0x64
    4c2a:	d01c      	beq.n	4c66 <_printf_i+0x76>
    4c2c:	2b69      	cmp	r3, #105	; 0x69
    4c2e:	d01a      	beq.n	4c66 <_printf_i+0x76>
    4c30:	e0b7      	b.n	4da2 <_printf_i+0x1b2>
    4c32:	2b73      	cmp	r3, #115	; 0x73
    4c34:	d100      	bne.n	4c38 <_printf_i+0x48>
    4c36:	e0a5      	b.n	4d84 <_printf_i+0x194>
    4c38:	d809      	bhi.n	4c4e <_printf_i+0x5e>
    4c3a:	2b6f      	cmp	r3, #111	; 0x6f
    4c3c:	d029      	beq.n	4c92 <_printf_i+0xa2>
    4c3e:	2b70      	cmp	r3, #112	; 0x70
    4c40:	d000      	beq.n	4c44 <_printf_i+0x54>
    4c42:	e0ae      	b.n	4da2 <_printf_i+0x1b2>
    4c44:	680e      	ldr	r6, [r1, #0]
    4c46:	2320      	movs	r3, #32
    4c48:	4333      	orrs	r3, r6
    4c4a:	600b      	str	r3, [r1, #0]
    4c4c:	e036      	b.n	4cbc <_printf_i+0xcc>
    4c4e:	2b75      	cmp	r3, #117	; 0x75
    4c50:	d01f      	beq.n	4c92 <_printf_i+0xa2>
    4c52:	2b78      	cmp	r3, #120	; 0x78
    4c54:	d032      	beq.n	4cbc <_printf_i+0xcc>
    4c56:	e0a4      	b.n	4da2 <_printf_i+0x1b2>
    4c58:	6813      	ldr	r3, [r2, #0]
    4c5a:	1c0d      	adds	r5, r1, #0
    4c5c:	1d19      	adds	r1, r3, #4
    4c5e:	3542      	adds	r5, #66	; 0x42
    4c60:	6011      	str	r1, [r2, #0]
    4c62:	681b      	ldr	r3, [r3, #0]
    4c64:	e09f      	b.n	4da6 <_printf_i+0x1b6>
    4c66:	6821      	ldr	r1, [r4, #0]
    4c68:	6813      	ldr	r3, [r2, #0]
    4c6a:	060e      	lsls	r6, r1, #24
    4c6c:	d503      	bpl.n	4c76 <_printf_i+0x86>
    4c6e:	1d19      	adds	r1, r3, #4
    4c70:	6011      	str	r1, [r2, #0]
    4c72:	681e      	ldr	r6, [r3, #0]
    4c74:	e005      	b.n	4c82 <_printf_i+0x92>
    4c76:	0648      	lsls	r0, r1, #25
    4c78:	d5f9      	bpl.n	4c6e <_printf_i+0x7e>
    4c7a:	1d19      	adds	r1, r3, #4
    4c7c:	6011      	str	r1, [r2, #0]
    4c7e:	2100      	movs	r1, #0
    4c80:	5e5e      	ldrsh	r6, [r3, r1]
    4c82:	4b64      	ldr	r3, [pc, #400]	; (4e14 <_printf_i+0x224>)
    4c84:	2e00      	cmp	r6, #0
    4c86:	da3b      	bge.n	4d00 <_printf_i+0x110>
    4c88:	9d04      	ldr	r5, [sp, #16]
    4c8a:	222d      	movs	r2, #45	; 0x2d
    4c8c:	4276      	negs	r6, r6
    4c8e:	702a      	strb	r2, [r5, #0]
    4c90:	e036      	b.n	4d00 <_printf_i+0x110>
    4c92:	6821      	ldr	r1, [r4, #0]
    4c94:	6813      	ldr	r3, [r2, #0]
    4c96:	060e      	lsls	r6, r1, #24
    4c98:	d503      	bpl.n	4ca2 <_printf_i+0xb2>
    4c9a:	1d19      	adds	r1, r3, #4
    4c9c:	6011      	str	r1, [r2, #0]
    4c9e:	681e      	ldr	r6, [r3, #0]
    4ca0:	e004      	b.n	4cac <_printf_i+0xbc>
    4ca2:	0648      	lsls	r0, r1, #25
    4ca4:	d5f9      	bpl.n	4c9a <_printf_i+0xaa>
    4ca6:	1d19      	adds	r1, r3, #4
    4ca8:	881e      	ldrh	r6, [r3, #0]
    4caa:	6011      	str	r1, [r2, #0]
    4cac:	4b59      	ldr	r3, [pc, #356]	; (4e14 <_printf_i+0x224>)
    4cae:	7e22      	ldrb	r2, [r4, #24]
    4cb0:	9303      	str	r3, [sp, #12]
    4cb2:	2708      	movs	r7, #8
    4cb4:	2a6f      	cmp	r2, #111	; 0x6f
    4cb6:	d01e      	beq.n	4cf6 <_printf_i+0x106>
    4cb8:	270a      	movs	r7, #10
    4cba:	e01c      	b.n	4cf6 <_printf_i+0x106>
    4cbc:	1c23      	adds	r3, r4, #0
    4cbe:	2178      	movs	r1, #120	; 0x78
    4cc0:	3345      	adds	r3, #69	; 0x45
    4cc2:	4d55      	ldr	r5, [pc, #340]	; (4e18 <_printf_i+0x228>)
    4cc4:	7019      	strb	r1, [r3, #0]
    4cc6:	6811      	ldr	r1, [r2, #0]
    4cc8:	6823      	ldr	r3, [r4, #0]
    4cca:	1d08      	adds	r0, r1, #4
    4ccc:	9503      	str	r5, [sp, #12]
    4cce:	6010      	str	r0, [r2, #0]
    4cd0:	061e      	lsls	r6, r3, #24
    4cd2:	d501      	bpl.n	4cd8 <_printf_i+0xe8>
    4cd4:	680e      	ldr	r6, [r1, #0]
    4cd6:	e002      	b.n	4cde <_printf_i+0xee>
    4cd8:	0658      	lsls	r0, r3, #25
    4cda:	d5fb      	bpl.n	4cd4 <_printf_i+0xe4>
    4cdc:	880e      	ldrh	r6, [r1, #0]
    4cde:	07d9      	lsls	r1, r3, #31
    4ce0:	d502      	bpl.n	4ce8 <_printf_i+0xf8>
    4ce2:	2220      	movs	r2, #32
    4ce4:	4313      	orrs	r3, r2
    4ce6:	6023      	str	r3, [r4, #0]
    4ce8:	2710      	movs	r7, #16
    4cea:	2e00      	cmp	r6, #0
    4cec:	d103      	bne.n	4cf6 <_printf_i+0x106>
    4cee:	6822      	ldr	r2, [r4, #0]
    4cf0:	2320      	movs	r3, #32
    4cf2:	439a      	bics	r2, r3
    4cf4:	6022      	str	r2, [r4, #0]
    4cf6:	1c23      	adds	r3, r4, #0
    4cf8:	2200      	movs	r2, #0
    4cfa:	3343      	adds	r3, #67	; 0x43
    4cfc:	701a      	strb	r2, [r3, #0]
    4cfe:	e001      	b.n	4d04 <_printf_i+0x114>
    4d00:	9303      	str	r3, [sp, #12]
    4d02:	270a      	movs	r7, #10
    4d04:	6863      	ldr	r3, [r4, #4]
    4d06:	60a3      	str	r3, [r4, #8]
    4d08:	2b00      	cmp	r3, #0
    4d0a:	db03      	blt.n	4d14 <_printf_i+0x124>
    4d0c:	6825      	ldr	r5, [r4, #0]
    4d0e:	2204      	movs	r2, #4
    4d10:	4395      	bics	r5, r2
    4d12:	6025      	str	r5, [r4, #0]
    4d14:	2e00      	cmp	r6, #0
    4d16:	d102      	bne.n	4d1e <_printf_i+0x12e>
    4d18:	9d04      	ldr	r5, [sp, #16]
    4d1a:	2b00      	cmp	r3, #0
    4d1c:	d00e      	beq.n	4d3c <_printf_i+0x14c>
    4d1e:	9d04      	ldr	r5, [sp, #16]
    4d20:	1c30      	adds	r0, r6, #0
    4d22:	1c39      	adds	r1, r7, #0
    4d24:	f001 fe4e 	bl	69c4 <__aeabi_uidivmod>
    4d28:	9803      	ldr	r0, [sp, #12]
    4d2a:	3d01      	subs	r5, #1
    4d2c:	5c43      	ldrb	r3, [r0, r1]
    4d2e:	1c30      	adds	r0, r6, #0
    4d30:	702b      	strb	r3, [r5, #0]
    4d32:	1c39      	adds	r1, r7, #0
    4d34:	f001 fe02 	bl	693c <__aeabi_uidiv>
    4d38:	1e06      	subs	r6, r0, #0
    4d3a:	d1f1      	bne.n	4d20 <_printf_i+0x130>
    4d3c:	2f08      	cmp	r7, #8
    4d3e:	d109      	bne.n	4d54 <_printf_i+0x164>
    4d40:	6821      	ldr	r1, [r4, #0]
    4d42:	07c9      	lsls	r1, r1, #31
    4d44:	d506      	bpl.n	4d54 <_printf_i+0x164>
    4d46:	6862      	ldr	r2, [r4, #4]
    4d48:	6923      	ldr	r3, [r4, #16]
    4d4a:	429a      	cmp	r2, r3
    4d4c:	dc02      	bgt.n	4d54 <_printf_i+0x164>
    4d4e:	3d01      	subs	r5, #1
    4d50:	2330      	movs	r3, #48	; 0x30
    4d52:	702b      	strb	r3, [r5, #0]
    4d54:	9e04      	ldr	r6, [sp, #16]
    4d56:	1b73      	subs	r3, r6, r5
    4d58:	6123      	str	r3, [r4, #16]
    4d5a:	e02a      	b.n	4db2 <_printf_i+0x1c2>
    4d5c:	6808      	ldr	r0, [r1, #0]
    4d5e:	6813      	ldr	r3, [r2, #0]
    4d60:	6949      	ldr	r1, [r1, #20]
    4d62:	0605      	lsls	r5, r0, #24
    4d64:	d504      	bpl.n	4d70 <_printf_i+0x180>
    4d66:	1d18      	adds	r0, r3, #4
    4d68:	6010      	str	r0, [r2, #0]
    4d6a:	681b      	ldr	r3, [r3, #0]
    4d6c:	6019      	str	r1, [r3, #0]
    4d6e:	e005      	b.n	4d7c <_printf_i+0x18c>
    4d70:	0646      	lsls	r6, r0, #25
    4d72:	d5f8      	bpl.n	4d66 <_printf_i+0x176>
    4d74:	1d18      	adds	r0, r3, #4
    4d76:	6010      	str	r0, [r2, #0]
    4d78:	681b      	ldr	r3, [r3, #0]
    4d7a:	8019      	strh	r1, [r3, #0]
    4d7c:	2300      	movs	r3, #0
    4d7e:	6123      	str	r3, [r4, #16]
    4d80:	9d04      	ldr	r5, [sp, #16]
    4d82:	e016      	b.n	4db2 <_printf_i+0x1c2>
    4d84:	6813      	ldr	r3, [r2, #0]
    4d86:	1d19      	adds	r1, r3, #4
    4d88:	6011      	str	r1, [r2, #0]
    4d8a:	681d      	ldr	r5, [r3, #0]
    4d8c:	1c28      	adds	r0, r5, #0
    4d8e:	f001 fd51 	bl	6834 <strlen>
    4d92:	6863      	ldr	r3, [r4, #4]
    4d94:	6120      	str	r0, [r4, #16]
    4d96:	4298      	cmp	r0, r3
    4d98:	d900      	bls.n	4d9c <_printf_i+0x1ac>
    4d9a:	6123      	str	r3, [r4, #16]
    4d9c:	6920      	ldr	r0, [r4, #16]
    4d9e:	6060      	str	r0, [r4, #4]
    4da0:	e004      	b.n	4dac <_printf_i+0x1bc>
    4da2:	1c25      	adds	r5, r4, #0
    4da4:	3542      	adds	r5, #66	; 0x42
    4da6:	702b      	strb	r3, [r5, #0]
    4da8:	2301      	movs	r3, #1
    4daa:	6123      	str	r3, [r4, #16]
    4dac:	9e04      	ldr	r6, [sp, #16]
    4dae:	2300      	movs	r3, #0
    4db0:	7033      	strb	r3, [r6, #0]
    4db2:	9e07      	ldr	r6, [sp, #28]
    4db4:	9805      	ldr	r0, [sp, #20]
    4db6:	9600      	str	r6, [sp, #0]
    4db8:	1c21      	adds	r1, r4, #0
    4dba:	aa09      	add	r2, sp, #36	; 0x24
    4dbc:	9b06      	ldr	r3, [sp, #24]
    4dbe:	f7ff fea3 	bl	4b08 <_printf_common>
    4dc2:	3001      	adds	r0, #1
    4dc4:	d102      	bne.n	4dcc <_printf_i+0x1dc>
    4dc6:	2001      	movs	r0, #1
    4dc8:	4240      	negs	r0, r0
    4dca:	e021      	b.n	4e10 <_printf_i+0x220>
    4dcc:	1c2a      	adds	r2, r5, #0
    4dce:	9805      	ldr	r0, [sp, #20]
    4dd0:	9906      	ldr	r1, [sp, #24]
    4dd2:	6923      	ldr	r3, [r4, #16]
    4dd4:	9d07      	ldr	r5, [sp, #28]
    4dd6:	47a8      	blx	r5
    4dd8:	3001      	adds	r0, #1
    4dda:	d0f4      	beq.n	4dc6 <_printf_i+0x1d6>
    4ddc:	6826      	ldr	r6, [r4, #0]
    4dde:	07b6      	lsls	r6, r6, #30
    4de0:	d405      	bmi.n	4dee <_printf_i+0x1fe>
    4de2:	9b09      	ldr	r3, [sp, #36]	; 0x24
    4de4:	68e0      	ldr	r0, [r4, #12]
    4de6:	4298      	cmp	r0, r3
    4de8:	da12      	bge.n	4e10 <_printf_i+0x220>
    4dea:	1c18      	adds	r0, r3, #0
    4dec:	e010      	b.n	4e10 <_printf_i+0x220>
    4dee:	2500      	movs	r5, #0
    4df0:	68e0      	ldr	r0, [r4, #12]
    4df2:	9909      	ldr	r1, [sp, #36]	; 0x24
    4df4:	1a43      	subs	r3, r0, r1
    4df6:	429d      	cmp	r5, r3
    4df8:	daf3      	bge.n	4de2 <_printf_i+0x1f2>
    4dfa:	1c22      	adds	r2, r4, #0
    4dfc:	9805      	ldr	r0, [sp, #20]
    4dfe:	9906      	ldr	r1, [sp, #24]
    4e00:	3219      	adds	r2, #25
    4e02:	2301      	movs	r3, #1
    4e04:	9e07      	ldr	r6, [sp, #28]
    4e06:	47b0      	blx	r6
    4e08:	3001      	adds	r0, #1
    4e0a:	d0dc      	beq.n	4dc6 <_printf_i+0x1d6>
    4e0c:	3501      	adds	r5, #1
    4e0e:	e7ef      	b.n	4df0 <_printf_i+0x200>
    4e10:	b00b      	add	sp, #44	; 0x2c
    4e12:	bdf0      	pop	{r4, r5, r6, r7, pc}
    4e14:	00009cdb 	.word	0x00009cdb
    4e18:	00009cec 	.word	0x00009cec

00004e1c <__swbuf_r>:
    4e1c:	b570      	push	{r4, r5, r6, lr}
    4e1e:	1c05      	adds	r5, r0, #0
    4e20:	1c0e      	adds	r6, r1, #0
    4e22:	1c14      	adds	r4, r2, #0
    4e24:	2800      	cmp	r0, #0
    4e26:	d004      	beq.n	4e32 <__swbuf_r+0x16>
    4e28:	6982      	ldr	r2, [r0, #24]
    4e2a:	2a00      	cmp	r2, #0
    4e2c:	d101      	bne.n	4e32 <__swbuf_r+0x16>
    4e2e:	f001 f831 	bl	5e94 <__sinit>
    4e32:	4b23      	ldr	r3, [pc, #140]	; (4ec0 <__swbuf_r+0xa4>)
    4e34:	429c      	cmp	r4, r3
    4e36:	d101      	bne.n	4e3c <__swbuf_r+0x20>
    4e38:	686c      	ldr	r4, [r5, #4]
    4e3a:	e008      	b.n	4e4e <__swbuf_r+0x32>
    4e3c:	4b21      	ldr	r3, [pc, #132]	; (4ec4 <__swbuf_r+0xa8>)
    4e3e:	429c      	cmp	r4, r3
    4e40:	d101      	bne.n	4e46 <__swbuf_r+0x2a>
    4e42:	68ac      	ldr	r4, [r5, #8]
    4e44:	e003      	b.n	4e4e <__swbuf_r+0x32>
    4e46:	4b20      	ldr	r3, [pc, #128]	; (4ec8 <__swbuf_r+0xac>)
    4e48:	429c      	cmp	r4, r3
    4e4a:	d100      	bne.n	4e4e <__swbuf_r+0x32>
    4e4c:	68ec      	ldr	r4, [r5, #12]
    4e4e:	69a3      	ldr	r3, [r4, #24]
    4e50:	60a3      	str	r3, [r4, #8]
    4e52:	89a3      	ldrh	r3, [r4, #12]
    4e54:	071a      	lsls	r2, r3, #28
    4e56:	d50a      	bpl.n	4e6e <__swbuf_r+0x52>
    4e58:	6923      	ldr	r3, [r4, #16]
    4e5a:	2b00      	cmp	r3, #0
    4e5c:	d007      	beq.n	4e6e <__swbuf_r+0x52>
    4e5e:	6822      	ldr	r2, [r4, #0]
    4e60:	6923      	ldr	r3, [r4, #16]
    4e62:	b2f6      	uxtb	r6, r6
    4e64:	1ad0      	subs	r0, r2, r3
    4e66:	6962      	ldr	r2, [r4, #20]
    4e68:	4290      	cmp	r0, r2
    4e6a:	db0f      	blt.n	4e8c <__swbuf_r+0x70>
    4e6c:	e008      	b.n	4e80 <__swbuf_r+0x64>
    4e6e:	1c28      	adds	r0, r5, #0
    4e70:	1c21      	adds	r1, r4, #0
    4e72:	f000 f82b 	bl	4ecc <__swsetup_r>
    4e76:	2800      	cmp	r0, #0
    4e78:	d0f1      	beq.n	4e5e <__swbuf_r+0x42>
    4e7a:	2001      	movs	r0, #1
    4e7c:	4240      	negs	r0, r0
    4e7e:	e01d      	b.n	4ebc <__swbuf_r+0xa0>
    4e80:	1c28      	adds	r0, r5, #0
    4e82:	1c21      	adds	r1, r4, #0
    4e84:	f000 ff86 	bl	5d94 <_fflush_r>
    4e88:	2800      	cmp	r0, #0
    4e8a:	d1f6      	bne.n	4e7a <__swbuf_r+0x5e>
    4e8c:	68a3      	ldr	r3, [r4, #8]
    4e8e:	3001      	adds	r0, #1
    4e90:	3b01      	subs	r3, #1
    4e92:	60a3      	str	r3, [r4, #8]
    4e94:	6823      	ldr	r3, [r4, #0]
    4e96:	1c5a      	adds	r2, r3, #1
    4e98:	6022      	str	r2, [r4, #0]
    4e9a:	701e      	strb	r6, [r3, #0]
    4e9c:	6963      	ldr	r3, [r4, #20]
    4e9e:	4298      	cmp	r0, r3
    4ea0:	d005      	beq.n	4eae <__swbuf_r+0x92>
    4ea2:	89a3      	ldrh	r3, [r4, #12]
    4ea4:	1c30      	adds	r0, r6, #0
    4ea6:	07da      	lsls	r2, r3, #31
    4ea8:	d508      	bpl.n	4ebc <__swbuf_r+0xa0>
    4eaa:	2e0a      	cmp	r6, #10
    4eac:	d106      	bne.n	4ebc <__swbuf_r+0xa0>
    4eae:	1c28      	adds	r0, r5, #0
    4eb0:	1c21      	adds	r1, r4, #0
    4eb2:	f000 ff6f 	bl	5d94 <_fflush_r>
    4eb6:	2800      	cmp	r0, #0
    4eb8:	d1df      	bne.n	4e7a <__swbuf_r+0x5e>
    4eba:	1c30      	adds	r0, r6, #0
    4ebc:	bd70      	pop	{r4, r5, r6, pc}
    4ebe:	46c0      	nop			; (mov r8, r8)
    4ec0:	00009d0c 	.word	0x00009d0c
    4ec4:	00009d2c 	.word	0x00009d2c
    4ec8:	00009d4c 	.word	0x00009d4c

00004ecc <__swsetup_r>:
    4ecc:	4b34      	ldr	r3, [pc, #208]	; (4fa0 <__swsetup_r+0xd4>)
    4ece:	b570      	push	{r4, r5, r6, lr}
    4ed0:	681d      	ldr	r5, [r3, #0]
    4ed2:	1c06      	adds	r6, r0, #0
    4ed4:	1c0c      	adds	r4, r1, #0
    4ed6:	2d00      	cmp	r5, #0
    4ed8:	d005      	beq.n	4ee6 <__swsetup_r+0x1a>
    4eda:	69a9      	ldr	r1, [r5, #24]
    4edc:	2900      	cmp	r1, #0
    4ede:	d102      	bne.n	4ee6 <__swsetup_r+0x1a>
    4ee0:	1c28      	adds	r0, r5, #0
    4ee2:	f000 ffd7 	bl	5e94 <__sinit>
    4ee6:	4b2f      	ldr	r3, [pc, #188]	; (4fa4 <__swsetup_r+0xd8>)
    4ee8:	429c      	cmp	r4, r3
    4eea:	d101      	bne.n	4ef0 <__swsetup_r+0x24>
    4eec:	686c      	ldr	r4, [r5, #4]
    4eee:	e008      	b.n	4f02 <__swsetup_r+0x36>
    4ef0:	4b2d      	ldr	r3, [pc, #180]	; (4fa8 <__swsetup_r+0xdc>)
    4ef2:	429c      	cmp	r4, r3
    4ef4:	d101      	bne.n	4efa <__swsetup_r+0x2e>
    4ef6:	68ac      	ldr	r4, [r5, #8]
    4ef8:	e003      	b.n	4f02 <__swsetup_r+0x36>
    4efa:	4b2c      	ldr	r3, [pc, #176]	; (4fac <__swsetup_r+0xe0>)
    4efc:	429c      	cmp	r4, r3
    4efe:	d100      	bne.n	4f02 <__swsetup_r+0x36>
    4f00:	68ec      	ldr	r4, [r5, #12]
    4f02:	89a2      	ldrh	r2, [r4, #12]
    4f04:	b293      	uxth	r3, r2
    4f06:	0719      	lsls	r1, r3, #28
    4f08:	d421      	bmi.n	4f4e <__swsetup_r+0x82>
    4f0a:	06d9      	lsls	r1, r3, #27
    4f0c:	d405      	bmi.n	4f1a <__swsetup_r+0x4e>
    4f0e:	2309      	movs	r3, #9
    4f10:	6033      	str	r3, [r6, #0]
    4f12:	2340      	movs	r3, #64	; 0x40
    4f14:	431a      	orrs	r2, r3
    4f16:	81a2      	strh	r2, [r4, #12]
    4f18:	e03f      	b.n	4f9a <__swsetup_r+0xce>
    4f1a:	075a      	lsls	r2, r3, #29
    4f1c:	d513      	bpl.n	4f46 <__swsetup_r+0x7a>
    4f1e:	6b61      	ldr	r1, [r4, #52]	; 0x34
    4f20:	2900      	cmp	r1, #0
    4f22:	d008      	beq.n	4f36 <__swsetup_r+0x6a>
    4f24:	1c23      	adds	r3, r4, #0
    4f26:	3344      	adds	r3, #68	; 0x44
    4f28:	4299      	cmp	r1, r3
    4f2a:	d002      	beq.n	4f32 <__swsetup_r+0x66>
    4f2c:	1c30      	adds	r0, r6, #0
    4f2e:	f001 fb87 	bl	6640 <_free_r>
    4f32:	2300      	movs	r3, #0
    4f34:	6363      	str	r3, [r4, #52]	; 0x34
    4f36:	89a3      	ldrh	r3, [r4, #12]
    4f38:	2224      	movs	r2, #36	; 0x24
    4f3a:	4393      	bics	r3, r2
    4f3c:	81a3      	strh	r3, [r4, #12]
    4f3e:	2300      	movs	r3, #0
    4f40:	6063      	str	r3, [r4, #4]
    4f42:	6923      	ldr	r3, [r4, #16]
    4f44:	6023      	str	r3, [r4, #0]
    4f46:	89a3      	ldrh	r3, [r4, #12]
    4f48:	2208      	movs	r2, #8
    4f4a:	4313      	orrs	r3, r2
    4f4c:	81a3      	strh	r3, [r4, #12]
    4f4e:	6921      	ldr	r1, [r4, #16]
    4f50:	2900      	cmp	r1, #0
    4f52:	d10b      	bne.n	4f6c <__swsetup_r+0xa0>
    4f54:	89a3      	ldrh	r3, [r4, #12]
    4f56:	22a0      	movs	r2, #160	; 0xa0
    4f58:	0092      	lsls	r2, r2, #2
    4f5a:	401a      	ands	r2, r3
    4f5c:	2380      	movs	r3, #128	; 0x80
    4f5e:	009b      	lsls	r3, r3, #2
    4f60:	429a      	cmp	r2, r3
    4f62:	d003      	beq.n	4f6c <__swsetup_r+0xa0>
    4f64:	1c30      	adds	r0, r6, #0
    4f66:	1c21      	adds	r1, r4, #0
    4f68:	f001 f808 	bl	5f7c <__smakebuf_r>
    4f6c:	89a3      	ldrh	r3, [r4, #12]
    4f6e:	2201      	movs	r2, #1
    4f70:	401a      	ands	r2, r3
    4f72:	d005      	beq.n	4f80 <__swsetup_r+0xb4>
    4f74:	6961      	ldr	r1, [r4, #20]
    4f76:	2200      	movs	r2, #0
    4f78:	60a2      	str	r2, [r4, #8]
    4f7a:	424a      	negs	r2, r1
    4f7c:	61a2      	str	r2, [r4, #24]
    4f7e:	e003      	b.n	4f88 <__swsetup_r+0xbc>
    4f80:	0799      	lsls	r1, r3, #30
    4f82:	d400      	bmi.n	4f86 <__swsetup_r+0xba>
    4f84:	6962      	ldr	r2, [r4, #20]
    4f86:	60a2      	str	r2, [r4, #8]
    4f88:	6922      	ldr	r2, [r4, #16]
    4f8a:	2000      	movs	r0, #0
    4f8c:	4282      	cmp	r2, r0
    4f8e:	d106      	bne.n	4f9e <__swsetup_r+0xd2>
    4f90:	0619      	lsls	r1, r3, #24
    4f92:	d504      	bpl.n	4f9e <__swsetup_r+0xd2>
    4f94:	2240      	movs	r2, #64	; 0x40
    4f96:	4313      	orrs	r3, r2
    4f98:	81a3      	strh	r3, [r4, #12]
    4f9a:	2001      	movs	r0, #1
    4f9c:	4240      	negs	r0, r0
    4f9e:	bd70      	pop	{r4, r5, r6, pc}
    4fa0:	20000070 	.word	0x20000070
    4fa4:	00009d0c 	.word	0x00009d0c
    4fa8:	00009d2c 	.word	0x00009d2c
    4fac:	00009d4c 	.word	0x00009d4c

00004fb0 <quorem>:
    4fb0:	b5f0      	push	{r4, r5, r6, r7, lr}
    4fb2:	b089      	sub	sp, #36	; 0x24
    4fb4:	9106      	str	r1, [sp, #24]
    4fb6:	690b      	ldr	r3, [r1, #16]
    4fb8:	6901      	ldr	r1, [r0, #16]
    4fba:	1c05      	adds	r5, r0, #0
    4fbc:	2600      	movs	r6, #0
    4fbe:	4299      	cmp	r1, r3
    4fc0:	db7f      	blt.n	50c2 <quorem+0x112>
    4fc2:	9c06      	ldr	r4, [sp, #24]
    4fc4:	1e5f      	subs	r7, r3, #1
    4fc6:	3414      	adds	r4, #20
    4fc8:	9404      	str	r4, [sp, #16]
    4fca:	9904      	ldr	r1, [sp, #16]
    4fcc:	00bc      	lsls	r4, r7, #2
    4fce:	1909      	adds	r1, r1, r4
    4fd0:	1c02      	adds	r2, r0, #0
    4fd2:	680b      	ldr	r3, [r1, #0]
    4fd4:	3214      	adds	r2, #20
    4fd6:	9105      	str	r1, [sp, #20]
    4fd8:	1914      	adds	r4, r2, r4
    4fda:	1c19      	adds	r1, r3, #0
    4fdc:	3101      	adds	r1, #1
    4fde:	6820      	ldr	r0, [r4, #0]
    4fe0:	9203      	str	r2, [sp, #12]
    4fe2:	f001 fcab 	bl	693c <__aeabi_uidiv>
    4fe6:	9002      	str	r0, [sp, #8]
    4fe8:	42b0      	cmp	r0, r6
    4fea:	d038      	beq.n	505e <quorem+0xae>
    4fec:	9904      	ldr	r1, [sp, #16]
    4fee:	9b03      	ldr	r3, [sp, #12]
    4ff0:	468c      	mov	ip, r1
    4ff2:	9601      	str	r6, [sp, #4]
    4ff4:	9607      	str	r6, [sp, #28]
    4ff6:	4662      	mov	r2, ip
    4ff8:	3204      	adds	r2, #4
    4ffa:	4694      	mov	ip, r2
    4ffc:	3a04      	subs	r2, #4
    4ffe:	ca40      	ldmia	r2!, {r6}
    5000:	9902      	ldr	r1, [sp, #8]
    5002:	b2b0      	uxth	r0, r6
    5004:	4348      	muls	r0, r1
    5006:	0c31      	lsrs	r1, r6, #16
    5008:	9e02      	ldr	r6, [sp, #8]
    500a:	9a01      	ldr	r2, [sp, #4]
    500c:	4371      	muls	r1, r6
    500e:	1810      	adds	r0, r2, r0
    5010:	0c02      	lsrs	r2, r0, #16
    5012:	1851      	adds	r1, r2, r1
    5014:	0c0a      	lsrs	r2, r1, #16
    5016:	9201      	str	r2, [sp, #4]
    5018:	681a      	ldr	r2, [r3, #0]
    501a:	b280      	uxth	r0, r0
    501c:	b296      	uxth	r6, r2
    501e:	9a07      	ldr	r2, [sp, #28]
    5020:	b289      	uxth	r1, r1
    5022:	18b6      	adds	r6, r6, r2
    5024:	1a30      	subs	r0, r6, r0
    5026:	681e      	ldr	r6, [r3, #0]
    5028:	0c32      	lsrs	r2, r6, #16
    502a:	1a52      	subs	r2, r2, r1
    502c:	1406      	asrs	r6, r0, #16
    502e:	1992      	adds	r2, r2, r6
    5030:	1411      	asrs	r1, r2, #16
    5032:	b280      	uxth	r0, r0
    5034:	0412      	lsls	r2, r2, #16
    5036:	9e05      	ldr	r6, [sp, #20]
    5038:	4310      	orrs	r0, r2
    503a:	9107      	str	r1, [sp, #28]
    503c:	c301      	stmia	r3!, {r0}
    503e:	4566      	cmp	r6, ip
    5040:	d2d9      	bcs.n	4ff6 <quorem+0x46>
    5042:	6821      	ldr	r1, [r4, #0]
    5044:	2900      	cmp	r1, #0
    5046:	d10a      	bne.n	505e <quorem+0xae>
    5048:	9e03      	ldr	r6, [sp, #12]
    504a:	3c04      	subs	r4, #4
    504c:	42b4      	cmp	r4, r6
    504e:	d801      	bhi.n	5054 <quorem+0xa4>
    5050:	612f      	str	r7, [r5, #16]
    5052:	e004      	b.n	505e <quorem+0xae>
    5054:	6821      	ldr	r1, [r4, #0]
    5056:	2900      	cmp	r1, #0
    5058:	d1fa      	bne.n	5050 <quorem+0xa0>
    505a:	3f01      	subs	r7, #1
    505c:	e7f4      	b.n	5048 <quorem+0x98>
    505e:	1c28      	adds	r0, r5, #0
    5060:	9906      	ldr	r1, [sp, #24]
    5062:	f001 fa05 	bl	6470 <__mcmp>
    5066:	2800      	cmp	r0, #0
    5068:	db2a      	blt.n	50c0 <quorem+0x110>
    506a:	9c02      	ldr	r4, [sp, #8]
    506c:	9a03      	ldr	r2, [sp, #12]
    506e:	3401      	adds	r4, #1
    5070:	9b04      	ldr	r3, [sp, #16]
    5072:	9402      	str	r4, [sp, #8]
    5074:	2400      	movs	r4, #0
    5076:	6811      	ldr	r1, [r2, #0]
    5078:	cb40      	ldmia	r3!, {r6}
    507a:	b288      	uxth	r0, r1
    507c:	1900      	adds	r0, r0, r4
    507e:	6814      	ldr	r4, [r2, #0]
    5080:	b2b1      	uxth	r1, r6
    5082:	1a40      	subs	r0, r0, r1
    5084:	0c36      	lsrs	r6, r6, #16
    5086:	0c21      	lsrs	r1, r4, #16
    5088:	1b89      	subs	r1, r1, r6
    508a:	1404      	asrs	r4, r0, #16
    508c:	1909      	adds	r1, r1, r4
    508e:	140c      	asrs	r4, r1, #16
    5090:	b280      	uxth	r0, r0
    5092:	0409      	lsls	r1, r1, #16
    5094:	9e05      	ldr	r6, [sp, #20]
    5096:	4301      	orrs	r1, r0
    5098:	c202      	stmia	r2!, {r1}
    509a:	429e      	cmp	r6, r3
    509c:	d2eb      	bcs.n	5076 <quorem+0xc6>
    509e:	9c03      	ldr	r4, [sp, #12]
    50a0:	00bb      	lsls	r3, r7, #2
    50a2:	18e3      	adds	r3, r4, r3
    50a4:	681e      	ldr	r6, [r3, #0]
    50a6:	2e00      	cmp	r6, #0
    50a8:	d10a      	bne.n	50c0 <quorem+0x110>
    50aa:	9c03      	ldr	r4, [sp, #12]
    50ac:	3b04      	subs	r3, #4
    50ae:	42a3      	cmp	r3, r4
    50b0:	d801      	bhi.n	50b6 <quorem+0x106>
    50b2:	612f      	str	r7, [r5, #16]
    50b4:	e004      	b.n	50c0 <quorem+0x110>
    50b6:	681e      	ldr	r6, [r3, #0]
    50b8:	2e00      	cmp	r6, #0
    50ba:	d1fa      	bne.n	50b2 <quorem+0x102>
    50bc:	3f01      	subs	r7, #1
    50be:	e7f4      	b.n	50aa <quorem+0xfa>
    50c0:	9e02      	ldr	r6, [sp, #8]
    50c2:	1c30      	adds	r0, r6, #0
    50c4:	b009      	add	sp, #36	; 0x24
    50c6:	bdf0      	pop	{r4, r5, r6, r7, pc}

000050c8 <_dtoa_r>:
    50c8:	b5f0      	push	{r4, r5, r6, r7, lr}
    50ca:	6a44      	ldr	r4, [r0, #36]	; 0x24
    50cc:	b09b      	sub	sp, #108	; 0x6c
    50ce:	9007      	str	r0, [sp, #28]
    50d0:	9d23      	ldr	r5, [sp, #140]	; 0x8c
    50d2:	9204      	str	r2, [sp, #16]
    50d4:	9305      	str	r3, [sp, #20]
    50d6:	2c00      	cmp	r4, #0
    50d8:	d108      	bne.n	50ec <_dtoa_r+0x24>
    50da:	2010      	movs	r0, #16
    50dc:	f000 ff9e 	bl	601c <malloc>
    50e0:	9907      	ldr	r1, [sp, #28]
    50e2:	6248      	str	r0, [r1, #36]	; 0x24
    50e4:	6044      	str	r4, [r0, #4]
    50e6:	6084      	str	r4, [r0, #8]
    50e8:	6004      	str	r4, [r0, #0]
    50ea:	60c4      	str	r4, [r0, #12]
    50ec:	9c07      	ldr	r4, [sp, #28]
    50ee:	6a63      	ldr	r3, [r4, #36]	; 0x24
    50f0:	6819      	ldr	r1, [r3, #0]
    50f2:	2900      	cmp	r1, #0
    50f4:	d00a      	beq.n	510c <_dtoa_r+0x44>
    50f6:	685b      	ldr	r3, [r3, #4]
    50f8:	2201      	movs	r2, #1
    50fa:	409a      	lsls	r2, r3
    50fc:	604b      	str	r3, [r1, #4]
    50fe:	608a      	str	r2, [r1, #8]
    5100:	1c20      	adds	r0, r4, #0
    5102:	f000 ffd8 	bl	60b6 <_Bfree>
    5106:	6a63      	ldr	r3, [r4, #36]	; 0x24
    5108:	2200      	movs	r2, #0
    510a:	601a      	str	r2, [r3, #0]
    510c:	9805      	ldr	r0, [sp, #20]
    510e:	2800      	cmp	r0, #0
    5110:	da05      	bge.n	511e <_dtoa_r+0x56>
    5112:	2301      	movs	r3, #1
    5114:	602b      	str	r3, [r5, #0]
    5116:	0043      	lsls	r3, r0, #1
    5118:	085b      	lsrs	r3, r3, #1
    511a:	9305      	str	r3, [sp, #20]
    511c:	e001      	b.n	5122 <_dtoa_r+0x5a>
    511e:	2300      	movs	r3, #0
    5120:	602b      	str	r3, [r5, #0]
    5122:	9e05      	ldr	r6, [sp, #20]
    5124:	4bbe      	ldr	r3, [pc, #760]	; (5420 <_dtoa_r+0x358>)
    5126:	1c32      	adds	r2, r6, #0
    5128:	401a      	ands	r2, r3
    512a:	429a      	cmp	r2, r3
    512c:	d118      	bne.n	5160 <_dtoa_r+0x98>
    512e:	4bbd      	ldr	r3, [pc, #756]	; (5424 <_dtoa_r+0x35c>)
    5130:	9c22      	ldr	r4, [sp, #136]	; 0x88
    5132:	9d04      	ldr	r5, [sp, #16]
    5134:	6023      	str	r3, [r4, #0]
    5136:	2d00      	cmp	r5, #0
    5138:	d101      	bne.n	513e <_dtoa_r+0x76>
    513a:	0336      	lsls	r6, r6, #12
    513c:	d001      	beq.n	5142 <_dtoa_r+0x7a>
    513e:	48ba      	ldr	r0, [pc, #744]	; (5428 <_dtoa_r+0x360>)
    5140:	e000      	b.n	5144 <_dtoa_r+0x7c>
    5142:	48ba      	ldr	r0, [pc, #744]	; (542c <_dtoa_r+0x364>)
    5144:	9c24      	ldr	r4, [sp, #144]	; 0x90
    5146:	2c00      	cmp	r4, #0
    5148:	d101      	bne.n	514e <_dtoa_r+0x86>
    514a:	f000 fd93 	bl	5c74 <_dtoa_r+0xbac>
    514e:	78c2      	ldrb	r2, [r0, #3]
    5150:	1cc3      	adds	r3, r0, #3
    5152:	2a00      	cmp	r2, #0
    5154:	d000      	beq.n	5158 <_dtoa_r+0x90>
    5156:	3305      	adds	r3, #5
    5158:	9d24      	ldr	r5, [sp, #144]	; 0x90
    515a:	602b      	str	r3, [r5, #0]
    515c:	f000 fd8a 	bl	5c74 <_dtoa_r+0xbac>
    5160:	9c04      	ldr	r4, [sp, #16]
    5162:	9d05      	ldr	r5, [sp, #20]
    5164:	4ba5      	ldr	r3, [pc, #660]	; (53fc <_dtoa_r+0x334>)
    5166:	4aa4      	ldr	r2, [pc, #656]	; (53f8 <_dtoa_r+0x330>)
    5168:	1c20      	adds	r0, r4, #0
    516a:	1c29      	adds	r1, r5, #0
    516c:	f001 fca6 	bl	6abc <__aeabi_dcmpeq>
    5170:	1e07      	subs	r7, r0, #0
    5172:	d00c      	beq.n	518e <_dtoa_r+0xc6>
    5174:	9c22      	ldr	r4, [sp, #136]	; 0x88
    5176:	9d24      	ldr	r5, [sp, #144]	; 0x90
    5178:	2301      	movs	r3, #1
    517a:	6023      	str	r3, [r4, #0]
    517c:	2d00      	cmp	r5, #0
    517e:	d101      	bne.n	5184 <_dtoa_r+0xbc>
    5180:	f000 fd75 	bl	5c6e <_dtoa_r+0xba6>
    5184:	48aa      	ldr	r0, [pc, #680]	; (5430 <_dtoa_r+0x368>)
    5186:	6028      	str	r0, [r5, #0]
    5188:	3801      	subs	r0, #1
    518a:	f000 fd73 	bl	5c74 <_dtoa_r+0xbac>
    518e:	ab19      	add	r3, sp, #100	; 0x64
    5190:	9300      	str	r3, [sp, #0]
    5192:	ab18      	add	r3, sp, #96	; 0x60
    5194:	9301      	str	r3, [sp, #4]
    5196:	9807      	ldr	r0, [sp, #28]
    5198:	1c2b      	adds	r3, r5, #0
    519a:	1c22      	adds	r2, r4, #0
    519c:	f001 f9ea 	bl	6574 <__d2b>
    51a0:	0073      	lsls	r3, r6, #1
    51a2:	900a      	str	r0, [sp, #40]	; 0x28
    51a4:	0d5b      	lsrs	r3, r3, #21
    51a6:	d009      	beq.n	51bc <_dtoa_r+0xf4>
    51a8:	1c20      	adds	r0, r4, #0
    51aa:	4ca2      	ldr	r4, [pc, #648]	; (5434 <_dtoa_r+0x36c>)
    51ac:	032a      	lsls	r2, r5, #12
    51ae:	0b12      	lsrs	r2, r2, #12
    51b0:	1c21      	adds	r1, r4, #0
    51b2:	4311      	orrs	r1, r2
    51b4:	4aa0      	ldr	r2, [pc, #640]	; (5438 <_dtoa_r+0x370>)
    51b6:	9716      	str	r7, [sp, #88]	; 0x58
    51b8:	189e      	adds	r6, r3, r2
    51ba:	e01b      	b.n	51f4 <_dtoa_r+0x12c>
    51bc:	9b18      	ldr	r3, [sp, #96]	; 0x60
    51be:	9c19      	ldr	r4, [sp, #100]	; 0x64
    51c0:	191d      	adds	r5, r3, r4
    51c2:	4b9e      	ldr	r3, [pc, #632]	; (543c <_dtoa_r+0x374>)
    51c4:	429d      	cmp	r5, r3
    51c6:	db09      	blt.n	51dc <_dtoa_r+0x114>
    51c8:	499d      	ldr	r1, [pc, #628]	; (5440 <_dtoa_r+0x378>)
    51ca:	9a04      	ldr	r2, [sp, #16]
    51cc:	4b9d      	ldr	r3, [pc, #628]	; (5444 <_dtoa_r+0x37c>)
    51ce:	1868      	adds	r0, r5, r1
    51d0:	40c2      	lsrs	r2, r0
    51d2:	1b5b      	subs	r3, r3, r5
    51d4:	1c10      	adds	r0, r2, #0
    51d6:	409e      	lsls	r6, r3
    51d8:	4330      	orrs	r0, r6
    51da:	e004      	b.n	51e6 <_dtoa_r+0x11e>
    51dc:	489a      	ldr	r0, [pc, #616]	; (5448 <_dtoa_r+0x380>)
    51de:	9b04      	ldr	r3, [sp, #16]
    51e0:	1b40      	subs	r0, r0, r5
    51e2:	4083      	lsls	r3, r0
    51e4:	1c18      	adds	r0, r3, #0
    51e6:	f004 f989 	bl	94fc <__aeabi_ui2d>
    51ea:	4c98      	ldr	r4, [pc, #608]	; (544c <_dtoa_r+0x384>)
    51ec:	1e6e      	subs	r6, r5, #1
    51ee:	2501      	movs	r5, #1
    51f0:	1909      	adds	r1, r1, r4
    51f2:	9516      	str	r5, [sp, #88]	; 0x58
    51f4:	4a82      	ldr	r2, [pc, #520]	; (5400 <_dtoa_r+0x338>)
    51f6:	4b83      	ldr	r3, [pc, #524]	; (5404 <_dtoa_r+0x33c>)
    51f8:	f003 fdda 	bl	8db0 <__aeabi_dsub>
    51fc:	4a82      	ldr	r2, [pc, #520]	; (5408 <_dtoa_r+0x340>)
    51fe:	4b83      	ldr	r3, [pc, #524]	; (540c <_dtoa_r+0x344>)
    5200:	f003 fb46 	bl	8890 <__aeabi_dmul>
    5204:	4a82      	ldr	r2, [pc, #520]	; (5410 <_dtoa_r+0x348>)
    5206:	4b83      	ldr	r3, [pc, #524]	; (5414 <_dtoa_r+0x34c>)
    5208:	f002 fbb6 	bl	7978 <__aeabi_dadd>
    520c:	1c04      	adds	r4, r0, #0
    520e:	1c30      	adds	r0, r6, #0
    5210:	1c0d      	adds	r5, r1, #0
    5212:	f004 f935 	bl	9480 <__aeabi_i2d>
    5216:	4a80      	ldr	r2, [pc, #512]	; (5418 <_dtoa_r+0x350>)
    5218:	4b80      	ldr	r3, [pc, #512]	; (541c <_dtoa_r+0x354>)
    521a:	f003 fb39 	bl	8890 <__aeabi_dmul>
    521e:	1c02      	adds	r2, r0, #0
    5220:	1c0b      	adds	r3, r1, #0
    5222:	1c20      	adds	r0, r4, #0
    5224:	1c29      	adds	r1, r5, #0
    5226:	f002 fba7 	bl	7978 <__aeabi_dadd>
    522a:	1c04      	adds	r4, r0, #0
    522c:	1c0d      	adds	r5, r1, #0
    522e:	f004 f8f3 	bl	9418 <__aeabi_d2iz>
    5232:	4b72      	ldr	r3, [pc, #456]	; (53fc <_dtoa_r+0x334>)
    5234:	4a70      	ldr	r2, [pc, #448]	; (53f8 <_dtoa_r+0x330>)
    5236:	9006      	str	r0, [sp, #24]
    5238:	1c29      	adds	r1, r5, #0
    523a:	1c20      	adds	r0, r4, #0
    523c:	f001 fc44 	bl	6ac8 <__aeabi_dcmplt>
    5240:	2800      	cmp	r0, #0
    5242:	d00d      	beq.n	5260 <_dtoa_r+0x198>
    5244:	9806      	ldr	r0, [sp, #24]
    5246:	f004 f91b 	bl	9480 <__aeabi_i2d>
    524a:	1c0b      	adds	r3, r1, #0
    524c:	1c02      	adds	r2, r0, #0
    524e:	1c29      	adds	r1, r5, #0
    5250:	1c20      	adds	r0, r4, #0
    5252:	f001 fc33 	bl	6abc <__aeabi_dcmpeq>
    5256:	9c06      	ldr	r4, [sp, #24]
    5258:	4243      	negs	r3, r0
    525a:	4143      	adcs	r3, r0
    525c:	1ae4      	subs	r4, r4, r3
    525e:	9406      	str	r4, [sp, #24]
    5260:	9c06      	ldr	r4, [sp, #24]
    5262:	2501      	movs	r5, #1
    5264:	9513      	str	r5, [sp, #76]	; 0x4c
    5266:	2c16      	cmp	r4, #22
    5268:	d810      	bhi.n	528c <_dtoa_r+0x1c4>
    526a:	4a79      	ldr	r2, [pc, #484]	; (5450 <_dtoa_r+0x388>)
    526c:	00e3      	lsls	r3, r4, #3
    526e:	18d3      	adds	r3, r2, r3
    5270:	6818      	ldr	r0, [r3, #0]
    5272:	6859      	ldr	r1, [r3, #4]
    5274:	9a04      	ldr	r2, [sp, #16]
    5276:	9b05      	ldr	r3, [sp, #20]
    5278:	f001 fc3a 	bl	6af0 <__aeabi_dcmpgt>
    527c:	2800      	cmp	r0, #0
    527e:	d004      	beq.n	528a <_dtoa_r+0x1c2>
    5280:	3c01      	subs	r4, #1
    5282:	2500      	movs	r5, #0
    5284:	9406      	str	r4, [sp, #24]
    5286:	9513      	str	r5, [sp, #76]	; 0x4c
    5288:	e000      	b.n	528c <_dtoa_r+0x1c4>
    528a:	9013      	str	r0, [sp, #76]	; 0x4c
    528c:	9818      	ldr	r0, [sp, #96]	; 0x60
    528e:	2400      	movs	r4, #0
    5290:	1b86      	subs	r6, r0, r6
    5292:	1c35      	adds	r5, r6, #0
    5294:	9402      	str	r4, [sp, #8]
    5296:	3d01      	subs	r5, #1
    5298:	9509      	str	r5, [sp, #36]	; 0x24
    529a:	d504      	bpl.n	52a6 <_dtoa_r+0x1de>
    529c:	9c09      	ldr	r4, [sp, #36]	; 0x24
    529e:	2500      	movs	r5, #0
    52a0:	4264      	negs	r4, r4
    52a2:	9402      	str	r4, [sp, #8]
    52a4:	9509      	str	r5, [sp, #36]	; 0x24
    52a6:	9c06      	ldr	r4, [sp, #24]
    52a8:	2c00      	cmp	r4, #0
    52aa:	db06      	blt.n	52ba <_dtoa_r+0x1f2>
    52ac:	9d09      	ldr	r5, [sp, #36]	; 0x24
    52ae:	9412      	str	r4, [sp, #72]	; 0x48
    52b0:	192d      	adds	r5, r5, r4
    52b2:	2400      	movs	r4, #0
    52b4:	9509      	str	r5, [sp, #36]	; 0x24
    52b6:	940d      	str	r4, [sp, #52]	; 0x34
    52b8:	e007      	b.n	52ca <_dtoa_r+0x202>
    52ba:	9c06      	ldr	r4, [sp, #24]
    52bc:	9d02      	ldr	r5, [sp, #8]
    52be:	1b2d      	subs	r5, r5, r4
    52c0:	9502      	str	r5, [sp, #8]
    52c2:	4265      	negs	r5, r4
    52c4:	2400      	movs	r4, #0
    52c6:	950d      	str	r5, [sp, #52]	; 0x34
    52c8:	9412      	str	r4, [sp, #72]	; 0x48
    52ca:	9d20      	ldr	r5, [sp, #128]	; 0x80
    52cc:	2401      	movs	r4, #1
    52ce:	2d09      	cmp	r5, #9
    52d0:	d824      	bhi.n	531c <_dtoa_r+0x254>
    52d2:	2d05      	cmp	r5, #5
    52d4:	dd02      	ble.n	52dc <_dtoa_r+0x214>
    52d6:	3d04      	subs	r5, #4
    52d8:	9520      	str	r5, [sp, #128]	; 0x80
    52da:	2400      	movs	r4, #0
    52dc:	9820      	ldr	r0, [sp, #128]	; 0x80
    52de:	3802      	subs	r0, #2
    52e0:	2803      	cmp	r0, #3
    52e2:	d823      	bhi.n	532c <_dtoa_r+0x264>
    52e4:	f001 fb20 	bl	6928 <__gnu_thumb1_case_uqi>
    52e8:	04020e06 	.word	0x04020e06
    52ec:	2501      	movs	r5, #1
    52ee:	e002      	b.n	52f6 <_dtoa_r+0x22e>
    52f0:	2501      	movs	r5, #1
    52f2:	e008      	b.n	5306 <_dtoa_r+0x23e>
    52f4:	2500      	movs	r5, #0
    52f6:	9510      	str	r5, [sp, #64]	; 0x40
    52f8:	9d21      	ldr	r5, [sp, #132]	; 0x84
    52fa:	2d00      	cmp	r5, #0
    52fc:	dd1f      	ble.n	533e <_dtoa_r+0x276>
    52fe:	950c      	str	r5, [sp, #48]	; 0x30
    5300:	9508      	str	r5, [sp, #32]
    5302:	e009      	b.n	5318 <_dtoa_r+0x250>
    5304:	2500      	movs	r5, #0
    5306:	9510      	str	r5, [sp, #64]	; 0x40
    5308:	9806      	ldr	r0, [sp, #24]
    530a:	9d21      	ldr	r5, [sp, #132]	; 0x84
    530c:	182d      	adds	r5, r5, r0
    530e:	950c      	str	r5, [sp, #48]	; 0x30
    5310:	3501      	adds	r5, #1
    5312:	9508      	str	r5, [sp, #32]
    5314:	2d00      	cmp	r5, #0
    5316:	dd18      	ble.n	534a <_dtoa_r+0x282>
    5318:	1c2b      	adds	r3, r5, #0
    531a:	e017      	b.n	534c <_dtoa_r+0x284>
    531c:	4263      	negs	r3, r4
    531e:	2500      	movs	r5, #0
    5320:	930c      	str	r3, [sp, #48]	; 0x30
    5322:	9308      	str	r3, [sp, #32]
    5324:	9520      	str	r5, [sp, #128]	; 0x80
    5326:	9410      	str	r4, [sp, #64]	; 0x40
    5328:	2312      	movs	r3, #18
    532a:	e006      	b.n	533a <_dtoa_r+0x272>
    532c:	2501      	movs	r5, #1
    532e:	426b      	negs	r3, r5
    5330:	9510      	str	r5, [sp, #64]	; 0x40
    5332:	930c      	str	r3, [sp, #48]	; 0x30
    5334:	9308      	str	r3, [sp, #32]
    5336:	2500      	movs	r5, #0
    5338:	2312      	movs	r3, #18
    533a:	9521      	str	r5, [sp, #132]	; 0x84
    533c:	e006      	b.n	534c <_dtoa_r+0x284>
    533e:	2501      	movs	r5, #1
    5340:	950c      	str	r5, [sp, #48]	; 0x30
    5342:	9508      	str	r5, [sp, #32]
    5344:	1c2b      	adds	r3, r5, #0
    5346:	9521      	str	r5, [sp, #132]	; 0x84
    5348:	e000      	b.n	534c <_dtoa_r+0x284>
    534a:	2301      	movs	r3, #1
    534c:	9807      	ldr	r0, [sp, #28]
    534e:	2200      	movs	r2, #0
    5350:	6a45      	ldr	r5, [r0, #36]	; 0x24
    5352:	606a      	str	r2, [r5, #4]
    5354:	2204      	movs	r2, #4
    5356:	1c10      	adds	r0, r2, #0
    5358:	3014      	adds	r0, #20
    535a:	6869      	ldr	r1, [r5, #4]
    535c:	4298      	cmp	r0, r3
    535e:	d803      	bhi.n	5368 <_dtoa_r+0x2a0>
    5360:	3101      	adds	r1, #1
    5362:	6069      	str	r1, [r5, #4]
    5364:	0052      	lsls	r2, r2, #1
    5366:	e7f6      	b.n	5356 <_dtoa_r+0x28e>
    5368:	9807      	ldr	r0, [sp, #28]
    536a:	f000 fe6c 	bl	6046 <_Balloc>
    536e:	6028      	str	r0, [r5, #0]
    5370:	9d07      	ldr	r5, [sp, #28]
    5372:	6a6b      	ldr	r3, [r5, #36]	; 0x24
    5374:	9d08      	ldr	r5, [sp, #32]
    5376:	681b      	ldr	r3, [r3, #0]
    5378:	930b      	str	r3, [sp, #44]	; 0x2c
    537a:	2d0e      	cmp	r5, #14
    537c:	d900      	bls.n	5380 <_dtoa_r+0x2b8>
    537e:	e187      	b.n	5690 <_dtoa_r+0x5c8>
    5380:	2c00      	cmp	r4, #0
    5382:	d100      	bne.n	5386 <_dtoa_r+0x2be>
    5384:	e184      	b.n	5690 <_dtoa_r+0x5c8>
    5386:	9c04      	ldr	r4, [sp, #16]
    5388:	9d05      	ldr	r5, [sp, #20]
    538a:	9414      	str	r4, [sp, #80]	; 0x50
    538c:	9515      	str	r5, [sp, #84]	; 0x54
    538e:	9d06      	ldr	r5, [sp, #24]
    5390:	2d00      	cmp	r5, #0
    5392:	dd61      	ble.n	5458 <_dtoa_r+0x390>
    5394:	1c2a      	adds	r2, r5, #0
    5396:	230f      	movs	r3, #15
    5398:	401a      	ands	r2, r3
    539a:	492d      	ldr	r1, [pc, #180]	; (5450 <_dtoa_r+0x388>)
    539c:	00d2      	lsls	r2, r2, #3
    539e:	188a      	adds	r2, r1, r2
    53a0:	6814      	ldr	r4, [r2, #0]
    53a2:	6855      	ldr	r5, [r2, #4]
    53a4:	940e      	str	r4, [sp, #56]	; 0x38
    53a6:	950f      	str	r5, [sp, #60]	; 0x3c
    53a8:	9d06      	ldr	r5, [sp, #24]
    53aa:	4c2a      	ldr	r4, [pc, #168]	; (5454 <_dtoa_r+0x38c>)
    53ac:	112f      	asrs	r7, r5, #4
    53ae:	2502      	movs	r5, #2
    53b0:	06f8      	lsls	r0, r7, #27
    53b2:	d517      	bpl.n	53e4 <_dtoa_r+0x31c>
    53b4:	401f      	ands	r7, r3
    53b6:	9814      	ldr	r0, [sp, #80]	; 0x50
    53b8:	9915      	ldr	r1, [sp, #84]	; 0x54
    53ba:	6a22      	ldr	r2, [r4, #32]
    53bc:	6a63      	ldr	r3, [r4, #36]	; 0x24
    53be:	f002 fdfd 	bl	7fbc <__aeabi_ddiv>
    53c2:	2503      	movs	r5, #3
    53c4:	9004      	str	r0, [sp, #16]
    53c6:	9105      	str	r1, [sp, #20]
    53c8:	e00c      	b.n	53e4 <_dtoa_r+0x31c>
    53ca:	07f9      	lsls	r1, r7, #31
    53cc:	d508      	bpl.n	53e0 <_dtoa_r+0x318>
    53ce:	980e      	ldr	r0, [sp, #56]	; 0x38
    53d0:	990f      	ldr	r1, [sp, #60]	; 0x3c
    53d2:	6822      	ldr	r2, [r4, #0]
    53d4:	6863      	ldr	r3, [r4, #4]
    53d6:	f003 fa5b 	bl	8890 <__aeabi_dmul>
    53da:	900e      	str	r0, [sp, #56]	; 0x38
    53dc:	910f      	str	r1, [sp, #60]	; 0x3c
    53de:	3501      	adds	r5, #1
    53e0:	107f      	asrs	r7, r7, #1
    53e2:	3408      	adds	r4, #8
    53e4:	2f00      	cmp	r7, #0
    53e6:	d1f0      	bne.n	53ca <_dtoa_r+0x302>
    53e8:	9804      	ldr	r0, [sp, #16]
    53ea:	9905      	ldr	r1, [sp, #20]
    53ec:	9a0e      	ldr	r2, [sp, #56]	; 0x38
    53ee:	9b0f      	ldr	r3, [sp, #60]	; 0x3c
    53f0:	f002 fde4 	bl	7fbc <__aeabi_ddiv>
    53f4:	e04e      	b.n	5494 <_dtoa_r+0x3cc>
    53f6:	46c0      	nop			; (mov r8, r8)
	...
    5404:	3ff80000 	.word	0x3ff80000
    5408:	636f4361 	.word	0x636f4361
    540c:	3fd287a7 	.word	0x3fd287a7
    5410:	8b60c8b3 	.word	0x8b60c8b3
    5414:	3fc68a28 	.word	0x3fc68a28
    5418:	509f79fb 	.word	0x509f79fb
    541c:	3fd34413 	.word	0x3fd34413
    5420:	7ff00000 	.word	0x7ff00000
    5424:	0000270f 	.word	0x0000270f
    5428:	00009d06 	.word	0x00009d06
    542c:	00009cfd 	.word	0x00009cfd
    5430:	00009cda 	.word	0x00009cda
    5434:	3ff00000 	.word	0x3ff00000
    5438:	fffffc01 	.word	0xfffffc01
    543c:	fffffbef 	.word	0xfffffbef
    5440:	00000412 	.word	0x00000412
    5444:	fffffc0e 	.word	0xfffffc0e
    5448:	fffffbee 	.word	0xfffffbee
    544c:	fe100000 	.word	0xfe100000
    5450:	00009d78 	.word	0x00009d78
    5454:	00009e40 	.word	0x00009e40
    5458:	9c06      	ldr	r4, [sp, #24]
    545a:	2502      	movs	r5, #2
    545c:	4267      	negs	r7, r4
    545e:	2f00      	cmp	r7, #0
    5460:	d01a      	beq.n	5498 <_dtoa_r+0x3d0>
    5462:	230f      	movs	r3, #15
    5464:	403b      	ands	r3, r7
    5466:	4acc      	ldr	r2, [pc, #816]	; (5798 <_dtoa_r+0x6d0>)
    5468:	00db      	lsls	r3, r3, #3
    546a:	18d3      	adds	r3, r2, r3
    546c:	9814      	ldr	r0, [sp, #80]	; 0x50
    546e:	9915      	ldr	r1, [sp, #84]	; 0x54
    5470:	681a      	ldr	r2, [r3, #0]
    5472:	685b      	ldr	r3, [r3, #4]
    5474:	f003 fa0c 	bl	8890 <__aeabi_dmul>
    5478:	4ec8      	ldr	r6, [pc, #800]	; (579c <_dtoa_r+0x6d4>)
    547a:	113f      	asrs	r7, r7, #4
    547c:	2f00      	cmp	r7, #0
    547e:	d009      	beq.n	5494 <_dtoa_r+0x3cc>
    5480:	07fa      	lsls	r2, r7, #31
    5482:	d504      	bpl.n	548e <_dtoa_r+0x3c6>
    5484:	6832      	ldr	r2, [r6, #0]
    5486:	6873      	ldr	r3, [r6, #4]
    5488:	3501      	adds	r5, #1
    548a:	f003 fa01 	bl	8890 <__aeabi_dmul>
    548e:	107f      	asrs	r7, r7, #1
    5490:	3608      	adds	r6, #8
    5492:	e7f3      	b.n	547c <_dtoa_r+0x3b4>
    5494:	9004      	str	r0, [sp, #16]
    5496:	9105      	str	r1, [sp, #20]
    5498:	9c13      	ldr	r4, [sp, #76]	; 0x4c
    549a:	2c00      	cmp	r4, #0
    549c:	d01e      	beq.n	54dc <_dtoa_r+0x414>
    549e:	9e04      	ldr	r6, [sp, #16]
    54a0:	9f05      	ldr	r7, [sp, #20]
    54a2:	4bb4      	ldr	r3, [pc, #720]	; (5774 <_dtoa_r+0x6ac>)
    54a4:	4ab2      	ldr	r2, [pc, #712]	; (5770 <_dtoa_r+0x6a8>)
    54a6:	1c30      	adds	r0, r6, #0
    54a8:	1c39      	adds	r1, r7, #0
    54aa:	f001 fb0d 	bl	6ac8 <__aeabi_dcmplt>
    54ae:	2800      	cmp	r0, #0
    54b0:	d014      	beq.n	54dc <_dtoa_r+0x414>
    54b2:	9c08      	ldr	r4, [sp, #32]
    54b4:	2c00      	cmp	r4, #0
    54b6:	d011      	beq.n	54dc <_dtoa_r+0x414>
    54b8:	9c0c      	ldr	r4, [sp, #48]	; 0x30
    54ba:	2c00      	cmp	r4, #0
    54bc:	dc00      	bgt.n	54c0 <_dtoa_r+0x3f8>
    54be:	e0e3      	b.n	5688 <_dtoa_r+0x5c0>
    54c0:	9c06      	ldr	r4, [sp, #24]
    54c2:	1c30      	adds	r0, r6, #0
    54c4:	3c01      	subs	r4, #1
    54c6:	1c39      	adds	r1, r7, #0
    54c8:	4aab      	ldr	r2, [pc, #684]	; (5778 <_dtoa_r+0x6b0>)
    54ca:	4bac      	ldr	r3, [pc, #688]	; (577c <_dtoa_r+0x6b4>)
    54cc:	9411      	str	r4, [sp, #68]	; 0x44
    54ce:	f003 f9df 	bl	8890 <__aeabi_dmul>
    54d2:	3501      	adds	r5, #1
    54d4:	9004      	str	r0, [sp, #16]
    54d6:	9105      	str	r1, [sp, #20]
    54d8:	9c0c      	ldr	r4, [sp, #48]	; 0x30
    54da:	e002      	b.n	54e2 <_dtoa_r+0x41a>
    54dc:	9c06      	ldr	r4, [sp, #24]
    54de:	9411      	str	r4, [sp, #68]	; 0x44
    54e0:	9c08      	ldr	r4, [sp, #32]
    54e2:	1c28      	adds	r0, r5, #0
    54e4:	9e04      	ldr	r6, [sp, #16]
    54e6:	9f05      	ldr	r7, [sp, #20]
    54e8:	940e      	str	r4, [sp, #56]	; 0x38
    54ea:	f003 ffc9 	bl	9480 <__aeabi_i2d>
    54ee:	1c32      	adds	r2, r6, #0
    54f0:	1c3b      	adds	r3, r7, #0
    54f2:	f003 f9cd 	bl	8890 <__aeabi_dmul>
    54f6:	4aa2      	ldr	r2, [pc, #648]	; (5780 <_dtoa_r+0x6b8>)
    54f8:	4ba2      	ldr	r3, [pc, #648]	; (5784 <_dtoa_r+0x6bc>)
    54fa:	f002 fa3d 	bl	7978 <__aeabi_dadd>
    54fe:	1c04      	adds	r4, r0, #0
    5500:	48a7      	ldr	r0, [pc, #668]	; (57a0 <_dtoa_r+0x6d8>)
    5502:	1808      	adds	r0, r1, r0
    5504:	990e      	ldr	r1, [sp, #56]	; 0x38
    5506:	9004      	str	r0, [sp, #16]
    5508:	1c05      	adds	r5, r0, #0
    550a:	2900      	cmp	r1, #0
    550c:	d11b      	bne.n	5546 <_dtoa_r+0x47e>
    550e:	4a9e      	ldr	r2, [pc, #632]	; (5788 <_dtoa_r+0x6c0>)
    5510:	4b9e      	ldr	r3, [pc, #632]	; (578c <_dtoa_r+0x6c4>)
    5512:	1c30      	adds	r0, r6, #0
    5514:	1c39      	adds	r1, r7, #0
    5516:	f003 fc4b 	bl	8db0 <__aeabi_dsub>
    551a:	1c22      	adds	r2, r4, #0
    551c:	9b04      	ldr	r3, [sp, #16]
    551e:	1c06      	adds	r6, r0, #0
    5520:	1c0f      	adds	r7, r1, #0
    5522:	f001 fae5 	bl	6af0 <__aeabi_dcmpgt>
    5526:	2800      	cmp	r0, #0
    5528:	d000      	beq.n	552c <_dtoa_r+0x464>
    552a:	e25c      	b.n	59e6 <_dtoa_r+0x91e>
    552c:	1c22      	adds	r2, r4, #0
    552e:	2580      	movs	r5, #128	; 0x80
    5530:	9c04      	ldr	r4, [sp, #16]
    5532:	062d      	lsls	r5, r5, #24
    5534:	1c30      	adds	r0, r6, #0
    5536:	1c39      	adds	r1, r7, #0
    5538:	1963      	adds	r3, r4, r5
    553a:	f001 fac5 	bl	6ac8 <__aeabi_dcmplt>
    553e:	2800      	cmp	r0, #0
    5540:	d000      	beq.n	5544 <_dtoa_r+0x47c>
    5542:	e247      	b.n	59d4 <_dtoa_r+0x90c>
    5544:	e0a0      	b.n	5688 <_dtoa_r+0x5c0>
    5546:	9a0e      	ldr	r2, [sp, #56]	; 0x38
    5548:	4b93      	ldr	r3, [pc, #588]	; (5798 <_dtoa_r+0x6d0>)
    554a:	3a01      	subs	r2, #1
    554c:	9810      	ldr	r0, [sp, #64]	; 0x40
    554e:	00d2      	lsls	r2, r2, #3
    5550:	189b      	adds	r3, r3, r2
    5552:	2800      	cmp	r0, #0
    5554:	d049      	beq.n	55ea <_dtoa_r+0x522>
    5556:	681a      	ldr	r2, [r3, #0]
    5558:	685b      	ldr	r3, [r3, #4]
    555a:	488d      	ldr	r0, [pc, #564]	; (5790 <_dtoa_r+0x6c8>)
    555c:	498d      	ldr	r1, [pc, #564]	; (5794 <_dtoa_r+0x6cc>)
    555e:	f002 fd2d 	bl	7fbc <__aeabi_ddiv>
    5562:	1c2b      	adds	r3, r5, #0
    5564:	1c22      	adds	r2, r4, #0
    5566:	f003 fc23 	bl	8db0 <__aeabi_dsub>
    556a:	9004      	str	r0, [sp, #16]
    556c:	9105      	str	r1, [sp, #20]
    556e:	9d0b      	ldr	r5, [sp, #44]	; 0x2c
    5570:	1c39      	adds	r1, r7, #0
    5572:	1c30      	adds	r0, r6, #0
    5574:	f003 ff50 	bl	9418 <__aeabi_d2iz>
    5578:	1c04      	adds	r4, r0, #0
    557a:	f003 ff81 	bl	9480 <__aeabi_i2d>
    557e:	1c02      	adds	r2, r0, #0
    5580:	1c0b      	adds	r3, r1, #0
    5582:	1c30      	adds	r0, r6, #0
    5584:	1c39      	adds	r1, r7, #0
    5586:	f003 fc13 	bl	8db0 <__aeabi_dsub>
    558a:	3501      	adds	r5, #1
    558c:	1e6b      	subs	r3, r5, #1
    558e:	3430      	adds	r4, #48	; 0x30
    5590:	701c      	strb	r4, [r3, #0]
    5592:	9a04      	ldr	r2, [sp, #16]
    5594:	9b05      	ldr	r3, [sp, #20]
    5596:	1c06      	adds	r6, r0, #0
    5598:	1c0f      	adds	r7, r1, #0
    559a:	f001 fa95 	bl	6ac8 <__aeabi_dcmplt>
    559e:	2800      	cmp	r0, #0
    55a0:	d000      	beq.n	55a4 <_dtoa_r+0x4dc>
    55a2:	e353      	b.n	5c4c <_dtoa_r+0xb84>
    55a4:	1c32      	adds	r2, r6, #0
    55a6:	1c3b      	adds	r3, r7, #0
    55a8:	4972      	ldr	r1, [pc, #456]	; (5774 <_dtoa_r+0x6ac>)
    55aa:	4871      	ldr	r0, [pc, #452]	; (5770 <_dtoa_r+0x6a8>)
    55ac:	f003 fc00 	bl	8db0 <__aeabi_dsub>
    55b0:	9a04      	ldr	r2, [sp, #16]
    55b2:	9b05      	ldr	r3, [sp, #20]
    55b4:	f001 fa88 	bl	6ac8 <__aeabi_dcmplt>
    55b8:	2800      	cmp	r0, #0
    55ba:	d000      	beq.n	55be <_dtoa_r+0x4f6>
    55bc:	e0cb      	b.n	5756 <_dtoa_r+0x68e>
    55be:	9c0b      	ldr	r4, [sp, #44]	; 0x2c
    55c0:	1b2b      	subs	r3, r5, r4
    55c2:	9c0e      	ldr	r4, [sp, #56]	; 0x38
    55c4:	42a3      	cmp	r3, r4
    55c6:	da5f      	bge.n	5688 <_dtoa_r+0x5c0>
    55c8:	9804      	ldr	r0, [sp, #16]
    55ca:	9905      	ldr	r1, [sp, #20]
    55cc:	4a6a      	ldr	r2, [pc, #424]	; (5778 <_dtoa_r+0x6b0>)
    55ce:	4b6b      	ldr	r3, [pc, #428]	; (577c <_dtoa_r+0x6b4>)
    55d0:	f003 f95e 	bl	8890 <__aeabi_dmul>
    55d4:	4a68      	ldr	r2, [pc, #416]	; (5778 <_dtoa_r+0x6b0>)
    55d6:	4b69      	ldr	r3, [pc, #420]	; (577c <_dtoa_r+0x6b4>)
    55d8:	9004      	str	r0, [sp, #16]
    55da:	9105      	str	r1, [sp, #20]
    55dc:	1c30      	adds	r0, r6, #0
    55de:	1c39      	adds	r1, r7, #0
    55e0:	f003 f956 	bl	8890 <__aeabi_dmul>
    55e4:	1c06      	adds	r6, r0, #0
    55e6:	1c0f      	adds	r7, r1, #0
    55e8:	e7c2      	b.n	5570 <_dtoa_r+0x4a8>
    55ea:	6818      	ldr	r0, [r3, #0]
    55ec:	6859      	ldr	r1, [r3, #4]
    55ee:	1c22      	adds	r2, r4, #0
    55f0:	1c2b      	adds	r3, r5, #0
    55f2:	f003 f94d 	bl	8890 <__aeabi_dmul>
    55f6:	9c0b      	ldr	r4, [sp, #44]	; 0x2c
    55f8:	9d0e      	ldr	r5, [sp, #56]	; 0x38
    55fa:	9004      	str	r0, [sp, #16]
    55fc:	9105      	str	r1, [sp, #20]
    55fe:	1965      	adds	r5, r4, r5
    5600:	9517      	str	r5, [sp, #92]	; 0x5c
    5602:	1c39      	adds	r1, r7, #0
    5604:	1c30      	adds	r0, r6, #0
    5606:	f003 ff07 	bl	9418 <__aeabi_d2iz>
    560a:	1c05      	adds	r5, r0, #0
    560c:	f003 ff38 	bl	9480 <__aeabi_i2d>
    5610:	1c02      	adds	r2, r0, #0
    5612:	1c0b      	adds	r3, r1, #0
    5614:	1c30      	adds	r0, r6, #0
    5616:	1c39      	adds	r1, r7, #0
    5618:	f003 fbca 	bl	8db0 <__aeabi_dsub>
    561c:	3530      	adds	r5, #48	; 0x30
    561e:	7025      	strb	r5, [r4, #0]
    5620:	9d17      	ldr	r5, [sp, #92]	; 0x5c
    5622:	3401      	adds	r4, #1
    5624:	1c06      	adds	r6, r0, #0
    5626:	1c0f      	adds	r7, r1, #0
    5628:	42ac      	cmp	r4, r5
    562a:	d126      	bne.n	567a <_dtoa_r+0x5b2>
    562c:	980e      	ldr	r0, [sp, #56]	; 0x38
    562e:	9c0b      	ldr	r4, [sp, #44]	; 0x2c
    5630:	4a57      	ldr	r2, [pc, #348]	; (5790 <_dtoa_r+0x6c8>)
    5632:	4b58      	ldr	r3, [pc, #352]	; (5794 <_dtoa_r+0x6cc>)
    5634:	1825      	adds	r5, r4, r0
    5636:	9804      	ldr	r0, [sp, #16]
    5638:	9905      	ldr	r1, [sp, #20]
    563a:	f002 f99d 	bl	7978 <__aeabi_dadd>
    563e:	1c02      	adds	r2, r0, #0
    5640:	1c0b      	adds	r3, r1, #0
    5642:	1c30      	adds	r0, r6, #0
    5644:	1c39      	adds	r1, r7, #0
    5646:	f001 fa53 	bl	6af0 <__aeabi_dcmpgt>
    564a:	2800      	cmp	r0, #0
    564c:	d000      	beq.n	5650 <_dtoa_r+0x588>
    564e:	e082      	b.n	5756 <_dtoa_r+0x68e>
    5650:	9a04      	ldr	r2, [sp, #16]
    5652:	9b05      	ldr	r3, [sp, #20]
    5654:	484e      	ldr	r0, [pc, #312]	; (5790 <_dtoa_r+0x6c8>)
    5656:	494f      	ldr	r1, [pc, #316]	; (5794 <_dtoa_r+0x6cc>)
    5658:	f003 fbaa 	bl	8db0 <__aeabi_dsub>
    565c:	1c02      	adds	r2, r0, #0
    565e:	1c0b      	adds	r3, r1, #0
    5660:	1c30      	adds	r0, r6, #0
    5662:	1c39      	adds	r1, r7, #0
    5664:	f001 fa30 	bl	6ac8 <__aeabi_dcmplt>
    5668:	2800      	cmp	r0, #0
    566a:	d00d      	beq.n	5688 <_dtoa_r+0x5c0>
    566c:	1e6b      	subs	r3, r5, #1
    566e:	781a      	ldrb	r2, [r3, #0]
    5670:	2a30      	cmp	r2, #48	; 0x30
    5672:	d000      	beq.n	5676 <_dtoa_r+0x5ae>
    5674:	e2ea      	b.n	5c4c <_dtoa_r+0xb84>
    5676:	1c1d      	adds	r5, r3, #0
    5678:	e7f8      	b.n	566c <_dtoa_r+0x5a4>
    567a:	4a3f      	ldr	r2, [pc, #252]	; (5778 <_dtoa_r+0x6b0>)
    567c:	4b3f      	ldr	r3, [pc, #252]	; (577c <_dtoa_r+0x6b4>)
    567e:	f003 f907 	bl	8890 <__aeabi_dmul>
    5682:	1c06      	adds	r6, r0, #0
    5684:	1c0f      	adds	r7, r1, #0
    5686:	e7bc      	b.n	5602 <_dtoa_r+0x53a>
    5688:	9c14      	ldr	r4, [sp, #80]	; 0x50
    568a:	9d15      	ldr	r5, [sp, #84]	; 0x54
    568c:	9404      	str	r4, [sp, #16]
    568e:	9505      	str	r5, [sp, #20]
    5690:	9b19      	ldr	r3, [sp, #100]	; 0x64
    5692:	2b00      	cmp	r3, #0
    5694:	da00      	bge.n	5698 <_dtoa_r+0x5d0>
    5696:	e09f      	b.n	57d8 <_dtoa_r+0x710>
    5698:	9d06      	ldr	r5, [sp, #24]
    569a:	2d0e      	cmp	r5, #14
    569c:	dd00      	ble.n	56a0 <_dtoa_r+0x5d8>
    569e:	e09b      	b.n	57d8 <_dtoa_r+0x710>
    56a0:	4a3d      	ldr	r2, [pc, #244]	; (5798 <_dtoa_r+0x6d0>)
    56a2:	00eb      	lsls	r3, r5, #3
    56a4:	18d3      	adds	r3, r2, r3
    56a6:	681c      	ldr	r4, [r3, #0]
    56a8:	685d      	ldr	r5, [r3, #4]
    56aa:	9402      	str	r4, [sp, #8]
    56ac:	9503      	str	r5, [sp, #12]
    56ae:	9d21      	ldr	r5, [sp, #132]	; 0x84
    56b0:	2d00      	cmp	r5, #0
    56b2:	da14      	bge.n	56de <_dtoa_r+0x616>
    56b4:	9c08      	ldr	r4, [sp, #32]
    56b6:	2c00      	cmp	r4, #0
    56b8:	dc11      	bgt.n	56de <_dtoa_r+0x616>
    56ba:	d000      	beq.n	56be <_dtoa_r+0x5f6>
    56bc:	e18c      	b.n	59d8 <_dtoa_r+0x910>
    56be:	4a32      	ldr	r2, [pc, #200]	; (5788 <_dtoa_r+0x6c0>)
    56c0:	4b32      	ldr	r3, [pc, #200]	; (578c <_dtoa_r+0x6c4>)
    56c2:	9802      	ldr	r0, [sp, #8]
    56c4:	9903      	ldr	r1, [sp, #12]
    56c6:	f003 f8e3 	bl	8890 <__aeabi_dmul>
    56ca:	9a04      	ldr	r2, [sp, #16]
    56cc:	9b05      	ldr	r3, [sp, #20]
    56ce:	f001 fa19 	bl	6b04 <__aeabi_dcmpge>
    56d2:	9f08      	ldr	r7, [sp, #32]
    56d4:	1c3e      	adds	r6, r7, #0
    56d6:	2800      	cmp	r0, #0
    56d8:	d000      	beq.n	56dc <_dtoa_r+0x614>
    56da:	e17f      	b.n	59dc <_dtoa_r+0x914>
    56dc:	e187      	b.n	59ee <_dtoa_r+0x926>
    56de:	9d0b      	ldr	r5, [sp, #44]	; 0x2c
    56e0:	9e04      	ldr	r6, [sp, #16]
    56e2:	9f05      	ldr	r7, [sp, #20]
    56e4:	9a02      	ldr	r2, [sp, #8]
    56e6:	9b03      	ldr	r3, [sp, #12]
    56e8:	1c30      	adds	r0, r6, #0
    56ea:	1c39      	adds	r1, r7, #0
    56ec:	f002 fc66 	bl	7fbc <__aeabi_ddiv>
    56f0:	f003 fe92 	bl	9418 <__aeabi_d2iz>
    56f4:	1c04      	adds	r4, r0, #0
    56f6:	f003 fec3 	bl	9480 <__aeabi_i2d>
    56fa:	9a02      	ldr	r2, [sp, #8]
    56fc:	9b03      	ldr	r3, [sp, #12]
    56fe:	f003 f8c7 	bl	8890 <__aeabi_dmul>
    5702:	1c02      	adds	r2, r0, #0
    5704:	1c0b      	adds	r3, r1, #0
    5706:	1c30      	adds	r0, r6, #0
    5708:	1c39      	adds	r1, r7, #0
    570a:	f003 fb51 	bl	8db0 <__aeabi_dsub>
    570e:	3501      	adds	r5, #1
    5710:	1c02      	adds	r2, r0, #0
    5712:	1c20      	adds	r0, r4, #0
    5714:	3030      	adds	r0, #48	; 0x30
    5716:	1c0b      	adds	r3, r1, #0
    5718:	1e69      	subs	r1, r5, #1
    571a:	7008      	strb	r0, [r1, #0]
    571c:	980b      	ldr	r0, [sp, #44]	; 0x2c
    571e:	1a29      	subs	r1, r5, r0
    5720:	9808      	ldr	r0, [sp, #32]
    5722:	4281      	cmp	r1, r0
    5724:	d148      	bne.n	57b8 <_dtoa_r+0x6f0>
    5726:	1c10      	adds	r0, r2, #0
    5728:	1c19      	adds	r1, r3, #0
    572a:	f002 f925 	bl	7978 <__aeabi_dadd>
    572e:	9a02      	ldr	r2, [sp, #8]
    5730:	9b03      	ldr	r3, [sp, #12]
    5732:	1c06      	adds	r6, r0, #0
    5734:	1c0f      	adds	r7, r1, #0
    5736:	f001 f9db 	bl	6af0 <__aeabi_dcmpgt>
    573a:	2800      	cmp	r0, #0
    573c:	d10d      	bne.n	575a <_dtoa_r+0x692>
    573e:	1c30      	adds	r0, r6, #0
    5740:	1c39      	adds	r1, r7, #0
    5742:	9a02      	ldr	r2, [sp, #8]
    5744:	9b03      	ldr	r3, [sp, #12]
    5746:	f001 f9b9 	bl	6abc <__aeabi_dcmpeq>
    574a:	2800      	cmp	r0, #0
    574c:	d100      	bne.n	5750 <_dtoa_r+0x688>
    574e:	e27f      	b.n	5c50 <_dtoa_r+0xb88>
    5750:	07e1      	lsls	r1, r4, #31
    5752:	d402      	bmi.n	575a <_dtoa_r+0x692>
    5754:	e27c      	b.n	5c50 <_dtoa_r+0xb88>
    5756:	9c11      	ldr	r4, [sp, #68]	; 0x44
    5758:	9406      	str	r4, [sp, #24]
    575a:	1e6b      	subs	r3, r5, #1
    575c:	781a      	ldrb	r2, [r3, #0]
    575e:	2a39      	cmp	r2, #57	; 0x39
    5760:	d126      	bne.n	57b0 <_dtoa_r+0x6e8>
    5762:	9c0b      	ldr	r4, [sp, #44]	; 0x2c
    5764:	42a3      	cmp	r3, r4
    5766:	d01d      	beq.n	57a4 <_dtoa_r+0x6dc>
    5768:	1c1d      	adds	r5, r3, #0
    576a:	e7f6      	b.n	575a <_dtoa_r+0x692>
    576c:	46c0      	nop			; (mov r8, r8)
    576e:	46c0      	nop			; (mov r8, r8)
    5770:	00000000 	.word	0x00000000
    5774:	3ff00000 	.word	0x3ff00000
    5778:	00000000 	.word	0x00000000
    577c:	40240000 	.word	0x40240000
    5780:	00000000 	.word	0x00000000
    5784:	401c0000 	.word	0x401c0000
    5788:	00000000 	.word	0x00000000
    578c:	40140000 	.word	0x40140000
    5790:	00000000 	.word	0x00000000
    5794:	3fe00000 	.word	0x3fe00000
    5798:	00009d78 	.word	0x00009d78
    579c:	00009e40 	.word	0x00009e40
    57a0:	fcc00000 	.word	0xfcc00000
    57a4:	9c06      	ldr	r4, [sp, #24]
    57a6:	2230      	movs	r2, #48	; 0x30
    57a8:	3401      	adds	r4, #1
    57aa:	9406      	str	r4, [sp, #24]
    57ac:	9c0b      	ldr	r4, [sp, #44]	; 0x2c
    57ae:	7022      	strb	r2, [r4, #0]
    57b0:	781a      	ldrb	r2, [r3, #0]
    57b2:	3201      	adds	r2, #1
    57b4:	701a      	strb	r2, [r3, #0]
    57b6:	e24b      	b.n	5c50 <_dtoa_r+0xb88>
    57b8:	1c10      	adds	r0, r2, #0
    57ba:	1c19      	adds	r1, r3, #0
    57bc:	4bc9      	ldr	r3, [pc, #804]	; (5ae4 <_dtoa_r+0xa1c>)
    57be:	4ac8      	ldr	r2, [pc, #800]	; (5ae0 <_dtoa_r+0xa18>)
    57c0:	f003 f866 	bl	8890 <__aeabi_dmul>
    57c4:	4ac8      	ldr	r2, [pc, #800]	; (5ae8 <_dtoa_r+0xa20>)
    57c6:	4bc9      	ldr	r3, [pc, #804]	; (5aec <_dtoa_r+0xa24>)
    57c8:	1c06      	adds	r6, r0, #0
    57ca:	1c0f      	adds	r7, r1, #0
    57cc:	f001 f976 	bl	6abc <__aeabi_dcmpeq>
    57d0:	2800      	cmp	r0, #0
    57d2:	d100      	bne.n	57d6 <_dtoa_r+0x70e>
    57d4:	e786      	b.n	56e4 <_dtoa_r+0x61c>
    57d6:	e23b      	b.n	5c50 <_dtoa_r+0xb88>
    57d8:	9d10      	ldr	r5, [sp, #64]	; 0x40
    57da:	2d00      	cmp	r5, #0
    57dc:	d031      	beq.n	5842 <_dtoa_r+0x77a>
    57de:	9c20      	ldr	r4, [sp, #128]	; 0x80
    57e0:	2c01      	cmp	r4, #1
    57e2:	dc0b      	bgt.n	57fc <_dtoa_r+0x734>
    57e4:	9d16      	ldr	r5, [sp, #88]	; 0x58
    57e6:	2d00      	cmp	r5, #0
    57e8:	d002      	beq.n	57f0 <_dtoa_r+0x728>
    57ea:	48c1      	ldr	r0, [pc, #772]	; (5af0 <_dtoa_r+0xa28>)
    57ec:	181b      	adds	r3, r3, r0
    57ee:	e002      	b.n	57f6 <_dtoa_r+0x72e>
    57f0:	9918      	ldr	r1, [sp, #96]	; 0x60
    57f2:	2336      	movs	r3, #54	; 0x36
    57f4:	1a5b      	subs	r3, r3, r1
    57f6:	9d0d      	ldr	r5, [sp, #52]	; 0x34
    57f8:	9c02      	ldr	r4, [sp, #8]
    57fa:	e016      	b.n	582a <_dtoa_r+0x762>
    57fc:	9d08      	ldr	r5, [sp, #32]
    57fe:	9c0d      	ldr	r4, [sp, #52]	; 0x34
    5800:	3d01      	subs	r5, #1
    5802:	42ac      	cmp	r4, r5
    5804:	db01      	blt.n	580a <_dtoa_r+0x742>
    5806:	1b65      	subs	r5, r4, r5
    5808:	e006      	b.n	5818 <_dtoa_r+0x750>
    580a:	9c0d      	ldr	r4, [sp, #52]	; 0x34
    580c:	950d      	str	r5, [sp, #52]	; 0x34
    580e:	1b2b      	subs	r3, r5, r4
    5810:	9c12      	ldr	r4, [sp, #72]	; 0x48
    5812:	2500      	movs	r5, #0
    5814:	18e4      	adds	r4, r4, r3
    5816:	9412      	str	r4, [sp, #72]	; 0x48
    5818:	9c08      	ldr	r4, [sp, #32]
    581a:	2c00      	cmp	r4, #0
    581c:	da03      	bge.n	5826 <_dtoa_r+0x75e>
    581e:	9802      	ldr	r0, [sp, #8]
    5820:	2300      	movs	r3, #0
    5822:	1b04      	subs	r4, r0, r4
    5824:	e001      	b.n	582a <_dtoa_r+0x762>
    5826:	9c02      	ldr	r4, [sp, #8]
    5828:	9b08      	ldr	r3, [sp, #32]
    582a:	9902      	ldr	r1, [sp, #8]
    582c:	9a09      	ldr	r2, [sp, #36]	; 0x24
    582e:	18c9      	adds	r1, r1, r3
    5830:	9102      	str	r1, [sp, #8]
    5832:	18d2      	adds	r2, r2, r3
    5834:	9807      	ldr	r0, [sp, #28]
    5836:	2101      	movs	r1, #1
    5838:	9209      	str	r2, [sp, #36]	; 0x24
    583a:	f000 fcdc 	bl	61f6 <__i2b>
    583e:	1c06      	adds	r6, r0, #0
    5840:	e002      	b.n	5848 <_dtoa_r+0x780>
    5842:	9d0d      	ldr	r5, [sp, #52]	; 0x34
    5844:	9c02      	ldr	r4, [sp, #8]
    5846:	9e10      	ldr	r6, [sp, #64]	; 0x40
    5848:	2c00      	cmp	r4, #0
    584a:	d00c      	beq.n	5866 <_dtoa_r+0x79e>
    584c:	9b09      	ldr	r3, [sp, #36]	; 0x24
    584e:	2b00      	cmp	r3, #0
    5850:	dd09      	ble.n	5866 <_dtoa_r+0x79e>
    5852:	42a3      	cmp	r3, r4
    5854:	dd00      	ble.n	5858 <_dtoa_r+0x790>
    5856:	1c23      	adds	r3, r4, #0
    5858:	9802      	ldr	r0, [sp, #8]
    585a:	9909      	ldr	r1, [sp, #36]	; 0x24
    585c:	1ac0      	subs	r0, r0, r3
    585e:	1ac9      	subs	r1, r1, r3
    5860:	9002      	str	r0, [sp, #8]
    5862:	1ae4      	subs	r4, r4, r3
    5864:	9109      	str	r1, [sp, #36]	; 0x24
    5866:	9a0d      	ldr	r2, [sp, #52]	; 0x34
    5868:	2a00      	cmp	r2, #0
    586a:	dd21      	ble.n	58b0 <_dtoa_r+0x7e8>
    586c:	9b10      	ldr	r3, [sp, #64]	; 0x40
    586e:	2b00      	cmp	r3, #0
    5870:	d018      	beq.n	58a4 <_dtoa_r+0x7dc>
    5872:	2d00      	cmp	r5, #0
    5874:	dd10      	ble.n	5898 <_dtoa_r+0x7d0>
    5876:	1c31      	adds	r1, r6, #0
    5878:	1c2a      	adds	r2, r5, #0
    587a:	9807      	ldr	r0, [sp, #28]
    587c:	f000 fd54 	bl	6328 <__pow5mult>
    5880:	1c06      	adds	r6, r0, #0
    5882:	1c31      	adds	r1, r6, #0
    5884:	9a0a      	ldr	r2, [sp, #40]	; 0x28
    5886:	9807      	ldr	r0, [sp, #28]
    5888:	f000 fcbe 	bl	6208 <__multiply>
    588c:	990a      	ldr	r1, [sp, #40]	; 0x28
    588e:	1c07      	adds	r7, r0, #0
    5890:	9807      	ldr	r0, [sp, #28]
    5892:	f000 fc10 	bl	60b6 <_Bfree>
    5896:	970a      	str	r7, [sp, #40]	; 0x28
    5898:	980d      	ldr	r0, [sp, #52]	; 0x34
    589a:	1b42      	subs	r2, r0, r5
    589c:	d008      	beq.n	58b0 <_dtoa_r+0x7e8>
    589e:	9807      	ldr	r0, [sp, #28]
    58a0:	990a      	ldr	r1, [sp, #40]	; 0x28
    58a2:	e002      	b.n	58aa <_dtoa_r+0x7e2>
    58a4:	9807      	ldr	r0, [sp, #28]
    58a6:	990a      	ldr	r1, [sp, #40]	; 0x28
    58a8:	9a0d      	ldr	r2, [sp, #52]	; 0x34
    58aa:	f000 fd3d 	bl	6328 <__pow5mult>
    58ae:	900a      	str	r0, [sp, #40]	; 0x28
    58b0:	9807      	ldr	r0, [sp, #28]
    58b2:	2101      	movs	r1, #1
    58b4:	f000 fc9f 	bl	61f6 <__i2b>
    58b8:	9d12      	ldr	r5, [sp, #72]	; 0x48
    58ba:	1c07      	adds	r7, r0, #0
    58bc:	2d00      	cmp	r5, #0
    58be:	dd05      	ble.n	58cc <_dtoa_r+0x804>
    58c0:	1c39      	adds	r1, r7, #0
    58c2:	9807      	ldr	r0, [sp, #28]
    58c4:	1c2a      	adds	r2, r5, #0
    58c6:	f000 fd2f 	bl	6328 <__pow5mult>
    58ca:	1c07      	adds	r7, r0, #0
    58cc:	9820      	ldr	r0, [sp, #128]	; 0x80
    58ce:	2500      	movs	r5, #0
    58d0:	2801      	cmp	r0, #1
    58d2:	dc10      	bgt.n	58f6 <_dtoa_r+0x82e>
    58d4:	9904      	ldr	r1, [sp, #16]
    58d6:	42a9      	cmp	r1, r5
    58d8:	d10d      	bne.n	58f6 <_dtoa_r+0x82e>
    58da:	9a05      	ldr	r2, [sp, #20]
    58dc:	0313      	lsls	r3, r2, #12
    58de:	42ab      	cmp	r3, r5
    58e0:	d109      	bne.n	58f6 <_dtoa_r+0x82e>
    58e2:	4b84      	ldr	r3, [pc, #528]	; (5af4 <_dtoa_r+0xa2c>)
    58e4:	4213      	tst	r3, r2
    58e6:	d006      	beq.n	58f6 <_dtoa_r+0x82e>
    58e8:	9d02      	ldr	r5, [sp, #8]
    58ea:	3501      	adds	r5, #1
    58ec:	9502      	str	r5, [sp, #8]
    58ee:	9d09      	ldr	r5, [sp, #36]	; 0x24
    58f0:	3501      	adds	r5, #1
    58f2:	9509      	str	r5, [sp, #36]	; 0x24
    58f4:	2501      	movs	r5, #1
    58f6:	9912      	ldr	r1, [sp, #72]	; 0x48
    58f8:	2001      	movs	r0, #1
    58fa:	2900      	cmp	r1, #0
    58fc:	d008      	beq.n	5910 <_dtoa_r+0x848>
    58fe:	693b      	ldr	r3, [r7, #16]
    5900:	3303      	adds	r3, #3
    5902:	009b      	lsls	r3, r3, #2
    5904:	18fb      	adds	r3, r7, r3
    5906:	6858      	ldr	r0, [r3, #4]
    5908:	f000 fc2c 	bl	6164 <__hi0bits>
    590c:	2320      	movs	r3, #32
    590e:	1a18      	subs	r0, r3, r0
    5910:	9a09      	ldr	r2, [sp, #36]	; 0x24
    5912:	231f      	movs	r3, #31
    5914:	1880      	adds	r0, r0, r2
    5916:	4018      	ands	r0, r3
    5918:	d00d      	beq.n	5936 <_dtoa_r+0x86e>
    591a:	2320      	movs	r3, #32
    591c:	1a1b      	subs	r3, r3, r0
    591e:	2b04      	cmp	r3, #4
    5920:	dd06      	ble.n	5930 <_dtoa_r+0x868>
    5922:	231c      	movs	r3, #28
    5924:	1a18      	subs	r0, r3, r0
    5926:	9b02      	ldr	r3, [sp, #8]
    5928:	1824      	adds	r4, r4, r0
    592a:	181b      	adds	r3, r3, r0
    592c:	9302      	str	r3, [sp, #8]
    592e:	e008      	b.n	5942 <_dtoa_r+0x87a>
    5930:	2b04      	cmp	r3, #4
    5932:	d008      	beq.n	5946 <_dtoa_r+0x87e>
    5934:	1c18      	adds	r0, r3, #0
    5936:	9902      	ldr	r1, [sp, #8]
    5938:	301c      	adds	r0, #28
    593a:	1809      	adds	r1, r1, r0
    593c:	9a09      	ldr	r2, [sp, #36]	; 0x24
    593e:	9102      	str	r1, [sp, #8]
    5940:	1824      	adds	r4, r4, r0
    5942:	1812      	adds	r2, r2, r0
    5944:	9209      	str	r2, [sp, #36]	; 0x24
    5946:	9b02      	ldr	r3, [sp, #8]
    5948:	2b00      	cmp	r3, #0
    594a:	dd05      	ble.n	5958 <_dtoa_r+0x890>
    594c:	9807      	ldr	r0, [sp, #28]
    594e:	990a      	ldr	r1, [sp, #40]	; 0x28
    5950:	1c1a      	adds	r2, r3, #0
    5952:	f000 fd3b 	bl	63cc <__lshift>
    5956:	900a      	str	r0, [sp, #40]	; 0x28
    5958:	9809      	ldr	r0, [sp, #36]	; 0x24
    595a:	2800      	cmp	r0, #0
    595c:	dd05      	ble.n	596a <_dtoa_r+0x8a2>
    595e:	1c39      	adds	r1, r7, #0
    5960:	9807      	ldr	r0, [sp, #28]
    5962:	9a09      	ldr	r2, [sp, #36]	; 0x24
    5964:	f000 fd32 	bl	63cc <__lshift>
    5968:	1c07      	adds	r7, r0, #0
    596a:	9913      	ldr	r1, [sp, #76]	; 0x4c
    596c:	2900      	cmp	r1, #0
    596e:	d01b      	beq.n	59a8 <_dtoa_r+0x8e0>
    5970:	980a      	ldr	r0, [sp, #40]	; 0x28
    5972:	1c39      	adds	r1, r7, #0
    5974:	f000 fd7c 	bl	6470 <__mcmp>
    5978:	2800      	cmp	r0, #0
    597a:	da15      	bge.n	59a8 <_dtoa_r+0x8e0>
    597c:	9a06      	ldr	r2, [sp, #24]
    597e:	2300      	movs	r3, #0
    5980:	3a01      	subs	r2, #1
    5982:	9206      	str	r2, [sp, #24]
    5984:	9807      	ldr	r0, [sp, #28]
    5986:	990a      	ldr	r1, [sp, #40]	; 0x28
    5988:	220a      	movs	r2, #10
    598a:	f000 fbad 	bl	60e8 <__multadd>
    598e:	9b0c      	ldr	r3, [sp, #48]	; 0x30
    5990:	900a      	str	r0, [sp, #40]	; 0x28
    5992:	9810      	ldr	r0, [sp, #64]	; 0x40
    5994:	9308      	str	r3, [sp, #32]
    5996:	2800      	cmp	r0, #0
    5998:	d006      	beq.n	59a8 <_dtoa_r+0x8e0>
    599a:	1c31      	adds	r1, r6, #0
    599c:	9807      	ldr	r0, [sp, #28]
    599e:	220a      	movs	r2, #10
    59a0:	2300      	movs	r3, #0
    59a2:	f000 fba1 	bl	60e8 <__multadd>
    59a6:	1c06      	adds	r6, r0, #0
    59a8:	9908      	ldr	r1, [sp, #32]
    59aa:	2900      	cmp	r1, #0
    59ac:	dc2a      	bgt.n	5a04 <_dtoa_r+0x93c>
    59ae:	9a20      	ldr	r2, [sp, #128]	; 0x80
    59b0:	2a02      	cmp	r2, #2
    59b2:	dd27      	ble.n	5a04 <_dtoa_r+0x93c>
    59b4:	2900      	cmp	r1, #0
    59b6:	d111      	bne.n	59dc <_dtoa_r+0x914>
    59b8:	1c39      	adds	r1, r7, #0
    59ba:	9807      	ldr	r0, [sp, #28]
    59bc:	2205      	movs	r2, #5
    59be:	9b08      	ldr	r3, [sp, #32]
    59c0:	f000 fb92 	bl	60e8 <__multadd>
    59c4:	1c07      	adds	r7, r0, #0
    59c6:	1c39      	adds	r1, r7, #0
    59c8:	980a      	ldr	r0, [sp, #40]	; 0x28
    59ca:	f000 fd51 	bl	6470 <__mcmp>
    59ce:	2800      	cmp	r0, #0
    59d0:	dc0d      	bgt.n	59ee <_dtoa_r+0x926>
    59d2:	e003      	b.n	59dc <_dtoa_r+0x914>
    59d4:	9f0e      	ldr	r7, [sp, #56]	; 0x38
    59d6:	e000      	b.n	59da <_dtoa_r+0x912>
    59d8:	2700      	movs	r7, #0
    59da:	1c3e      	adds	r6, r7, #0
    59dc:	9c21      	ldr	r4, [sp, #132]	; 0x84
    59de:	9d0b      	ldr	r5, [sp, #44]	; 0x2c
    59e0:	43e4      	mvns	r4, r4
    59e2:	9406      	str	r4, [sp, #24]
    59e4:	e00b      	b.n	59fe <_dtoa_r+0x936>
    59e6:	9d11      	ldr	r5, [sp, #68]	; 0x44
    59e8:	9f0e      	ldr	r7, [sp, #56]	; 0x38
    59ea:	9506      	str	r5, [sp, #24]
    59ec:	1c3e      	adds	r6, r7, #0
    59ee:	9c0b      	ldr	r4, [sp, #44]	; 0x2c
    59f0:	2331      	movs	r3, #49	; 0x31
    59f2:	7023      	strb	r3, [r4, #0]
    59f4:	9c06      	ldr	r4, [sp, #24]
    59f6:	9d0b      	ldr	r5, [sp, #44]	; 0x2c
    59f8:	3401      	adds	r4, #1
    59fa:	3501      	adds	r5, #1
    59fc:	9406      	str	r4, [sp, #24]
    59fe:	9602      	str	r6, [sp, #8]
    5a00:	2600      	movs	r6, #0
    5a02:	e10f      	b.n	5c24 <_dtoa_r+0xb5c>
    5a04:	9810      	ldr	r0, [sp, #64]	; 0x40
    5a06:	2800      	cmp	r0, #0
    5a08:	d100      	bne.n	5a0c <_dtoa_r+0x944>
    5a0a:	e0c5      	b.n	5b98 <_dtoa_r+0xad0>
    5a0c:	2c00      	cmp	r4, #0
    5a0e:	dd05      	ble.n	5a1c <_dtoa_r+0x954>
    5a10:	1c31      	adds	r1, r6, #0
    5a12:	9807      	ldr	r0, [sp, #28]
    5a14:	1c22      	adds	r2, r4, #0
    5a16:	f000 fcd9 	bl	63cc <__lshift>
    5a1a:	1c06      	adds	r6, r0, #0
    5a1c:	9602      	str	r6, [sp, #8]
    5a1e:	2d00      	cmp	r5, #0
    5a20:	d012      	beq.n	5a48 <_dtoa_r+0x980>
    5a22:	6871      	ldr	r1, [r6, #4]
    5a24:	9807      	ldr	r0, [sp, #28]
    5a26:	f000 fb0e 	bl	6046 <_Balloc>
    5a2a:	6932      	ldr	r2, [r6, #16]
    5a2c:	1c31      	adds	r1, r6, #0
    5a2e:	3202      	adds	r2, #2
    5a30:	1c04      	adds	r4, r0, #0
    5a32:	0092      	lsls	r2, r2, #2
    5a34:	310c      	adds	r1, #12
    5a36:	300c      	adds	r0, #12
    5a38:	f7fe fbae 	bl	4198 <memcpy>
    5a3c:	9807      	ldr	r0, [sp, #28]
    5a3e:	1c21      	adds	r1, r4, #0
    5a40:	2201      	movs	r2, #1
    5a42:	f000 fcc3 	bl	63cc <__lshift>
    5a46:	9002      	str	r0, [sp, #8]
    5a48:	9c0b      	ldr	r4, [sp, #44]	; 0x2c
    5a4a:	9d08      	ldr	r5, [sp, #32]
    5a4c:	1c23      	adds	r3, r4, #0
    5a4e:	3b01      	subs	r3, #1
    5a50:	195b      	adds	r3, r3, r5
    5a52:	9409      	str	r4, [sp, #36]	; 0x24
    5a54:	9310      	str	r3, [sp, #64]	; 0x40
    5a56:	1c39      	adds	r1, r7, #0
    5a58:	980a      	ldr	r0, [sp, #40]	; 0x28
    5a5a:	f7ff faa9 	bl	4fb0 <quorem>
    5a5e:	1c31      	adds	r1, r6, #0
    5a60:	900d      	str	r0, [sp, #52]	; 0x34
    5a62:	1c04      	adds	r4, r0, #0
    5a64:	980a      	ldr	r0, [sp, #40]	; 0x28
    5a66:	f000 fd03 	bl	6470 <__mcmp>
    5a6a:	1c39      	adds	r1, r7, #0
    5a6c:	900c      	str	r0, [sp, #48]	; 0x30
    5a6e:	9a02      	ldr	r2, [sp, #8]
    5a70:	9807      	ldr	r0, [sp, #28]
    5a72:	f000 fd18 	bl	64a6 <__mdiff>
    5a76:	1c05      	adds	r5, r0, #0
    5a78:	68c0      	ldr	r0, [r0, #12]
    5a7a:	3430      	adds	r4, #48	; 0x30
    5a7c:	2800      	cmp	r0, #0
    5a7e:	d105      	bne.n	5a8c <_dtoa_r+0x9c4>
    5a80:	980a      	ldr	r0, [sp, #40]	; 0x28
    5a82:	1c29      	adds	r1, r5, #0
    5a84:	f000 fcf4 	bl	6470 <__mcmp>
    5a88:	9008      	str	r0, [sp, #32]
    5a8a:	e001      	b.n	5a90 <_dtoa_r+0x9c8>
    5a8c:	2101      	movs	r1, #1
    5a8e:	9108      	str	r1, [sp, #32]
    5a90:	1c29      	adds	r1, r5, #0
    5a92:	9807      	ldr	r0, [sp, #28]
    5a94:	f000 fb0f 	bl	60b6 <_Bfree>
    5a98:	9b08      	ldr	r3, [sp, #32]
    5a9a:	9d20      	ldr	r5, [sp, #128]	; 0x80
    5a9c:	432b      	orrs	r3, r5
    5a9e:	d10d      	bne.n	5abc <_dtoa_r+0x9f4>
    5aa0:	9804      	ldr	r0, [sp, #16]
    5aa2:	2301      	movs	r3, #1
    5aa4:	4203      	tst	r3, r0
    5aa6:	d109      	bne.n	5abc <_dtoa_r+0x9f4>
    5aa8:	2c39      	cmp	r4, #57	; 0x39
    5aaa:	d044      	beq.n	5b36 <_dtoa_r+0xa6e>
    5aac:	9d0c      	ldr	r5, [sp, #48]	; 0x30
    5aae:	2d00      	cmp	r5, #0
    5ab0:	dd01      	ble.n	5ab6 <_dtoa_r+0x9ee>
    5ab2:	9c0d      	ldr	r4, [sp, #52]	; 0x34
    5ab4:	3431      	adds	r4, #49	; 0x31
    5ab6:	9d09      	ldr	r5, [sp, #36]	; 0x24
    5ab8:	3501      	adds	r5, #1
    5aba:	e044      	b.n	5b46 <_dtoa_r+0xa7e>
    5abc:	9d0c      	ldr	r5, [sp, #48]	; 0x30
    5abe:	2d00      	cmp	r5, #0
    5ac0:	da03      	bge.n	5aca <_dtoa_r+0xa02>
    5ac2:	9d08      	ldr	r5, [sp, #32]
    5ac4:	2d00      	cmp	r5, #0
    5ac6:	dc17      	bgt.n	5af8 <_dtoa_r+0xa30>
    5ac8:	e028      	b.n	5b1c <_dtoa_r+0xa54>
    5aca:	9b0c      	ldr	r3, [sp, #48]	; 0x30
    5acc:	9d20      	ldr	r5, [sp, #128]	; 0x80
    5ace:	432b      	orrs	r3, r5
    5ad0:	d129      	bne.n	5b26 <_dtoa_r+0xa5e>
    5ad2:	9804      	ldr	r0, [sp, #16]
    5ad4:	2301      	movs	r3, #1
    5ad6:	4203      	tst	r3, r0
    5ad8:	d125      	bne.n	5b26 <_dtoa_r+0xa5e>
    5ada:	e7f2      	b.n	5ac2 <_dtoa_r+0x9fa>
    5adc:	46c0      	nop			; (mov r8, r8)
    5ade:	46c0      	nop			; (mov r8, r8)
    5ae0:	00000000 	.word	0x00000000
    5ae4:	40240000 	.word	0x40240000
	...
    5af0:	00000433 	.word	0x00000433
    5af4:	7ff00000 	.word	0x7ff00000
    5af8:	990a      	ldr	r1, [sp, #40]	; 0x28
    5afa:	9807      	ldr	r0, [sp, #28]
    5afc:	2201      	movs	r2, #1
    5afe:	f000 fc65 	bl	63cc <__lshift>
    5b02:	1c39      	adds	r1, r7, #0
    5b04:	900a      	str	r0, [sp, #40]	; 0x28
    5b06:	f000 fcb3 	bl	6470 <__mcmp>
    5b0a:	2800      	cmp	r0, #0
    5b0c:	dc02      	bgt.n	5b14 <_dtoa_r+0xa4c>
    5b0e:	d105      	bne.n	5b1c <_dtoa_r+0xa54>
    5b10:	07e1      	lsls	r1, r4, #31
    5b12:	d503      	bpl.n	5b1c <_dtoa_r+0xa54>
    5b14:	2c39      	cmp	r4, #57	; 0x39
    5b16:	d00e      	beq.n	5b36 <_dtoa_r+0xa6e>
    5b18:	9c0d      	ldr	r4, [sp, #52]	; 0x34
    5b1a:	3431      	adds	r4, #49	; 0x31
    5b1c:	9d09      	ldr	r5, [sp, #36]	; 0x24
    5b1e:	9a09      	ldr	r2, [sp, #36]	; 0x24
    5b20:	3501      	adds	r5, #1
    5b22:	7014      	strb	r4, [r2, #0]
    5b24:	e07e      	b.n	5c24 <_dtoa_r+0xb5c>
    5b26:	9d09      	ldr	r5, [sp, #36]	; 0x24
    5b28:	3501      	adds	r5, #1
    5b2a:	950c      	str	r5, [sp, #48]	; 0x30
    5b2c:	9d08      	ldr	r5, [sp, #32]
    5b2e:	2d00      	cmp	r5, #0
    5b30:	dd0c      	ble.n	5b4c <_dtoa_r+0xa84>
    5b32:	2c39      	cmp	r4, #57	; 0x39
    5b34:	d105      	bne.n	5b42 <_dtoa_r+0xa7a>
    5b36:	9d09      	ldr	r5, [sp, #36]	; 0x24
    5b38:	9c09      	ldr	r4, [sp, #36]	; 0x24
    5b3a:	2339      	movs	r3, #57	; 0x39
    5b3c:	3501      	adds	r5, #1
    5b3e:	7023      	strb	r3, [r4, #0]
    5b40:	e05b      	b.n	5bfa <_dtoa_r+0xb32>
    5b42:	9d0c      	ldr	r5, [sp, #48]	; 0x30
    5b44:	3401      	adds	r4, #1
    5b46:	9809      	ldr	r0, [sp, #36]	; 0x24
    5b48:	7004      	strb	r4, [r0, #0]
    5b4a:	e06b      	b.n	5c24 <_dtoa_r+0xb5c>
    5b4c:	9909      	ldr	r1, [sp, #36]	; 0x24
    5b4e:	9a10      	ldr	r2, [sp, #64]	; 0x40
    5b50:	9d0c      	ldr	r5, [sp, #48]	; 0x30
    5b52:	700c      	strb	r4, [r1, #0]
    5b54:	4291      	cmp	r1, r2
    5b56:	d03d      	beq.n	5bd4 <_dtoa_r+0xb0c>
    5b58:	990a      	ldr	r1, [sp, #40]	; 0x28
    5b5a:	220a      	movs	r2, #10
    5b5c:	2300      	movs	r3, #0
    5b5e:	9807      	ldr	r0, [sp, #28]
    5b60:	f000 fac2 	bl	60e8 <__multadd>
    5b64:	9c02      	ldr	r4, [sp, #8]
    5b66:	900a      	str	r0, [sp, #40]	; 0x28
    5b68:	1c31      	adds	r1, r6, #0
    5b6a:	9807      	ldr	r0, [sp, #28]
    5b6c:	220a      	movs	r2, #10
    5b6e:	2300      	movs	r3, #0
    5b70:	42a6      	cmp	r6, r4
    5b72:	d104      	bne.n	5b7e <_dtoa_r+0xab6>
    5b74:	f000 fab8 	bl	60e8 <__multadd>
    5b78:	1c06      	adds	r6, r0, #0
    5b7a:	9002      	str	r0, [sp, #8]
    5b7c:	e009      	b.n	5b92 <_dtoa_r+0xaca>
    5b7e:	f000 fab3 	bl	60e8 <__multadd>
    5b82:	9902      	ldr	r1, [sp, #8]
    5b84:	1c06      	adds	r6, r0, #0
    5b86:	220a      	movs	r2, #10
    5b88:	9807      	ldr	r0, [sp, #28]
    5b8a:	2300      	movs	r3, #0
    5b8c:	f000 faac 	bl	60e8 <__multadd>
    5b90:	9002      	str	r0, [sp, #8]
    5b92:	9d0c      	ldr	r5, [sp, #48]	; 0x30
    5b94:	9509      	str	r5, [sp, #36]	; 0x24
    5b96:	e75e      	b.n	5a56 <_dtoa_r+0x98e>
    5b98:	9d0b      	ldr	r5, [sp, #44]	; 0x2c
    5b9a:	1c39      	adds	r1, r7, #0
    5b9c:	980a      	ldr	r0, [sp, #40]	; 0x28
    5b9e:	f7ff fa07 	bl	4fb0 <quorem>
    5ba2:	1c04      	adds	r4, r0, #0
    5ba4:	3430      	adds	r4, #48	; 0x30
    5ba6:	980b      	ldr	r0, [sp, #44]	; 0x2c
    5ba8:	9908      	ldr	r1, [sp, #32]
    5baa:	702c      	strb	r4, [r5, #0]
    5bac:	3501      	adds	r5, #1
    5bae:	1a2b      	subs	r3, r5, r0
    5bb0:	428b      	cmp	r3, r1
    5bb2:	db07      	blt.n	5bc4 <_dtoa_r+0xafc>
    5bb4:	1e0b      	subs	r3, r1, #0
    5bb6:	dc00      	bgt.n	5bba <_dtoa_r+0xaf2>
    5bb8:	2301      	movs	r3, #1
    5bba:	9a0b      	ldr	r2, [sp, #44]	; 0x2c
    5bbc:	9602      	str	r6, [sp, #8]
    5bbe:	18d5      	adds	r5, r2, r3
    5bc0:	2600      	movs	r6, #0
    5bc2:	e007      	b.n	5bd4 <_dtoa_r+0xb0c>
    5bc4:	9807      	ldr	r0, [sp, #28]
    5bc6:	990a      	ldr	r1, [sp, #40]	; 0x28
    5bc8:	220a      	movs	r2, #10
    5bca:	2300      	movs	r3, #0
    5bcc:	f000 fa8c 	bl	60e8 <__multadd>
    5bd0:	900a      	str	r0, [sp, #40]	; 0x28
    5bd2:	e7e2      	b.n	5b9a <_dtoa_r+0xad2>
    5bd4:	990a      	ldr	r1, [sp, #40]	; 0x28
    5bd6:	9807      	ldr	r0, [sp, #28]
    5bd8:	2201      	movs	r2, #1
    5bda:	f000 fbf7 	bl	63cc <__lshift>
    5bde:	1c39      	adds	r1, r7, #0
    5be0:	900a      	str	r0, [sp, #40]	; 0x28
    5be2:	f000 fc45 	bl	6470 <__mcmp>
    5be6:	2800      	cmp	r0, #0
    5be8:	dc07      	bgt.n	5bfa <_dtoa_r+0xb32>
    5bea:	d115      	bne.n	5c18 <_dtoa_r+0xb50>
    5bec:	07e3      	lsls	r3, r4, #31
    5bee:	d404      	bmi.n	5bfa <_dtoa_r+0xb32>
    5bf0:	e012      	b.n	5c18 <_dtoa_r+0xb50>
    5bf2:	9c0b      	ldr	r4, [sp, #44]	; 0x2c
    5bf4:	42a3      	cmp	r3, r4
    5bf6:	d005      	beq.n	5c04 <_dtoa_r+0xb3c>
    5bf8:	1c1d      	adds	r5, r3, #0
    5bfa:	1e6b      	subs	r3, r5, #1
    5bfc:	781a      	ldrb	r2, [r3, #0]
    5bfe:	2a39      	cmp	r2, #57	; 0x39
    5c00:	d0f7      	beq.n	5bf2 <_dtoa_r+0xb2a>
    5c02:	e006      	b.n	5c12 <_dtoa_r+0xb4a>
    5c04:	9c06      	ldr	r4, [sp, #24]
    5c06:	2331      	movs	r3, #49	; 0x31
    5c08:	3401      	adds	r4, #1
    5c0a:	9406      	str	r4, [sp, #24]
    5c0c:	9c0b      	ldr	r4, [sp, #44]	; 0x2c
    5c0e:	7023      	strb	r3, [r4, #0]
    5c10:	e008      	b.n	5c24 <_dtoa_r+0xb5c>
    5c12:	3201      	adds	r2, #1
    5c14:	701a      	strb	r2, [r3, #0]
    5c16:	e005      	b.n	5c24 <_dtoa_r+0xb5c>
    5c18:	1e6b      	subs	r3, r5, #1
    5c1a:	781a      	ldrb	r2, [r3, #0]
    5c1c:	2a30      	cmp	r2, #48	; 0x30
    5c1e:	d101      	bne.n	5c24 <_dtoa_r+0xb5c>
    5c20:	1c1d      	adds	r5, r3, #0
    5c22:	e7f9      	b.n	5c18 <_dtoa_r+0xb50>
    5c24:	9807      	ldr	r0, [sp, #28]
    5c26:	1c39      	adds	r1, r7, #0
    5c28:	f000 fa45 	bl	60b6 <_Bfree>
    5c2c:	9c02      	ldr	r4, [sp, #8]
    5c2e:	2c00      	cmp	r4, #0
    5c30:	d00e      	beq.n	5c50 <_dtoa_r+0xb88>
    5c32:	2e00      	cmp	r6, #0
    5c34:	d005      	beq.n	5c42 <_dtoa_r+0xb7a>
    5c36:	42a6      	cmp	r6, r4
    5c38:	d003      	beq.n	5c42 <_dtoa_r+0xb7a>
    5c3a:	9807      	ldr	r0, [sp, #28]
    5c3c:	1c31      	adds	r1, r6, #0
    5c3e:	f000 fa3a 	bl	60b6 <_Bfree>
    5c42:	9807      	ldr	r0, [sp, #28]
    5c44:	9902      	ldr	r1, [sp, #8]
    5c46:	f000 fa36 	bl	60b6 <_Bfree>
    5c4a:	e001      	b.n	5c50 <_dtoa_r+0xb88>
    5c4c:	9c11      	ldr	r4, [sp, #68]	; 0x44
    5c4e:	9406      	str	r4, [sp, #24]
    5c50:	9807      	ldr	r0, [sp, #28]
    5c52:	990a      	ldr	r1, [sp, #40]	; 0x28
    5c54:	f000 fa2f 	bl	60b6 <_Bfree>
    5c58:	2300      	movs	r3, #0
    5c5a:	702b      	strb	r3, [r5, #0]
    5c5c:	9b06      	ldr	r3, [sp, #24]
    5c5e:	9c22      	ldr	r4, [sp, #136]	; 0x88
    5c60:	3301      	adds	r3, #1
    5c62:	6023      	str	r3, [r4, #0]
    5c64:	9c24      	ldr	r4, [sp, #144]	; 0x90
    5c66:	2c00      	cmp	r4, #0
    5c68:	d003      	beq.n	5c72 <_dtoa_r+0xbaa>
    5c6a:	6025      	str	r5, [r4, #0]
    5c6c:	e001      	b.n	5c72 <_dtoa_r+0xbaa>
    5c6e:	4802      	ldr	r0, [pc, #8]	; (5c78 <_dtoa_r+0xbb0>)
    5c70:	e000      	b.n	5c74 <_dtoa_r+0xbac>
    5c72:	980b      	ldr	r0, [sp, #44]	; 0x2c
    5c74:	b01b      	add	sp, #108	; 0x6c
    5c76:	bdf0      	pop	{r4, r5, r6, r7, pc}
    5c78:	00009cd9 	.word	0x00009cd9
    5c7c:	46c0      	nop			; (mov r8, r8)
    5c7e:	46c0      	nop			; (mov r8, r8)

00005c80 <__sflush_r>:
    5c80:	b5f7      	push	{r0, r1, r2, r4, r5, r6, r7, lr}
    5c82:	898b      	ldrh	r3, [r1, #12]
    5c84:	1c05      	adds	r5, r0, #0
    5c86:	1c0c      	adds	r4, r1, #0
    5c88:	0719      	lsls	r1, r3, #28
    5c8a:	d45e      	bmi.n	5d4a <__sflush_r+0xca>
    5c8c:	6862      	ldr	r2, [r4, #4]
    5c8e:	2a00      	cmp	r2, #0
    5c90:	dc02      	bgt.n	5c98 <__sflush_r+0x18>
    5c92:	6c27      	ldr	r7, [r4, #64]	; 0x40
    5c94:	2f00      	cmp	r7, #0
    5c96:	dd1a      	ble.n	5cce <__sflush_r+0x4e>
    5c98:	6ae7      	ldr	r7, [r4, #44]	; 0x2c
    5c9a:	2f00      	cmp	r7, #0
    5c9c:	d017      	beq.n	5cce <__sflush_r+0x4e>
    5c9e:	2200      	movs	r2, #0
    5ca0:	682e      	ldr	r6, [r5, #0]
    5ca2:	602a      	str	r2, [r5, #0]
    5ca4:	2280      	movs	r2, #128	; 0x80
    5ca6:	0152      	lsls	r2, r2, #5
    5ca8:	401a      	ands	r2, r3
    5caa:	d001      	beq.n	5cb0 <__sflush_r+0x30>
    5cac:	6d62      	ldr	r2, [r4, #84]	; 0x54
    5cae:	e015      	b.n	5cdc <__sflush_r+0x5c>
    5cb0:	1c28      	adds	r0, r5, #0
    5cb2:	6a21      	ldr	r1, [r4, #32]
    5cb4:	2301      	movs	r3, #1
    5cb6:	47b8      	blx	r7
    5cb8:	1c02      	adds	r2, r0, #0
    5cba:	1c41      	adds	r1, r0, #1
    5cbc:	d10e      	bne.n	5cdc <__sflush_r+0x5c>
    5cbe:	682b      	ldr	r3, [r5, #0]
    5cc0:	2b00      	cmp	r3, #0
    5cc2:	d00b      	beq.n	5cdc <__sflush_r+0x5c>
    5cc4:	2b1d      	cmp	r3, #29
    5cc6:	d001      	beq.n	5ccc <__sflush_r+0x4c>
    5cc8:	2b16      	cmp	r3, #22
    5cca:	d102      	bne.n	5cd2 <__sflush_r+0x52>
    5ccc:	602e      	str	r6, [r5, #0]
    5cce:	2000      	movs	r0, #0
    5cd0:	e05e      	b.n	5d90 <__sflush_r+0x110>
    5cd2:	89a3      	ldrh	r3, [r4, #12]
    5cd4:	2140      	movs	r1, #64	; 0x40
    5cd6:	430b      	orrs	r3, r1
    5cd8:	81a3      	strh	r3, [r4, #12]
    5cda:	e059      	b.n	5d90 <__sflush_r+0x110>
    5cdc:	89a3      	ldrh	r3, [r4, #12]
    5cde:	075f      	lsls	r7, r3, #29
    5ce0:	d506      	bpl.n	5cf0 <__sflush_r+0x70>
    5ce2:	6861      	ldr	r1, [r4, #4]
    5ce4:	6b63      	ldr	r3, [r4, #52]	; 0x34
    5ce6:	1a52      	subs	r2, r2, r1
    5ce8:	2b00      	cmp	r3, #0
    5cea:	d001      	beq.n	5cf0 <__sflush_r+0x70>
    5cec:	6c27      	ldr	r7, [r4, #64]	; 0x40
    5cee:	1bd2      	subs	r2, r2, r7
    5cf0:	1c28      	adds	r0, r5, #0
    5cf2:	6a21      	ldr	r1, [r4, #32]
    5cf4:	2300      	movs	r3, #0
    5cf6:	6ae7      	ldr	r7, [r4, #44]	; 0x2c
    5cf8:	47b8      	blx	r7
    5cfa:	89a2      	ldrh	r2, [r4, #12]
    5cfc:	1c41      	adds	r1, r0, #1
    5cfe:	d106      	bne.n	5d0e <__sflush_r+0x8e>
    5d00:	682b      	ldr	r3, [r5, #0]
    5d02:	2b00      	cmp	r3, #0
    5d04:	d003      	beq.n	5d0e <__sflush_r+0x8e>
    5d06:	2b1d      	cmp	r3, #29
    5d08:	d001      	beq.n	5d0e <__sflush_r+0x8e>
    5d0a:	2b16      	cmp	r3, #22
    5d0c:	d119      	bne.n	5d42 <__sflush_r+0xc2>
    5d0e:	2300      	movs	r3, #0
    5d10:	6063      	str	r3, [r4, #4]
    5d12:	6923      	ldr	r3, [r4, #16]
    5d14:	6023      	str	r3, [r4, #0]
    5d16:	04d7      	lsls	r7, r2, #19
    5d18:	d505      	bpl.n	5d26 <__sflush_r+0xa6>
    5d1a:	1c41      	adds	r1, r0, #1
    5d1c:	d102      	bne.n	5d24 <__sflush_r+0xa4>
    5d1e:	682a      	ldr	r2, [r5, #0]
    5d20:	2a00      	cmp	r2, #0
    5d22:	d100      	bne.n	5d26 <__sflush_r+0xa6>
    5d24:	6560      	str	r0, [r4, #84]	; 0x54
    5d26:	6b61      	ldr	r1, [r4, #52]	; 0x34
    5d28:	602e      	str	r6, [r5, #0]
    5d2a:	2900      	cmp	r1, #0
    5d2c:	d0cf      	beq.n	5cce <__sflush_r+0x4e>
    5d2e:	1c23      	adds	r3, r4, #0
    5d30:	3344      	adds	r3, #68	; 0x44
    5d32:	4299      	cmp	r1, r3
    5d34:	d002      	beq.n	5d3c <__sflush_r+0xbc>
    5d36:	1c28      	adds	r0, r5, #0
    5d38:	f000 fc82 	bl	6640 <_free_r>
    5d3c:	2000      	movs	r0, #0
    5d3e:	6360      	str	r0, [r4, #52]	; 0x34
    5d40:	e026      	b.n	5d90 <__sflush_r+0x110>
    5d42:	2340      	movs	r3, #64	; 0x40
    5d44:	431a      	orrs	r2, r3
    5d46:	81a2      	strh	r2, [r4, #12]
    5d48:	e022      	b.n	5d90 <__sflush_r+0x110>
    5d4a:	6926      	ldr	r6, [r4, #16]
    5d4c:	2e00      	cmp	r6, #0
    5d4e:	d0be      	beq.n	5cce <__sflush_r+0x4e>
    5d50:	6827      	ldr	r7, [r4, #0]
    5d52:	2200      	movs	r2, #0
    5d54:	1bbf      	subs	r7, r7, r6
    5d56:	9701      	str	r7, [sp, #4]
    5d58:	6026      	str	r6, [r4, #0]
    5d5a:	0799      	lsls	r1, r3, #30
    5d5c:	d100      	bne.n	5d60 <__sflush_r+0xe0>
    5d5e:	6962      	ldr	r2, [r4, #20]
    5d60:	60a2      	str	r2, [r4, #8]
    5d62:	9f01      	ldr	r7, [sp, #4]
    5d64:	2f00      	cmp	r7, #0
    5d66:	ddb2      	ble.n	5cce <__sflush_r+0x4e>
    5d68:	1c28      	adds	r0, r5, #0
    5d6a:	6a21      	ldr	r1, [r4, #32]
    5d6c:	1c32      	adds	r2, r6, #0
    5d6e:	9b01      	ldr	r3, [sp, #4]
    5d70:	6aa7      	ldr	r7, [r4, #40]	; 0x28
    5d72:	47b8      	blx	r7
    5d74:	2800      	cmp	r0, #0
    5d76:	dc06      	bgt.n	5d86 <__sflush_r+0x106>
    5d78:	89a3      	ldrh	r3, [r4, #12]
    5d7a:	2240      	movs	r2, #64	; 0x40
    5d7c:	4313      	orrs	r3, r2
    5d7e:	2001      	movs	r0, #1
    5d80:	81a3      	strh	r3, [r4, #12]
    5d82:	4240      	negs	r0, r0
    5d84:	e004      	b.n	5d90 <__sflush_r+0x110>
    5d86:	9f01      	ldr	r7, [sp, #4]
    5d88:	1836      	adds	r6, r6, r0
    5d8a:	1a3f      	subs	r7, r7, r0
    5d8c:	9701      	str	r7, [sp, #4]
    5d8e:	e7e8      	b.n	5d62 <__sflush_r+0xe2>
    5d90:	bdfe      	pop	{r1, r2, r3, r4, r5, r6, r7, pc}
	...

00005d94 <_fflush_r>:
    5d94:	690a      	ldr	r2, [r1, #16]
    5d96:	b538      	push	{r3, r4, r5, lr}
    5d98:	1c05      	adds	r5, r0, #0
    5d9a:	1c0c      	adds	r4, r1, #0
    5d9c:	2a00      	cmp	r2, #0
    5d9e:	d101      	bne.n	5da4 <_fflush_r+0x10>
    5da0:	2000      	movs	r0, #0
    5da2:	e01c      	b.n	5dde <_fflush_r+0x4a>
    5da4:	2800      	cmp	r0, #0
    5da6:	d004      	beq.n	5db2 <_fflush_r+0x1e>
    5da8:	6983      	ldr	r3, [r0, #24]
    5daa:	2b00      	cmp	r3, #0
    5dac:	d101      	bne.n	5db2 <_fflush_r+0x1e>
    5dae:	f000 f871 	bl	5e94 <__sinit>
    5db2:	4b0b      	ldr	r3, [pc, #44]	; (5de0 <_fflush_r+0x4c>)
    5db4:	429c      	cmp	r4, r3
    5db6:	d101      	bne.n	5dbc <_fflush_r+0x28>
    5db8:	686c      	ldr	r4, [r5, #4]
    5dba:	e008      	b.n	5dce <_fflush_r+0x3a>
    5dbc:	4b09      	ldr	r3, [pc, #36]	; (5de4 <_fflush_r+0x50>)
    5dbe:	429c      	cmp	r4, r3
    5dc0:	d101      	bne.n	5dc6 <_fflush_r+0x32>
    5dc2:	68ac      	ldr	r4, [r5, #8]
    5dc4:	e003      	b.n	5dce <_fflush_r+0x3a>
    5dc6:	4b08      	ldr	r3, [pc, #32]	; (5de8 <_fflush_r+0x54>)
    5dc8:	429c      	cmp	r4, r3
    5dca:	d100      	bne.n	5dce <_fflush_r+0x3a>
    5dcc:	68ec      	ldr	r4, [r5, #12]
    5dce:	220c      	movs	r2, #12
    5dd0:	5ea3      	ldrsh	r3, [r4, r2]
    5dd2:	2b00      	cmp	r3, #0
    5dd4:	d0e4      	beq.n	5da0 <_fflush_r+0xc>
    5dd6:	1c28      	adds	r0, r5, #0
    5dd8:	1c21      	adds	r1, r4, #0
    5dda:	f7ff ff51 	bl	5c80 <__sflush_r>
    5dde:	bd38      	pop	{r3, r4, r5, pc}
    5de0:	00009d0c 	.word	0x00009d0c
    5de4:	00009d2c 	.word	0x00009d2c
    5de8:	00009d4c 	.word	0x00009d4c

00005dec <_cleanup_r>:
    5dec:	b5f8      	push	{r3, r4, r5, r6, r7, lr}
    5dee:	1c04      	adds	r4, r0, #0
    5df0:	1c07      	adds	r7, r0, #0
    5df2:	3448      	adds	r4, #72	; 0x48
    5df4:	2c00      	cmp	r4, #0
    5df6:	d012      	beq.n	5e1e <_cleanup_r+0x32>
    5df8:	68a5      	ldr	r5, [r4, #8]
    5dfa:	6866      	ldr	r6, [r4, #4]
    5dfc:	3e01      	subs	r6, #1
    5dfe:	d40c      	bmi.n	5e1a <_cleanup_r+0x2e>
    5e00:	89ab      	ldrh	r3, [r5, #12]
    5e02:	2b01      	cmp	r3, #1
    5e04:	d907      	bls.n	5e16 <_cleanup_r+0x2a>
    5e06:	220e      	movs	r2, #14
    5e08:	5eab      	ldrsh	r3, [r5, r2]
    5e0a:	3301      	adds	r3, #1
    5e0c:	d003      	beq.n	5e16 <_cleanup_r+0x2a>
    5e0e:	1c38      	adds	r0, r7, #0
    5e10:	1c29      	adds	r1, r5, #0
    5e12:	f7ff ffbf 	bl	5d94 <_fflush_r>
    5e16:	3568      	adds	r5, #104	; 0x68
    5e18:	e7f0      	b.n	5dfc <_cleanup_r+0x10>
    5e1a:	6824      	ldr	r4, [r4, #0]
    5e1c:	e7ea      	b.n	5df4 <_cleanup_r+0x8>
    5e1e:	bdf8      	pop	{r3, r4, r5, r6, r7, pc}

00005e20 <std.isra.0>:
    5e20:	2300      	movs	r3, #0
    5e22:	b510      	push	{r4, lr}
    5e24:	1c04      	adds	r4, r0, #0
    5e26:	6003      	str	r3, [r0, #0]
    5e28:	6043      	str	r3, [r0, #4]
    5e2a:	6083      	str	r3, [r0, #8]
    5e2c:	8181      	strh	r1, [r0, #12]
    5e2e:	6643      	str	r3, [r0, #100]	; 0x64
    5e30:	81c2      	strh	r2, [r0, #14]
    5e32:	6103      	str	r3, [r0, #16]
    5e34:	6143      	str	r3, [r0, #20]
    5e36:	6183      	str	r3, [r0, #24]
    5e38:	1c19      	adds	r1, r3, #0
    5e3a:	2208      	movs	r2, #8
    5e3c:	305c      	adds	r0, #92	; 0x5c
    5e3e:	f7fe f9b4 	bl	41aa <memset>
    5e42:	4b05      	ldr	r3, [pc, #20]	; (5e58 <std.isra.0+0x38>)
    5e44:	6224      	str	r4, [r4, #32]
    5e46:	6263      	str	r3, [r4, #36]	; 0x24
    5e48:	4b04      	ldr	r3, [pc, #16]	; (5e5c <std.isra.0+0x3c>)
    5e4a:	62a3      	str	r3, [r4, #40]	; 0x28
    5e4c:	4b04      	ldr	r3, [pc, #16]	; (5e60 <std.isra.0+0x40>)
    5e4e:	62e3      	str	r3, [r4, #44]	; 0x2c
    5e50:	4b04      	ldr	r3, [pc, #16]	; (5e64 <std.isra.0+0x44>)
    5e52:	6323      	str	r3, [r4, #48]	; 0x30
    5e54:	bd10      	pop	{r4, pc}
    5e56:	46c0      	nop			; (mov r8, r8)
    5e58:	0000679d 	.word	0x0000679d
    5e5c:	000067c5 	.word	0x000067c5
    5e60:	000067fd 	.word	0x000067fd
    5e64:	00006829 	.word	0x00006829

00005e68 <__sfmoreglue>:
    5e68:	b570      	push	{r4, r5, r6, lr}
    5e6a:	1e4b      	subs	r3, r1, #1
    5e6c:	2568      	movs	r5, #104	; 0x68
    5e6e:	435d      	muls	r5, r3
    5e70:	1c0e      	adds	r6, r1, #0
    5e72:	1c29      	adds	r1, r5, #0
    5e74:	3174      	adds	r1, #116	; 0x74
    5e76:	f000 fc2b 	bl	66d0 <_malloc_r>
    5e7a:	1e04      	subs	r4, r0, #0
    5e7c:	d008      	beq.n	5e90 <__sfmoreglue+0x28>
    5e7e:	2100      	movs	r1, #0
    5e80:	6001      	str	r1, [r0, #0]
    5e82:	6046      	str	r6, [r0, #4]
    5e84:	1c2a      	adds	r2, r5, #0
    5e86:	300c      	adds	r0, #12
    5e88:	60a0      	str	r0, [r4, #8]
    5e8a:	3268      	adds	r2, #104	; 0x68
    5e8c:	f7fe f98d 	bl	41aa <memset>
    5e90:	1c20      	adds	r0, r4, #0
    5e92:	bd70      	pop	{r4, r5, r6, pc}

00005e94 <__sinit>:
    5e94:	6983      	ldr	r3, [r0, #24]
    5e96:	b513      	push	{r0, r1, r4, lr}
    5e98:	1c04      	adds	r4, r0, #0
    5e9a:	2b00      	cmp	r3, #0
    5e9c:	d127      	bne.n	5eee <__sinit+0x5a>
    5e9e:	6483      	str	r3, [r0, #72]	; 0x48
    5ea0:	64c3      	str	r3, [r0, #76]	; 0x4c
    5ea2:	6503      	str	r3, [r0, #80]	; 0x50
    5ea4:	4b12      	ldr	r3, [pc, #72]	; (5ef0 <__sinit+0x5c>)
    5ea6:	4a13      	ldr	r2, [pc, #76]	; (5ef4 <__sinit+0x60>)
    5ea8:	681b      	ldr	r3, [r3, #0]
    5eaa:	6282      	str	r2, [r0, #40]	; 0x28
    5eac:	4298      	cmp	r0, r3
    5eae:	d101      	bne.n	5eb4 <__sinit+0x20>
    5eb0:	2301      	movs	r3, #1
    5eb2:	6183      	str	r3, [r0, #24]
    5eb4:	1c20      	adds	r0, r4, #0
    5eb6:	f000 f81f 	bl	5ef8 <__sfp>
    5eba:	6060      	str	r0, [r4, #4]
    5ebc:	1c20      	adds	r0, r4, #0
    5ebe:	f000 f81b 	bl	5ef8 <__sfp>
    5ec2:	60a0      	str	r0, [r4, #8]
    5ec4:	1c20      	adds	r0, r4, #0
    5ec6:	f000 f817 	bl	5ef8 <__sfp>
    5eca:	2104      	movs	r1, #4
    5ecc:	60e0      	str	r0, [r4, #12]
    5ece:	2200      	movs	r2, #0
    5ed0:	6860      	ldr	r0, [r4, #4]
    5ed2:	f7ff ffa5 	bl	5e20 <std.isra.0>
    5ed6:	68a0      	ldr	r0, [r4, #8]
    5ed8:	2109      	movs	r1, #9
    5eda:	2201      	movs	r2, #1
    5edc:	f7ff ffa0 	bl	5e20 <std.isra.0>
    5ee0:	68e0      	ldr	r0, [r4, #12]
    5ee2:	2112      	movs	r1, #18
    5ee4:	2202      	movs	r2, #2
    5ee6:	f7ff ff9b 	bl	5e20 <std.isra.0>
    5eea:	2301      	movs	r3, #1
    5eec:	61a3      	str	r3, [r4, #24]
    5eee:	bd13      	pop	{r0, r1, r4, pc}
    5ef0:	00009cb4 	.word	0x00009cb4
    5ef4:	00005ded 	.word	0x00005ded

00005ef8 <__sfp>:
    5ef8:	b5f8      	push	{r3, r4, r5, r6, r7, lr}
    5efa:	4b1d      	ldr	r3, [pc, #116]	; (5f70 <__sfp+0x78>)
    5efc:	1c07      	adds	r7, r0, #0
    5efe:	681e      	ldr	r6, [r3, #0]
    5f00:	69b2      	ldr	r2, [r6, #24]
    5f02:	2a00      	cmp	r2, #0
    5f04:	d102      	bne.n	5f0c <__sfp+0x14>
    5f06:	1c30      	adds	r0, r6, #0
    5f08:	f7ff ffc4 	bl	5e94 <__sinit>
    5f0c:	3648      	adds	r6, #72	; 0x48
    5f0e:	68b4      	ldr	r4, [r6, #8]
    5f10:	6873      	ldr	r3, [r6, #4]
    5f12:	3b01      	subs	r3, #1
    5f14:	d405      	bmi.n	5f22 <__sfp+0x2a>
    5f16:	220c      	movs	r2, #12
    5f18:	5ea5      	ldrsh	r5, [r4, r2]
    5f1a:	2d00      	cmp	r5, #0
    5f1c:	d010      	beq.n	5f40 <__sfp+0x48>
    5f1e:	3468      	adds	r4, #104	; 0x68
    5f20:	e7f7      	b.n	5f12 <__sfp+0x1a>
    5f22:	6833      	ldr	r3, [r6, #0]
    5f24:	2b00      	cmp	r3, #0
    5f26:	d106      	bne.n	5f36 <__sfp+0x3e>
    5f28:	1c38      	adds	r0, r7, #0
    5f2a:	2104      	movs	r1, #4
    5f2c:	f7ff ff9c 	bl	5e68 <__sfmoreglue>
    5f30:	6030      	str	r0, [r6, #0]
    5f32:	2800      	cmp	r0, #0
    5f34:	d001      	beq.n	5f3a <__sfp+0x42>
    5f36:	6836      	ldr	r6, [r6, #0]
    5f38:	e7e9      	b.n	5f0e <__sfp+0x16>
    5f3a:	230c      	movs	r3, #12
    5f3c:	603b      	str	r3, [r7, #0]
    5f3e:	e016      	b.n	5f6e <__sfp+0x76>
    5f40:	2301      	movs	r3, #1
    5f42:	425b      	negs	r3, r3
    5f44:	81e3      	strh	r3, [r4, #14]
    5f46:	1c20      	adds	r0, r4, #0
    5f48:	2301      	movs	r3, #1
    5f4a:	81a3      	strh	r3, [r4, #12]
    5f4c:	6665      	str	r5, [r4, #100]	; 0x64
    5f4e:	6025      	str	r5, [r4, #0]
    5f50:	60a5      	str	r5, [r4, #8]
    5f52:	6065      	str	r5, [r4, #4]
    5f54:	6125      	str	r5, [r4, #16]
    5f56:	6165      	str	r5, [r4, #20]
    5f58:	61a5      	str	r5, [r4, #24]
    5f5a:	305c      	adds	r0, #92	; 0x5c
    5f5c:	1c29      	adds	r1, r5, #0
    5f5e:	2208      	movs	r2, #8
    5f60:	f7fe f923 	bl	41aa <memset>
    5f64:	6365      	str	r5, [r4, #52]	; 0x34
    5f66:	63a5      	str	r5, [r4, #56]	; 0x38
    5f68:	64a5      	str	r5, [r4, #72]	; 0x48
    5f6a:	64e5      	str	r5, [r4, #76]	; 0x4c
    5f6c:	1c20      	adds	r0, r4, #0
    5f6e:	bdf8      	pop	{r3, r4, r5, r6, r7, pc}
    5f70:	00009cb4 	.word	0x00009cb4

00005f74 <_localeconv_r>:
    5f74:	4800      	ldr	r0, [pc, #0]	; (5f78 <_localeconv_r+0x4>)
    5f76:	4770      	bx	lr
    5f78:	20000074 	.word	0x20000074

00005f7c <__smakebuf_r>:
    5f7c:	b5f0      	push	{r4, r5, r6, r7, lr}
    5f7e:	898b      	ldrh	r3, [r1, #12]
    5f80:	b091      	sub	sp, #68	; 0x44
    5f82:	1c05      	adds	r5, r0, #0
    5f84:	1c0c      	adds	r4, r1, #0
    5f86:	079a      	lsls	r2, r3, #30
    5f88:	d425      	bmi.n	5fd6 <__smakebuf_r+0x5a>
    5f8a:	230e      	movs	r3, #14
    5f8c:	5ec9      	ldrsh	r1, [r1, r3]
    5f8e:	2900      	cmp	r1, #0
    5f90:	da06      	bge.n	5fa0 <__smakebuf_r+0x24>
    5f92:	89a7      	ldrh	r7, [r4, #12]
    5f94:	2380      	movs	r3, #128	; 0x80
    5f96:	401f      	ands	r7, r3
    5f98:	d00f      	beq.n	5fba <__smakebuf_r+0x3e>
    5f9a:	2700      	movs	r7, #0
    5f9c:	2640      	movs	r6, #64	; 0x40
    5f9e:	e00e      	b.n	5fbe <__smakebuf_r+0x42>
    5fa0:	aa01      	add	r2, sp, #4
    5fa2:	f000 fc75 	bl	6890 <_fstat_r>
    5fa6:	2800      	cmp	r0, #0
    5fa8:	dbf3      	blt.n	5f92 <__smakebuf_r+0x16>
    5faa:	9b02      	ldr	r3, [sp, #8]
    5fac:	27f0      	movs	r7, #240	; 0xf0
    5fae:	023f      	lsls	r7, r7, #8
    5fb0:	4a18      	ldr	r2, [pc, #96]	; (6014 <__smakebuf_r+0x98>)
    5fb2:	401f      	ands	r7, r3
    5fb4:	18bf      	adds	r7, r7, r2
    5fb6:	427b      	negs	r3, r7
    5fb8:	415f      	adcs	r7, r3
    5fba:	2680      	movs	r6, #128	; 0x80
    5fbc:	00f6      	lsls	r6, r6, #3
    5fbe:	1c28      	adds	r0, r5, #0
    5fc0:	1c31      	adds	r1, r6, #0
    5fc2:	f000 fb85 	bl	66d0 <_malloc_r>
    5fc6:	2800      	cmp	r0, #0
    5fc8:	d10c      	bne.n	5fe4 <__smakebuf_r+0x68>
    5fca:	89a3      	ldrh	r3, [r4, #12]
    5fcc:	059a      	lsls	r2, r3, #22
    5fce:	d41f      	bmi.n	6010 <__smakebuf_r+0x94>
    5fd0:	2202      	movs	r2, #2
    5fd2:	4313      	orrs	r3, r2
    5fd4:	81a3      	strh	r3, [r4, #12]
    5fd6:	1c23      	adds	r3, r4, #0
    5fd8:	3347      	adds	r3, #71	; 0x47
    5fda:	6023      	str	r3, [r4, #0]
    5fdc:	6123      	str	r3, [r4, #16]
    5fde:	2301      	movs	r3, #1
    5fe0:	6163      	str	r3, [r4, #20]
    5fe2:	e015      	b.n	6010 <__smakebuf_r+0x94>
    5fe4:	4b0c      	ldr	r3, [pc, #48]	; (6018 <__smakebuf_r+0x9c>)
    5fe6:	2280      	movs	r2, #128	; 0x80
    5fe8:	62ab      	str	r3, [r5, #40]	; 0x28
    5fea:	89a3      	ldrh	r3, [r4, #12]
    5fec:	6020      	str	r0, [r4, #0]
    5fee:	4313      	orrs	r3, r2
    5ff0:	81a3      	strh	r3, [r4, #12]
    5ff2:	6120      	str	r0, [r4, #16]
    5ff4:	6166      	str	r6, [r4, #20]
    5ff6:	2f00      	cmp	r7, #0
    5ff8:	d00a      	beq.n	6010 <__smakebuf_r+0x94>
    5ffa:	230e      	movs	r3, #14
    5ffc:	5ee1      	ldrsh	r1, [r4, r3]
    5ffe:	1c28      	adds	r0, r5, #0
    6000:	f000 fc58 	bl	68b4 <_isatty_r>
    6004:	2800      	cmp	r0, #0
    6006:	d003      	beq.n	6010 <__smakebuf_r+0x94>
    6008:	89a3      	ldrh	r3, [r4, #12]
    600a:	2201      	movs	r2, #1
    600c:	4313      	orrs	r3, r2
    600e:	81a3      	strh	r3, [r4, #12]
    6010:	b011      	add	sp, #68	; 0x44
    6012:	bdf0      	pop	{r4, r5, r6, r7, pc}
    6014:	ffffe000 	.word	0xffffe000
    6018:	00005ded 	.word	0x00005ded

0000601c <malloc>:
    601c:	b508      	push	{r3, lr}
    601e:	4b03      	ldr	r3, [pc, #12]	; (602c <malloc+0x10>)
    6020:	1c01      	adds	r1, r0, #0
    6022:	6818      	ldr	r0, [r3, #0]
    6024:	f000 fb54 	bl	66d0 <_malloc_r>
    6028:	bd08      	pop	{r3, pc}
    602a:	46c0      	nop			; (mov r8, r8)
    602c:	20000070 	.word	0x20000070

00006030 <memchr>:
    6030:	b2c9      	uxtb	r1, r1
    6032:	1882      	adds	r2, r0, r2
    6034:	4290      	cmp	r0, r2
    6036:	d004      	beq.n	6042 <memchr+0x12>
    6038:	7803      	ldrb	r3, [r0, #0]
    603a:	428b      	cmp	r3, r1
    603c:	d002      	beq.n	6044 <memchr+0x14>
    603e:	3001      	adds	r0, #1
    6040:	e7f8      	b.n	6034 <memchr+0x4>
    6042:	2000      	movs	r0, #0
    6044:	4770      	bx	lr

00006046 <_Balloc>:
    6046:	b570      	push	{r4, r5, r6, lr}
    6048:	6a45      	ldr	r5, [r0, #36]	; 0x24
    604a:	1c04      	adds	r4, r0, #0
    604c:	1c0e      	adds	r6, r1, #0
    604e:	2d00      	cmp	r5, #0
    6050:	d107      	bne.n	6062 <_Balloc+0x1c>
    6052:	2010      	movs	r0, #16
    6054:	f7ff ffe2 	bl	601c <malloc>
    6058:	6260      	str	r0, [r4, #36]	; 0x24
    605a:	6045      	str	r5, [r0, #4]
    605c:	6085      	str	r5, [r0, #8]
    605e:	6005      	str	r5, [r0, #0]
    6060:	60c5      	str	r5, [r0, #12]
    6062:	6a65      	ldr	r5, [r4, #36]	; 0x24
    6064:	68eb      	ldr	r3, [r5, #12]
    6066:	2b00      	cmp	r3, #0
    6068:	d009      	beq.n	607e <_Balloc+0x38>
    606a:	6a63      	ldr	r3, [r4, #36]	; 0x24
    606c:	00b2      	lsls	r2, r6, #2
    606e:	68db      	ldr	r3, [r3, #12]
    6070:	189a      	adds	r2, r3, r2
    6072:	6810      	ldr	r0, [r2, #0]
    6074:	2800      	cmp	r0, #0
    6076:	d00e      	beq.n	6096 <_Balloc+0x50>
    6078:	6803      	ldr	r3, [r0, #0]
    607a:	6013      	str	r3, [r2, #0]
    607c:	e017      	b.n	60ae <_Balloc+0x68>
    607e:	1c20      	adds	r0, r4, #0
    6080:	2104      	movs	r1, #4
    6082:	2221      	movs	r2, #33	; 0x21
    6084:	f000 face 	bl	6624 <_calloc_r>
    6088:	6a63      	ldr	r3, [r4, #36]	; 0x24
    608a:	60e8      	str	r0, [r5, #12]
    608c:	68db      	ldr	r3, [r3, #12]
    608e:	2b00      	cmp	r3, #0
    6090:	d1eb      	bne.n	606a <_Balloc+0x24>
    6092:	2000      	movs	r0, #0
    6094:	e00e      	b.n	60b4 <_Balloc+0x6e>
    6096:	2101      	movs	r1, #1
    6098:	1c0d      	adds	r5, r1, #0
    609a:	40b5      	lsls	r5, r6
    609c:	1d6a      	adds	r2, r5, #5
    609e:	0092      	lsls	r2, r2, #2
    60a0:	1c20      	adds	r0, r4, #0
    60a2:	f000 fabf 	bl	6624 <_calloc_r>
    60a6:	2800      	cmp	r0, #0
    60a8:	d0f3      	beq.n	6092 <_Balloc+0x4c>
    60aa:	6046      	str	r6, [r0, #4]
    60ac:	6085      	str	r5, [r0, #8]
    60ae:	2200      	movs	r2, #0
    60b0:	6102      	str	r2, [r0, #16]
    60b2:	60c2      	str	r2, [r0, #12]
    60b4:	bd70      	pop	{r4, r5, r6, pc}

000060b6 <_Bfree>:
    60b6:	b570      	push	{r4, r5, r6, lr}
    60b8:	6a44      	ldr	r4, [r0, #36]	; 0x24
    60ba:	1c06      	adds	r6, r0, #0
    60bc:	1c0d      	adds	r5, r1, #0
    60be:	2c00      	cmp	r4, #0
    60c0:	d107      	bne.n	60d2 <_Bfree+0x1c>
    60c2:	2010      	movs	r0, #16
    60c4:	f7ff ffaa 	bl	601c <malloc>
    60c8:	6270      	str	r0, [r6, #36]	; 0x24
    60ca:	6044      	str	r4, [r0, #4]
    60cc:	6084      	str	r4, [r0, #8]
    60ce:	6004      	str	r4, [r0, #0]
    60d0:	60c4      	str	r4, [r0, #12]
    60d2:	2d00      	cmp	r5, #0
    60d4:	d007      	beq.n	60e6 <_Bfree+0x30>
    60d6:	6a72      	ldr	r2, [r6, #36]	; 0x24
    60d8:	6869      	ldr	r1, [r5, #4]
    60da:	68d2      	ldr	r2, [r2, #12]
    60dc:	008b      	lsls	r3, r1, #2
    60de:	18d3      	adds	r3, r2, r3
    60e0:	681a      	ldr	r2, [r3, #0]
    60e2:	602a      	str	r2, [r5, #0]
    60e4:	601d      	str	r5, [r3, #0]
    60e6:	bd70      	pop	{r4, r5, r6, pc}

000060e8 <__multadd>:
    60e8:	b5f7      	push	{r0, r1, r2, r4, r5, r6, r7, lr}
    60ea:	1c0c      	adds	r4, r1, #0
    60ec:	1c1e      	adds	r6, r3, #0
    60ee:	690d      	ldr	r5, [r1, #16]
    60f0:	1c07      	adds	r7, r0, #0
    60f2:	3114      	adds	r1, #20
    60f4:	2300      	movs	r3, #0
    60f6:	6808      	ldr	r0, [r1, #0]
    60f8:	3301      	adds	r3, #1
    60fa:	b280      	uxth	r0, r0
    60fc:	4350      	muls	r0, r2
    60fe:	1980      	adds	r0, r0, r6
    6100:	4684      	mov	ip, r0
    6102:	0c06      	lsrs	r6, r0, #16
    6104:	6808      	ldr	r0, [r1, #0]
    6106:	0c00      	lsrs	r0, r0, #16
    6108:	4350      	muls	r0, r2
    610a:	1830      	adds	r0, r6, r0
    610c:	0c06      	lsrs	r6, r0, #16
    610e:	0400      	lsls	r0, r0, #16
    6110:	9001      	str	r0, [sp, #4]
    6112:	4660      	mov	r0, ip
    6114:	b280      	uxth	r0, r0
    6116:	4684      	mov	ip, r0
    6118:	9801      	ldr	r0, [sp, #4]
    611a:	4484      	add	ip, r0
    611c:	4660      	mov	r0, ip
    611e:	c101      	stmia	r1!, {r0}
    6120:	42ab      	cmp	r3, r5
    6122:	dbe8      	blt.n	60f6 <__multadd+0xe>
    6124:	2e00      	cmp	r6, #0
    6126:	d01b      	beq.n	6160 <__multadd+0x78>
    6128:	68a3      	ldr	r3, [r4, #8]
    612a:	429d      	cmp	r5, r3
    612c:	db12      	blt.n	6154 <__multadd+0x6c>
    612e:	6861      	ldr	r1, [r4, #4]
    6130:	1c38      	adds	r0, r7, #0
    6132:	3101      	adds	r1, #1
    6134:	f7ff ff87 	bl	6046 <_Balloc>
    6138:	6922      	ldr	r2, [r4, #16]
    613a:	1c21      	adds	r1, r4, #0
    613c:	3202      	adds	r2, #2
    613e:	9001      	str	r0, [sp, #4]
    6140:	310c      	adds	r1, #12
    6142:	0092      	lsls	r2, r2, #2
    6144:	300c      	adds	r0, #12
    6146:	f7fe f827 	bl	4198 <memcpy>
    614a:	1c21      	adds	r1, r4, #0
    614c:	1c38      	adds	r0, r7, #0
    614e:	f7ff ffb2 	bl	60b6 <_Bfree>
    6152:	9c01      	ldr	r4, [sp, #4]
    6154:	1d2b      	adds	r3, r5, #4
    6156:	009b      	lsls	r3, r3, #2
    6158:	18e3      	adds	r3, r4, r3
    615a:	3501      	adds	r5, #1
    615c:	605e      	str	r6, [r3, #4]
    615e:	6125      	str	r5, [r4, #16]
    6160:	1c20      	adds	r0, r4, #0
    6162:	bdfe      	pop	{r1, r2, r3, r4, r5, r6, r7, pc}

00006164 <__hi0bits>:
    6164:	2200      	movs	r2, #0
    6166:	1c03      	adds	r3, r0, #0
    6168:	0c01      	lsrs	r1, r0, #16
    616a:	4291      	cmp	r1, r2
    616c:	d101      	bne.n	6172 <__hi0bits+0xe>
    616e:	0403      	lsls	r3, r0, #16
    6170:	2210      	movs	r2, #16
    6172:	0e19      	lsrs	r1, r3, #24
    6174:	d101      	bne.n	617a <__hi0bits+0x16>
    6176:	3208      	adds	r2, #8
    6178:	021b      	lsls	r3, r3, #8
    617a:	0f19      	lsrs	r1, r3, #28
    617c:	d101      	bne.n	6182 <__hi0bits+0x1e>
    617e:	3204      	adds	r2, #4
    6180:	011b      	lsls	r3, r3, #4
    6182:	0f99      	lsrs	r1, r3, #30
    6184:	d101      	bne.n	618a <__hi0bits+0x26>
    6186:	3202      	adds	r2, #2
    6188:	009b      	lsls	r3, r3, #2
    618a:	2b00      	cmp	r3, #0
    618c:	db04      	blt.n	6198 <__hi0bits+0x34>
    618e:	2020      	movs	r0, #32
    6190:	0059      	lsls	r1, r3, #1
    6192:	d502      	bpl.n	619a <__hi0bits+0x36>
    6194:	1c50      	adds	r0, r2, #1
    6196:	e000      	b.n	619a <__hi0bits+0x36>
    6198:	1c10      	adds	r0, r2, #0
    619a:	4770      	bx	lr

0000619c <__lo0bits>:
    619c:	6803      	ldr	r3, [r0, #0]
    619e:	2207      	movs	r2, #7
    61a0:	1c01      	adds	r1, r0, #0
    61a2:	401a      	ands	r2, r3
    61a4:	d00b      	beq.n	61be <__lo0bits+0x22>
    61a6:	2201      	movs	r2, #1
    61a8:	2000      	movs	r0, #0
    61aa:	4213      	tst	r3, r2
    61ac:	d122      	bne.n	61f4 <__lo0bits+0x58>
    61ae:	2002      	movs	r0, #2
    61b0:	4203      	tst	r3, r0
    61b2:	d001      	beq.n	61b8 <__lo0bits+0x1c>
    61b4:	40d3      	lsrs	r3, r2
    61b6:	e01b      	b.n	61f0 <__lo0bits+0x54>
    61b8:	089b      	lsrs	r3, r3, #2
    61ba:	600b      	str	r3, [r1, #0]
    61bc:	e01a      	b.n	61f4 <__lo0bits+0x58>
    61be:	b298      	uxth	r0, r3
    61c0:	2800      	cmp	r0, #0
    61c2:	d101      	bne.n	61c8 <__lo0bits+0x2c>
    61c4:	0c1b      	lsrs	r3, r3, #16
    61c6:	2210      	movs	r2, #16
    61c8:	b2d8      	uxtb	r0, r3
    61ca:	2800      	cmp	r0, #0
    61cc:	d101      	bne.n	61d2 <__lo0bits+0x36>
    61ce:	3208      	adds	r2, #8
    61d0:	0a1b      	lsrs	r3, r3, #8
    61d2:	0718      	lsls	r0, r3, #28
    61d4:	d101      	bne.n	61da <__lo0bits+0x3e>
    61d6:	3204      	adds	r2, #4
    61d8:	091b      	lsrs	r3, r3, #4
    61da:	0798      	lsls	r0, r3, #30
    61dc:	d101      	bne.n	61e2 <__lo0bits+0x46>
    61de:	3202      	adds	r2, #2
    61e0:	089b      	lsrs	r3, r3, #2
    61e2:	07d8      	lsls	r0, r3, #31
    61e4:	d404      	bmi.n	61f0 <__lo0bits+0x54>
    61e6:	085b      	lsrs	r3, r3, #1
    61e8:	2020      	movs	r0, #32
    61ea:	2b00      	cmp	r3, #0
    61ec:	d002      	beq.n	61f4 <__lo0bits+0x58>
    61ee:	3201      	adds	r2, #1
    61f0:	600b      	str	r3, [r1, #0]
    61f2:	1c10      	adds	r0, r2, #0
    61f4:	4770      	bx	lr

000061f6 <__i2b>:
    61f6:	b510      	push	{r4, lr}
    61f8:	1c0c      	adds	r4, r1, #0
    61fa:	2101      	movs	r1, #1
    61fc:	f7ff ff23 	bl	6046 <_Balloc>
    6200:	2301      	movs	r3, #1
    6202:	6144      	str	r4, [r0, #20]
    6204:	6103      	str	r3, [r0, #16]
    6206:	bd10      	pop	{r4, pc}

00006208 <__multiply>:
    6208:	b5f0      	push	{r4, r5, r6, r7, lr}
    620a:	1c0c      	adds	r4, r1, #0
    620c:	1c15      	adds	r5, r2, #0
    620e:	6909      	ldr	r1, [r1, #16]
    6210:	6912      	ldr	r2, [r2, #16]
    6212:	b08b      	sub	sp, #44	; 0x2c
    6214:	4291      	cmp	r1, r2
    6216:	da02      	bge.n	621e <__multiply+0x16>
    6218:	1c23      	adds	r3, r4, #0
    621a:	1c2c      	adds	r4, r5, #0
    621c:	1c1d      	adds	r5, r3, #0
    621e:	6927      	ldr	r7, [r4, #16]
    6220:	692e      	ldr	r6, [r5, #16]
    6222:	68a2      	ldr	r2, [r4, #8]
    6224:	19bb      	adds	r3, r7, r6
    6226:	6861      	ldr	r1, [r4, #4]
    6228:	9302      	str	r3, [sp, #8]
    622a:	4293      	cmp	r3, r2
    622c:	dd00      	ble.n	6230 <__multiply+0x28>
    622e:	3101      	adds	r1, #1
    6230:	f7ff ff09 	bl	6046 <_Balloc>
    6234:	1c03      	adds	r3, r0, #0
    6236:	9003      	str	r0, [sp, #12]
    6238:	9802      	ldr	r0, [sp, #8]
    623a:	3314      	adds	r3, #20
    623c:	0082      	lsls	r2, r0, #2
    623e:	189a      	adds	r2, r3, r2
    6240:	1c19      	adds	r1, r3, #0
    6242:	4291      	cmp	r1, r2
    6244:	d202      	bcs.n	624c <__multiply+0x44>
    6246:	2000      	movs	r0, #0
    6248:	c101      	stmia	r1!, {r0}
    624a:	e7fa      	b.n	6242 <__multiply+0x3a>
    624c:	3514      	adds	r5, #20
    624e:	3414      	adds	r4, #20
    6250:	00bf      	lsls	r7, r7, #2
    6252:	46ac      	mov	ip, r5
    6254:	00b6      	lsls	r6, r6, #2
    6256:	19e7      	adds	r7, r4, r7
    6258:	4466      	add	r6, ip
    625a:	9404      	str	r4, [sp, #16]
    625c:	9707      	str	r7, [sp, #28]
    625e:	9609      	str	r6, [sp, #36]	; 0x24
    6260:	9e09      	ldr	r6, [sp, #36]	; 0x24
    6262:	45b4      	cmp	ip, r6
    6264:	d256      	bcs.n	6314 <__multiply+0x10c>
    6266:	4665      	mov	r5, ip
    6268:	882d      	ldrh	r5, [r5, #0]
    626a:	9505      	str	r5, [sp, #20]
    626c:	2d00      	cmp	r5, #0
    626e:	d01f      	beq.n	62b0 <__multiply+0xa8>
    6270:	9c04      	ldr	r4, [sp, #16]
    6272:	1c19      	adds	r1, r3, #0
    6274:	2000      	movs	r0, #0
    6276:	680f      	ldr	r7, [r1, #0]
    6278:	cc40      	ldmia	r4!, {r6}
    627a:	b2bf      	uxth	r7, r7
    627c:	9d05      	ldr	r5, [sp, #20]
    627e:	9706      	str	r7, [sp, #24]
    6280:	b2b7      	uxth	r7, r6
    6282:	436f      	muls	r7, r5
    6284:	9d06      	ldr	r5, [sp, #24]
    6286:	0c36      	lsrs	r6, r6, #16
    6288:	19ef      	adds	r7, r5, r7
    628a:	183f      	adds	r7, r7, r0
    628c:	6808      	ldr	r0, [r1, #0]
    628e:	9108      	str	r1, [sp, #32]
    6290:	0c05      	lsrs	r5, r0, #16
    6292:	9805      	ldr	r0, [sp, #20]
    6294:	4346      	muls	r6, r0
    6296:	0c38      	lsrs	r0, r7, #16
    6298:	19ad      	adds	r5, r5, r6
    629a:	182d      	adds	r5, r5, r0
    629c:	0c28      	lsrs	r0, r5, #16
    629e:	b2bf      	uxth	r7, r7
    62a0:	042d      	lsls	r5, r5, #16
    62a2:	433d      	orrs	r5, r7
    62a4:	c120      	stmia	r1!, {r5}
    62a6:	9d07      	ldr	r5, [sp, #28]
    62a8:	42ac      	cmp	r4, r5
    62aa:	d3e4      	bcc.n	6276 <__multiply+0x6e>
    62ac:	9e08      	ldr	r6, [sp, #32]
    62ae:	6070      	str	r0, [r6, #4]
    62b0:	4667      	mov	r7, ip
    62b2:	887d      	ldrh	r5, [r7, #2]
    62b4:	2d00      	cmp	r5, #0
    62b6:	d022      	beq.n	62fe <__multiply+0xf6>
    62b8:	2600      	movs	r6, #0
    62ba:	6818      	ldr	r0, [r3, #0]
    62bc:	9c04      	ldr	r4, [sp, #16]
    62be:	1c19      	adds	r1, r3, #0
    62c0:	9601      	str	r6, [sp, #4]
    62c2:	8827      	ldrh	r7, [r4, #0]
    62c4:	b280      	uxth	r0, r0
    62c6:	436f      	muls	r7, r5
    62c8:	9706      	str	r7, [sp, #24]
    62ca:	9e06      	ldr	r6, [sp, #24]
    62cc:	884f      	ldrh	r7, [r1, #2]
    62ce:	9105      	str	r1, [sp, #20]
    62d0:	19f6      	adds	r6, r6, r7
    62d2:	9f01      	ldr	r7, [sp, #4]
    62d4:	19f7      	adds	r7, r6, r7
    62d6:	9706      	str	r7, [sp, #24]
    62d8:	043f      	lsls	r7, r7, #16
    62da:	4338      	orrs	r0, r7
    62dc:	6008      	str	r0, [r1, #0]
    62de:	cc01      	ldmia	r4!, {r0}
    62e0:	888f      	ldrh	r7, [r1, #4]
    62e2:	0c00      	lsrs	r0, r0, #16
    62e4:	4368      	muls	r0, r5
    62e6:	19c0      	adds	r0, r0, r7
    62e8:	9f06      	ldr	r7, [sp, #24]
    62ea:	3104      	adds	r1, #4
    62ec:	0c3e      	lsrs	r6, r7, #16
    62ee:	1980      	adds	r0, r0, r6
    62f0:	9f07      	ldr	r7, [sp, #28]
    62f2:	0c06      	lsrs	r6, r0, #16
    62f4:	9601      	str	r6, [sp, #4]
    62f6:	42a7      	cmp	r7, r4
    62f8:	d8e3      	bhi.n	62c2 <__multiply+0xba>
    62fa:	9905      	ldr	r1, [sp, #20]
    62fc:	6048      	str	r0, [r1, #4]
    62fe:	2504      	movs	r5, #4
    6300:	44ac      	add	ip, r5
    6302:	195b      	adds	r3, r3, r5
    6304:	e7ac      	b.n	6260 <__multiply+0x58>
    6306:	3a04      	subs	r2, #4
    6308:	6810      	ldr	r0, [r2, #0]
    630a:	2800      	cmp	r0, #0
    630c:	d105      	bne.n	631a <__multiply+0x112>
    630e:	9f02      	ldr	r7, [sp, #8]
    6310:	3f01      	subs	r7, #1
    6312:	9702      	str	r7, [sp, #8]
    6314:	9d02      	ldr	r5, [sp, #8]
    6316:	2d00      	cmp	r5, #0
    6318:	dcf5      	bgt.n	6306 <__multiply+0xfe>
    631a:	9f03      	ldr	r7, [sp, #12]
    631c:	9e02      	ldr	r6, [sp, #8]
    631e:	1c38      	adds	r0, r7, #0
    6320:	613e      	str	r6, [r7, #16]
    6322:	b00b      	add	sp, #44	; 0x2c
    6324:	bdf0      	pop	{r4, r5, r6, r7, pc}
	...

00006328 <__pow5mult>:
    6328:	2303      	movs	r3, #3
    632a:	b5f7      	push	{r0, r1, r2, r4, r5, r6, r7, lr}
    632c:	4013      	ands	r3, r2
    632e:	1c05      	adds	r5, r0, #0
    6330:	1c0e      	adds	r6, r1, #0
    6332:	1c14      	adds	r4, r2, #0
    6334:	2b00      	cmp	r3, #0
    6336:	d007      	beq.n	6348 <__pow5mult+0x20>
    6338:	4a22      	ldr	r2, [pc, #136]	; (63c4 <__pow5mult+0x9c>)
    633a:	3b01      	subs	r3, #1
    633c:	009b      	lsls	r3, r3, #2
    633e:	589a      	ldr	r2, [r3, r2]
    6340:	2300      	movs	r3, #0
    6342:	f7ff fed1 	bl	60e8 <__multadd>
    6346:	1c06      	adds	r6, r0, #0
    6348:	10a4      	asrs	r4, r4, #2
    634a:	9401      	str	r4, [sp, #4]
    634c:	d037      	beq.n	63be <__pow5mult+0x96>
    634e:	6a6c      	ldr	r4, [r5, #36]	; 0x24
    6350:	2c00      	cmp	r4, #0
    6352:	d107      	bne.n	6364 <__pow5mult+0x3c>
    6354:	2010      	movs	r0, #16
    6356:	f7ff fe61 	bl	601c <malloc>
    635a:	6268      	str	r0, [r5, #36]	; 0x24
    635c:	6044      	str	r4, [r0, #4]
    635e:	6084      	str	r4, [r0, #8]
    6360:	6004      	str	r4, [r0, #0]
    6362:	60c4      	str	r4, [r0, #12]
    6364:	6a6f      	ldr	r7, [r5, #36]	; 0x24
    6366:	68bc      	ldr	r4, [r7, #8]
    6368:	2c00      	cmp	r4, #0
    636a:	d110      	bne.n	638e <__pow5mult+0x66>
    636c:	1c28      	adds	r0, r5, #0
    636e:	4916      	ldr	r1, [pc, #88]	; (63c8 <__pow5mult+0xa0>)
    6370:	f7ff ff41 	bl	61f6 <__i2b>
    6374:	2300      	movs	r3, #0
    6376:	60b8      	str	r0, [r7, #8]
    6378:	1c04      	adds	r4, r0, #0
    637a:	6003      	str	r3, [r0, #0]
    637c:	e007      	b.n	638e <__pow5mult+0x66>
    637e:	9b01      	ldr	r3, [sp, #4]
    6380:	105b      	asrs	r3, r3, #1
    6382:	9301      	str	r3, [sp, #4]
    6384:	d01b      	beq.n	63be <__pow5mult+0x96>
    6386:	6820      	ldr	r0, [r4, #0]
    6388:	2800      	cmp	r0, #0
    638a:	d00f      	beq.n	63ac <__pow5mult+0x84>
    638c:	1c04      	adds	r4, r0, #0
    638e:	9b01      	ldr	r3, [sp, #4]
    6390:	07db      	lsls	r3, r3, #31
    6392:	d5f4      	bpl.n	637e <__pow5mult+0x56>
    6394:	1c31      	adds	r1, r6, #0
    6396:	1c22      	adds	r2, r4, #0
    6398:	1c28      	adds	r0, r5, #0
    639a:	f7ff ff35 	bl	6208 <__multiply>
    639e:	1c31      	adds	r1, r6, #0
    63a0:	1c07      	adds	r7, r0, #0
    63a2:	1c28      	adds	r0, r5, #0
    63a4:	f7ff fe87 	bl	60b6 <_Bfree>
    63a8:	1c3e      	adds	r6, r7, #0
    63aa:	e7e8      	b.n	637e <__pow5mult+0x56>
    63ac:	1c28      	adds	r0, r5, #0
    63ae:	1c21      	adds	r1, r4, #0
    63b0:	1c22      	adds	r2, r4, #0
    63b2:	f7ff ff29 	bl	6208 <__multiply>
    63b6:	2300      	movs	r3, #0
    63b8:	6020      	str	r0, [r4, #0]
    63ba:	6003      	str	r3, [r0, #0]
    63bc:	e7e6      	b.n	638c <__pow5mult+0x64>
    63be:	1c30      	adds	r0, r6, #0
    63c0:	bdfe      	pop	{r1, r2, r3, r4, r5, r6, r7, pc}
    63c2:	46c0      	nop			; (mov r8, r8)
    63c4:	00009e68 	.word	0x00009e68
    63c8:	00000271 	.word	0x00000271

000063cc <__lshift>:
    63cc:	b5f0      	push	{r4, r5, r6, r7, lr}
    63ce:	1c0c      	adds	r4, r1, #0
    63d0:	b085      	sub	sp, #20
    63d2:	9003      	str	r0, [sp, #12]
    63d4:	6920      	ldr	r0, [r4, #16]
    63d6:	1155      	asrs	r5, r2, #5
    63d8:	1828      	adds	r0, r5, r0
    63da:	9002      	str	r0, [sp, #8]
    63dc:	6849      	ldr	r1, [r1, #4]
    63de:	3001      	adds	r0, #1
    63e0:	68a3      	ldr	r3, [r4, #8]
    63e2:	1c17      	adds	r7, r2, #0
    63e4:	9000      	str	r0, [sp, #0]
    63e6:	9a00      	ldr	r2, [sp, #0]
    63e8:	429a      	cmp	r2, r3
    63ea:	dd02      	ble.n	63f2 <__lshift+0x26>
    63ec:	3101      	adds	r1, #1
    63ee:	005b      	lsls	r3, r3, #1
    63f0:	e7f9      	b.n	63e6 <__lshift+0x1a>
    63f2:	9803      	ldr	r0, [sp, #12]
    63f4:	f7ff fe27 	bl	6046 <_Balloc>
    63f8:	1c02      	adds	r2, r0, #0
    63fa:	1c06      	adds	r6, r0, #0
    63fc:	3214      	adds	r2, #20
    63fe:	2300      	movs	r3, #0
    6400:	42ab      	cmp	r3, r5
    6402:	da04      	bge.n	640e <__lshift+0x42>
    6404:	0099      	lsls	r1, r3, #2
    6406:	2000      	movs	r0, #0
    6408:	5050      	str	r0, [r2, r1]
    640a:	3301      	adds	r3, #1
    640c:	e7f8      	b.n	6400 <__lshift+0x34>
    640e:	43eb      	mvns	r3, r5
    6410:	17db      	asrs	r3, r3, #31
    6412:	401d      	ands	r5, r3
    6414:	00ad      	lsls	r5, r5, #2
    6416:	6920      	ldr	r0, [r4, #16]
    6418:	1955      	adds	r5, r2, r5
    641a:	1c22      	adds	r2, r4, #0
    641c:	3214      	adds	r2, #20
    641e:	0083      	lsls	r3, r0, #2
    6420:	189b      	adds	r3, r3, r2
    6422:	469c      	mov	ip, r3
    6424:	231f      	movs	r3, #31
    6426:	401f      	ands	r7, r3
    6428:	d014      	beq.n	6454 <__lshift+0x88>
    642a:	2320      	movs	r3, #32
    642c:	1bdb      	subs	r3, r3, r7
    642e:	9301      	str	r3, [sp, #4]
    6430:	2300      	movs	r3, #0
    6432:	6810      	ldr	r0, [r2, #0]
    6434:	1c29      	adds	r1, r5, #0
    6436:	40b8      	lsls	r0, r7
    6438:	4303      	orrs	r3, r0
    643a:	c508      	stmia	r5!, {r3}
    643c:	ca08      	ldmia	r2!, {r3}
    643e:	9801      	ldr	r0, [sp, #4]
    6440:	40c3      	lsrs	r3, r0
    6442:	4594      	cmp	ip, r2
    6444:	d8f5      	bhi.n	6432 <__lshift+0x66>
    6446:	604b      	str	r3, [r1, #4]
    6448:	2b00      	cmp	r3, #0
    644a:	d007      	beq.n	645c <__lshift+0x90>
    644c:	9902      	ldr	r1, [sp, #8]
    644e:	3102      	adds	r1, #2
    6450:	9100      	str	r1, [sp, #0]
    6452:	e003      	b.n	645c <__lshift+0x90>
    6454:	ca08      	ldmia	r2!, {r3}
    6456:	c508      	stmia	r5!, {r3}
    6458:	4594      	cmp	ip, r2
    645a:	d8fb      	bhi.n	6454 <__lshift+0x88>
    645c:	9b00      	ldr	r3, [sp, #0]
    645e:	9803      	ldr	r0, [sp, #12]
    6460:	3b01      	subs	r3, #1
    6462:	6133      	str	r3, [r6, #16]
    6464:	1c21      	adds	r1, r4, #0
    6466:	f7ff fe26 	bl	60b6 <_Bfree>
    646a:	1c30      	adds	r0, r6, #0
    646c:	b005      	add	sp, #20
    646e:	bdf0      	pop	{r4, r5, r6, r7, pc}

00006470 <__mcmp>:
    6470:	b510      	push	{r4, lr}
    6472:	6902      	ldr	r2, [r0, #16]
    6474:	690c      	ldr	r4, [r1, #16]
    6476:	1c03      	adds	r3, r0, #0
    6478:	1b10      	subs	r0, r2, r4
    647a:	d113      	bne.n	64a4 <__mcmp+0x34>
    647c:	1c1a      	adds	r2, r3, #0
    647e:	00a0      	lsls	r0, r4, #2
    6480:	3214      	adds	r2, #20
    6482:	3114      	adds	r1, #20
    6484:	1813      	adds	r3, r2, r0
    6486:	1809      	adds	r1, r1, r0
    6488:	3b04      	subs	r3, #4
    648a:	3904      	subs	r1, #4
    648c:	681c      	ldr	r4, [r3, #0]
    648e:	6808      	ldr	r0, [r1, #0]
    6490:	4284      	cmp	r4, r0
    6492:	d004      	beq.n	649e <__mcmp+0x2e>
    6494:	4284      	cmp	r4, r0
    6496:	4180      	sbcs	r0, r0
    6498:	2301      	movs	r3, #1
    649a:	4318      	orrs	r0, r3
    649c:	e002      	b.n	64a4 <__mcmp+0x34>
    649e:	4293      	cmp	r3, r2
    64a0:	d8f2      	bhi.n	6488 <__mcmp+0x18>
    64a2:	2000      	movs	r0, #0
    64a4:	bd10      	pop	{r4, pc}

000064a6 <__mdiff>:
    64a6:	b5f0      	push	{r4, r5, r6, r7, lr}
    64a8:	1c07      	adds	r7, r0, #0
    64aa:	b085      	sub	sp, #20
    64ac:	1c08      	adds	r0, r1, #0
    64ae:	1c0d      	adds	r5, r1, #0
    64b0:	1c11      	adds	r1, r2, #0
    64b2:	1c14      	adds	r4, r2, #0
    64b4:	f7ff ffdc 	bl	6470 <__mcmp>
    64b8:	1e06      	subs	r6, r0, #0
    64ba:	d107      	bne.n	64cc <__mdiff+0x26>
    64bc:	1c38      	adds	r0, r7, #0
    64be:	1c31      	adds	r1, r6, #0
    64c0:	f7ff fdc1 	bl	6046 <_Balloc>
    64c4:	2301      	movs	r3, #1
    64c6:	6103      	str	r3, [r0, #16]
    64c8:	6146      	str	r6, [r0, #20]
    64ca:	e050      	b.n	656e <__mdiff+0xc8>
    64cc:	2800      	cmp	r0, #0
    64ce:	db01      	blt.n	64d4 <__mdiff+0x2e>
    64d0:	2600      	movs	r6, #0
    64d2:	e003      	b.n	64dc <__mdiff+0x36>
    64d4:	1c2b      	adds	r3, r5, #0
    64d6:	2601      	movs	r6, #1
    64d8:	1c25      	adds	r5, r4, #0
    64da:	1c1c      	adds	r4, r3, #0
    64dc:	6869      	ldr	r1, [r5, #4]
    64de:	1c38      	adds	r0, r7, #0
    64e0:	f7ff fdb1 	bl	6046 <_Balloc>
    64e4:	692a      	ldr	r2, [r5, #16]
    64e6:	1c2b      	adds	r3, r5, #0
    64e8:	3314      	adds	r3, #20
    64ea:	0091      	lsls	r1, r2, #2
    64ec:	1859      	adds	r1, r3, r1
    64ee:	9102      	str	r1, [sp, #8]
    64f0:	6921      	ldr	r1, [r4, #16]
    64f2:	1c25      	adds	r5, r4, #0
    64f4:	3514      	adds	r5, #20
    64f6:	0089      	lsls	r1, r1, #2
    64f8:	1869      	adds	r1, r5, r1
    64fa:	1c04      	adds	r4, r0, #0
    64fc:	9103      	str	r1, [sp, #12]
    64fe:	60c6      	str	r6, [r0, #12]
    6500:	3414      	adds	r4, #20
    6502:	2100      	movs	r1, #0
    6504:	cb40      	ldmia	r3!, {r6}
    6506:	cd80      	ldmia	r5!, {r7}
    6508:	46b4      	mov	ip, r6
    650a:	b2b6      	uxth	r6, r6
    650c:	1871      	adds	r1, r6, r1
    650e:	b2be      	uxth	r6, r7
    6510:	1b8e      	subs	r6, r1, r6
    6512:	4661      	mov	r1, ip
    6514:	9601      	str	r6, [sp, #4]
    6516:	0c3f      	lsrs	r7, r7, #16
    6518:	0c0e      	lsrs	r6, r1, #16
    651a:	1bf7      	subs	r7, r6, r7
    651c:	9e01      	ldr	r6, [sp, #4]
    651e:	3404      	adds	r4, #4
    6520:	1431      	asrs	r1, r6, #16
    6522:	187f      	adds	r7, r7, r1
    6524:	1439      	asrs	r1, r7, #16
    6526:	043f      	lsls	r7, r7, #16
    6528:	9700      	str	r7, [sp, #0]
    652a:	9f01      	ldr	r7, [sp, #4]
    652c:	1f26      	subs	r6, r4, #4
    652e:	46b4      	mov	ip, r6
    6530:	b2be      	uxth	r6, r7
    6532:	9f00      	ldr	r7, [sp, #0]
    6534:	4337      	orrs	r7, r6
    6536:	4666      	mov	r6, ip
    6538:	6037      	str	r7, [r6, #0]
    653a:	9f03      	ldr	r7, [sp, #12]
    653c:	42bd      	cmp	r5, r7
    653e:	d3e1      	bcc.n	6504 <__mdiff+0x5e>
    6540:	9e02      	ldr	r6, [sp, #8]
    6542:	1c25      	adds	r5, r4, #0
    6544:	42b3      	cmp	r3, r6
    6546:	d20b      	bcs.n	6560 <__mdiff+0xba>
    6548:	cb80      	ldmia	r3!, {r7}
    654a:	b2bd      	uxth	r5, r7
    654c:	186d      	adds	r5, r5, r1
    654e:	142e      	asrs	r6, r5, #16
    6550:	0c3f      	lsrs	r7, r7, #16
    6552:	19f6      	adds	r6, r6, r7
    6554:	1431      	asrs	r1, r6, #16
    6556:	b2ad      	uxth	r5, r5
    6558:	0436      	lsls	r6, r6, #16
    655a:	4335      	orrs	r5, r6
    655c:	c420      	stmia	r4!, {r5}
    655e:	e7ef      	b.n	6540 <__mdiff+0x9a>
    6560:	3d04      	subs	r5, #4
    6562:	682f      	ldr	r7, [r5, #0]
    6564:	2f00      	cmp	r7, #0
    6566:	d101      	bne.n	656c <__mdiff+0xc6>
    6568:	3a01      	subs	r2, #1
    656a:	e7f9      	b.n	6560 <__mdiff+0xba>
    656c:	6102      	str	r2, [r0, #16]
    656e:	b005      	add	sp, #20
    6570:	bdf0      	pop	{r4, r5, r6, r7, pc}
	...

00006574 <__d2b>:
    6574:	b5f7      	push	{r0, r1, r2, r4, r5, r6, r7, lr}
    6576:	2101      	movs	r1, #1
    6578:	1c1d      	adds	r5, r3, #0
    657a:	1c14      	adds	r4, r2, #0
    657c:	f7ff fd63 	bl	6046 <_Balloc>
    6580:	006f      	lsls	r7, r5, #1
    6582:	032b      	lsls	r3, r5, #12
    6584:	1c06      	adds	r6, r0, #0
    6586:	0b1b      	lsrs	r3, r3, #12
    6588:	0d7f      	lsrs	r7, r7, #21
    658a:	d002      	beq.n	6592 <__d2b+0x1e>
    658c:	2280      	movs	r2, #128	; 0x80
    658e:	0352      	lsls	r2, r2, #13
    6590:	4313      	orrs	r3, r2
    6592:	9301      	str	r3, [sp, #4]
    6594:	2c00      	cmp	r4, #0
    6596:	d019      	beq.n	65cc <__d2b+0x58>
    6598:	4668      	mov	r0, sp
    659a:	9400      	str	r4, [sp, #0]
    659c:	f7ff fdfe 	bl	619c <__lo0bits>
    65a0:	9a00      	ldr	r2, [sp, #0]
    65a2:	2800      	cmp	r0, #0
    65a4:	d009      	beq.n	65ba <__d2b+0x46>
    65a6:	9b01      	ldr	r3, [sp, #4]
    65a8:	2120      	movs	r1, #32
    65aa:	1c1c      	adds	r4, r3, #0
    65ac:	1a09      	subs	r1, r1, r0
    65ae:	408c      	lsls	r4, r1
    65b0:	4322      	orrs	r2, r4
    65b2:	40c3      	lsrs	r3, r0
    65b4:	6172      	str	r2, [r6, #20]
    65b6:	9301      	str	r3, [sp, #4]
    65b8:	e000      	b.n	65bc <__d2b+0x48>
    65ba:	6172      	str	r2, [r6, #20]
    65bc:	9c01      	ldr	r4, [sp, #4]
    65be:	61b4      	str	r4, [r6, #24]
    65c0:	4263      	negs	r3, r4
    65c2:	4163      	adcs	r3, r4
    65c4:	2402      	movs	r4, #2
    65c6:	1ae4      	subs	r4, r4, r3
    65c8:	6134      	str	r4, [r6, #16]
    65ca:	e007      	b.n	65dc <__d2b+0x68>
    65cc:	a801      	add	r0, sp, #4
    65ce:	f7ff fde5 	bl	619c <__lo0bits>
    65d2:	9901      	ldr	r1, [sp, #4]
    65d4:	2401      	movs	r4, #1
    65d6:	6171      	str	r1, [r6, #20]
    65d8:	6134      	str	r4, [r6, #16]
    65da:	3020      	adds	r0, #32
    65dc:	2f00      	cmp	r7, #0
    65de:	d009      	beq.n	65f4 <__d2b+0x80>
    65e0:	4a0d      	ldr	r2, [pc, #52]	; (6618 <__d2b+0xa4>)
    65e2:	9c08      	ldr	r4, [sp, #32]
    65e4:	18bf      	adds	r7, r7, r2
    65e6:	183f      	adds	r7, r7, r0
    65e8:	6027      	str	r7, [r4, #0]
    65ea:	2335      	movs	r3, #53	; 0x35
    65ec:	9c09      	ldr	r4, [sp, #36]	; 0x24
    65ee:	1a18      	subs	r0, r3, r0
    65f0:	6020      	str	r0, [r4, #0]
    65f2:	e00e      	b.n	6612 <__d2b+0x9e>
    65f4:	4909      	ldr	r1, [pc, #36]	; (661c <__d2b+0xa8>)
    65f6:	9a08      	ldr	r2, [sp, #32]
    65f8:	1840      	adds	r0, r0, r1
    65fa:	4909      	ldr	r1, [pc, #36]	; (6620 <__d2b+0xac>)
    65fc:	6010      	str	r0, [r2, #0]
    65fe:	1863      	adds	r3, r4, r1
    6600:	009b      	lsls	r3, r3, #2
    6602:	18f3      	adds	r3, r6, r3
    6604:	6958      	ldr	r0, [r3, #20]
    6606:	f7ff fdad 	bl	6164 <__hi0bits>
    660a:	0164      	lsls	r4, r4, #5
    660c:	9a09      	ldr	r2, [sp, #36]	; 0x24
    660e:	1a24      	subs	r4, r4, r0
    6610:	6014      	str	r4, [r2, #0]
    6612:	1c30      	adds	r0, r6, #0
    6614:	bdfe      	pop	{r1, r2, r3, r4, r5, r6, r7, pc}
    6616:	46c0      	nop			; (mov r8, r8)
    6618:	fffffbcd 	.word	0xfffffbcd
    661c:	fffffbce 	.word	0xfffffbce
    6620:	3fffffff 	.word	0x3fffffff

00006624 <_calloc_r>:
    6624:	b538      	push	{r3, r4, r5, lr}
    6626:	1c15      	adds	r5, r2, #0
    6628:	434d      	muls	r5, r1
    662a:	1c29      	adds	r1, r5, #0
    662c:	f000 f850 	bl	66d0 <_malloc_r>
    6630:	1e04      	subs	r4, r0, #0
    6632:	d003      	beq.n	663c <_calloc_r+0x18>
    6634:	2100      	movs	r1, #0
    6636:	1c2a      	adds	r2, r5, #0
    6638:	f7fd fdb7 	bl	41aa <memset>
    663c:	1c20      	adds	r0, r4, #0
    663e:	bd38      	pop	{r3, r4, r5, pc}

00006640 <_free_r>:
    6640:	b530      	push	{r4, r5, lr}
    6642:	2900      	cmp	r1, #0
    6644:	d040      	beq.n	66c8 <_free_r+0x88>
    6646:	3904      	subs	r1, #4
    6648:	680b      	ldr	r3, [r1, #0]
    664a:	2b00      	cmp	r3, #0
    664c:	da00      	bge.n	6650 <_free_r+0x10>
    664e:	18c9      	adds	r1, r1, r3
    6650:	4a1e      	ldr	r2, [pc, #120]	; (66cc <_free_r+0x8c>)
    6652:	6813      	ldr	r3, [r2, #0]
    6654:	1c14      	adds	r4, r2, #0
    6656:	2b00      	cmp	r3, #0
    6658:	d102      	bne.n	6660 <_free_r+0x20>
    665a:	604b      	str	r3, [r1, #4]
    665c:	6011      	str	r1, [r2, #0]
    665e:	e033      	b.n	66c8 <_free_r+0x88>
    6660:	4299      	cmp	r1, r3
    6662:	d20f      	bcs.n	6684 <_free_r+0x44>
    6664:	6808      	ldr	r0, [r1, #0]
    6666:	180a      	adds	r2, r1, r0
    6668:	429a      	cmp	r2, r3
    666a:	d105      	bne.n	6678 <_free_r+0x38>
    666c:	6813      	ldr	r3, [r2, #0]
    666e:	6852      	ldr	r2, [r2, #4]
    6670:	18c0      	adds	r0, r0, r3
    6672:	6008      	str	r0, [r1, #0]
    6674:	604a      	str	r2, [r1, #4]
    6676:	e000      	b.n	667a <_free_r+0x3a>
    6678:	604b      	str	r3, [r1, #4]
    667a:	6021      	str	r1, [r4, #0]
    667c:	e024      	b.n	66c8 <_free_r+0x88>
    667e:	428a      	cmp	r2, r1
    6680:	d803      	bhi.n	668a <_free_r+0x4a>
    6682:	1c13      	adds	r3, r2, #0
    6684:	685a      	ldr	r2, [r3, #4]
    6686:	2a00      	cmp	r2, #0
    6688:	d1f9      	bne.n	667e <_free_r+0x3e>
    668a:	681d      	ldr	r5, [r3, #0]
    668c:	195c      	adds	r4, r3, r5
    668e:	428c      	cmp	r4, r1
    6690:	d10b      	bne.n	66aa <_free_r+0x6a>
    6692:	6809      	ldr	r1, [r1, #0]
    6694:	1869      	adds	r1, r5, r1
    6696:	1858      	adds	r0, r3, r1
    6698:	6019      	str	r1, [r3, #0]
    669a:	4290      	cmp	r0, r2
    669c:	d114      	bne.n	66c8 <_free_r+0x88>
    669e:	6814      	ldr	r4, [r2, #0]
    66a0:	6852      	ldr	r2, [r2, #4]
    66a2:	1909      	adds	r1, r1, r4
    66a4:	6019      	str	r1, [r3, #0]
    66a6:	605a      	str	r2, [r3, #4]
    66a8:	e00e      	b.n	66c8 <_free_r+0x88>
    66aa:	428c      	cmp	r4, r1
    66ac:	d902      	bls.n	66b4 <_free_r+0x74>
    66ae:	230c      	movs	r3, #12
    66b0:	6003      	str	r3, [r0, #0]
    66b2:	e009      	b.n	66c8 <_free_r+0x88>
    66b4:	6808      	ldr	r0, [r1, #0]
    66b6:	180c      	adds	r4, r1, r0
    66b8:	4294      	cmp	r4, r2
    66ba:	d103      	bne.n	66c4 <_free_r+0x84>
    66bc:	6814      	ldr	r4, [r2, #0]
    66be:	6852      	ldr	r2, [r2, #4]
    66c0:	1900      	adds	r0, r0, r4
    66c2:	6008      	str	r0, [r1, #0]
    66c4:	604a      	str	r2, [r1, #4]
    66c6:	6059      	str	r1, [r3, #4]
    66c8:	bd30      	pop	{r4, r5, pc}
    66ca:	46c0      	nop			; (mov r8, r8)
    66cc:	200001e8 	.word	0x200001e8

000066d0 <_malloc_r>:
    66d0:	b570      	push	{r4, r5, r6, lr}
    66d2:	2303      	movs	r3, #3
    66d4:	1ccd      	adds	r5, r1, #3
    66d6:	439d      	bics	r5, r3
    66d8:	3508      	adds	r5, #8
    66da:	1c06      	adds	r6, r0, #0
    66dc:	2d0c      	cmp	r5, #12
    66de:	d201      	bcs.n	66e4 <_malloc_r+0x14>
    66e0:	250c      	movs	r5, #12
    66e2:	e001      	b.n	66e8 <_malloc_r+0x18>
    66e4:	2d00      	cmp	r5, #0
    66e6:	db3f      	blt.n	6768 <_malloc_r+0x98>
    66e8:	428d      	cmp	r5, r1
    66ea:	d33d      	bcc.n	6768 <_malloc_r+0x98>
    66ec:	4b20      	ldr	r3, [pc, #128]	; (6770 <_malloc_r+0xa0>)
    66ee:	681c      	ldr	r4, [r3, #0]
    66f0:	1c1a      	adds	r2, r3, #0
    66f2:	1c21      	adds	r1, r4, #0
    66f4:	2900      	cmp	r1, #0
    66f6:	d013      	beq.n	6720 <_malloc_r+0x50>
    66f8:	6808      	ldr	r0, [r1, #0]
    66fa:	1b43      	subs	r3, r0, r5
    66fc:	d40d      	bmi.n	671a <_malloc_r+0x4a>
    66fe:	2b0b      	cmp	r3, #11
    6700:	d902      	bls.n	6708 <_malloc_r+0x38>
    6702:	600b      	str	r3, [r1, #0]
    6704:	18cc      	adds	r4, r1, r3
    6706:	e01e      	b.n	6746 <_malloc_r+0x76>
    6708:	428c      	cmp	r4, r1
    670a:	d102      	bne.n	6712 <_malloc_r+0x42>
    670c:	6863      	ldr	r3, [r4, #4]
    670e:	6013      	str	r3, [r2, #0]
    6710:	e01a      	b.n	6748 <_malloc_r+0x78>
    6712:	6848      	ldr	r0, [r1, #4]
    6714:	6060      	str	r0, [r4, #4]
    6716:	1c0c      	adds	r4, r1, #0
    6718:	e016      	b.n	6748 <_malloc_r+0x78>
    671a:	1c0c      	adds	r4, r1, #0
    671c:	6849      	ldr	r1, [r1, #4]
    671e:	e7e9      	b.n	66f4 <_malloc_r+0x24>
    6720:	4c14      	ldr	r4, [pc, #80]	; (6774 <_malloc_r+0xa4>)
    6722:	6820      	ldr	r0, [r4, #0]
    6724:	2800      	cmp	r0, #0
    6726:	d103      	bne.n	6730 <_malloc_r+0x60>
    6728:	1c30      	adds	r0, r6, #0
    672a:	f000 f825 	bl	6778 <_sbrk_r>
    672e:	6020      	str	r0, [r4, #0]
    6730:	1c30      	adds	r0, r6, #0
    6732:	1c29      	adds	r1, r5, #0
    6734:	f000 f820 	bl	6778 <_sbrk_r>
    6738:	1c43      	adds	r3, r0, #1
    673a:	d015      	beq.n	6768 <_malloc_r+0x98>
    673c:	1cc4      	adds	r4, r0, #3
    673e:	2303      	movs	r3, #3
    6740:	439c      	bics	r4, r3
    6742:	4284      	cmp	r4, r0
    6744:	d10a      	bne.n	675c <_malloc_r+0x8c>
    6746:	6025      	str	r5, [r4, #0]
    6748:	1c20      	adds	r0, r4, #0
    674a:	300b      	adds	r0, #11
    674c:	2207      	movs	r2, #7
    674e:	1d23      	adds	r3, r4, #4
    6750:	4390      	bics	r0, r2
    6752:	1ac3      	subs	r3, r0, r3
    6754:	d00b      	beq.n	676e <_malloc_r+0x9e>
    6756:	425a      	negs	r2, r3
    6758:	50e2      	str	r2, [r4, r3]
    675a:	e008      	b.n	676e <_malloc_r+0x9e>
    675c:	1a21      	subs	r1, r4, r0
    675e:	1c30      	adds	r0, r6, #0
    6760:	f000 f80a 	bl	6778 <_sbrk_r>
    6764:	3001      	adds	r0, #1
    6766:	d1ee      	bne.n	6746 <_malloc_r+0x76>
    6768:	230c      	movs	r3, #12
    676a:	6033      	str	r3, [r6, #0]
    676c:	2000      	movs	r0, #0
    676e:	bd70      	pop	{r4, r5, r6, pc}
    6770:	200001e8 	.word	0x200001e8
    6774:	200001e4 	.word	0x200001e4

00006778 <_sbrk_r>:
    6778:	b538      	push	{r3, r4, r5, lr}
    677a:	4c07      	ldr	r4, [pc, #28]	; (6798 <_sbrk_r+0x20>)
    677c:	2300      	movs	r3, #0
    677e:	1c05      	adds	r5, r0, #0
    6780:	1c08      	adds	r0, r1, #0
    6782:	6023      	str	r3, [r4, #0]
    6784:	f7fd f894 	bl	38b0 <_sbrk>
    6788:	1c43      	adds	r3, r0, #1
    678a:	d103      	bne.n	6794 <_sbrk_r+0x1c>
    678c:	6823      	ldr	r3, [r4, #0]
    678e:	2b00      	cmp	r3, #0
    6790:	d000      	beq.n	6794 <_sbrk_r+0x1c>
    6792:	602b      	str	r3, [r5, #0]
    6794:	bd38      	pop	{r3, r4, r5, pc}
    6796:	46c0      	nop			; (mov r8, r8)
    6798:	20000324 	.word	0x20000324

0000679c <__sread>:
    679c:	b538      	push	{r3, r4, r5, lr}
    679e:	1c0c      	adds	r4, r1, #0
    67a0:	250e      	movs	r5, #14
    67a2:	5f49      	ldrsh	r1, [r1, r5]
    67a4:	f000 f8ac 	bl	6900 <_read_r>
    67a8:	2800      	cmp	r0, #0
    67aa:	db03      	blt.n	67b4 <__sread+0x18>
    67ac:	6d62      	ldr	r2, [r4, #84]	; 0x54
    67ae:	1813      	adds	r3, r2, r0
    67b0:	6563      	str	r3, [r4, #84]	; 0x54
    67b2:	e003      	b.n	67bc <__sread+0x20>
    67b4:	89a2      	ldrh	r2, [r4, #12]
    67b6:	4b02      	ldr	r3, [pc, #8]	; (67c0 <__sread+0x24>)
    67b8:	4013      	ands	r3, r2
    67ba:	81a3      	strh	r3, [r4, #12]
    67bc:	bd38      	pop	{r3, r4, r5, pc}
    67be:	46c0      	nop			; (mov r8, r8)
    67c0:	ffffefff 	.word	0xffffefff

000067c4 <__swrite>:
    67c4:	b5f8      	push	{r3, r4, r5, r6, r7, lr}
    67c6:	1c1e      	adds	r6, r3, #0
    67c8:	898b      	ldrh	r3, [r1, #12]
    67ca:	1c05      	adds	r5, r0, #0
    67cc:	1c0c      	adds	r4, r1, #0
    67ce:	1c17      	adds	r7, r2, #0
    67d0:	05da      	lsls	r2, r3, #23
    67d2:	d505      	bpl.n	67e0 <__swrite+0x1c>
    67d4:	230e      	movs	r3, #14
    67d6:	5ec9      	ldrsh	r1, [r1, r3]
    67d8:	2200      	movs	r2, #0
    67da:	2302      	movs	r3, #2
    67dc:	f000 f87c 	bl	68d8 <_lseek_r>
    67e0:	89a2      	ldrh	r2, [r4, #12]
    67e2:	4b05      	ldr	r3, [pc, #20]	; (67f8 <__swrite+0x34>)
    67e4:	1c28      	adds	r0, r5, #0
    67e6:	4013      	ands	r3, r2
    67e8:	81a3      	strh	r3, [r4, #12]
    67ea:	220e      	movs	r2, #14
    67ec:	5ea1      	ldrsh	r1, [r4, r2]
    67ee:	1c33      	adds	r3, r6, #0
    67f0:	1c3a      	adds	r2, r7, #0
    67f2:	f000 f827 	bl	6844 <_write_r>
    67f6:	bdf8      	pop	{r3, r4, r5, r6, r7, pc}
    67f8:	ffffefff 	.word	0xffffefff

000067fc <__sseek>:
    67fc:	b538      	push	{r3, r4, r5, lr}
    67fe:	1c0c      	adds	r4, r1, #0
    6800:	250e      	movs	r5, #14
    6802:	5f49      	ldrsh	r1, [r1, r5]
    6804:	f000 f868 	bl	68d8 <_lseek_r>
    6808:	89a3      	ldrh	r3, [r4, #12]
    680a:	1c42      	adds	r2, r0, #1
    680c:	d103      	bne.n	6816 <__sseek+0x1a>
    680e:	4a05      	ldr	r2, [pc, #20]	; (6824 <__sseek+0x28>)
    6810:	4013      	ands	r3, r2
    6812:	81a3      	strh	r3, [r4, #12]
    6814:	e004      	b.n	6820 <__sseek+0x24>
    6816:	2280      	movs	r2, #128	; 0x80
    6818:	0152      	lsls	r2, r2, #5
    681a:	4313      	orrs	r3, r2
    681c:	81a3      	strh	r3, [r4, #12]
    681e:	6560      	str	r0, [r4, #84]	; 0x54
    6820:	bd38      	pop	{r3, r4, r5, pc}
    6822:	46c0      	nop			; (mov r8, r8)
    6824:	ffffefff 	.word	0xffffefff

00006828 <__sclose>:
    6828:	b508      	push	{r3, lr}
    682a:	230e      	movs	r3, #14
    682c:	5ec9      	ldrsh	r1, [r1, r3]
    682e:	f000 f81d 	bl	686c <_close_r>
    6832:	bd08      	pop	{r3, pc}

00006834 <strlen>:
    6834:	2300      	movs	r3, #0
    6836:	5cc2      	ldrb	r2, [r0, r3]
    6838:	3301      	adds	r3, #1
    683a:	2a00      	cmp	r2, #0
    683c:	d1fb      	bne.n	6836 <strlen+0x2>
    683e:	1e58      	subs	r0, r3, #1
    6840:	4770      	bx	lr
	...

00006844 <_write_r>:
    6844:	b538      	push	{r3, r4, r5, lr}
    6846:	4c08      	ldr	r4, [pc, #32]	; (6868 <_write_r+0x24>)
    6848:	1c05      	adds	r5, r0, #0
    684a:	2000      	movs	r0, #0
    684c:	6020      	str	r0, [r4, #0]
    684e:	1c08      	adds	r0, r1, #0
    6850:	1c11      	adds	r1, r2, #0
    6852:	1c1a      	adds	r2, r3, #0
    6854:	f7fd f802 	bl	385c <_write>
    6858:	1c43      	adds	r3, r0, #1
    685a:	d103      	bne.n	6864 <_write_r+0x20>
    685c:	6823      	ldr	r3, [r4, #0]
    685e:	2b00      	cmp	r3, #0
    6860:	d000      	beq.n	6864 <_write_r+0x20>
    6862:	602b      	str	r3, [r5, #0]
    6864:	bd38      	pop	{r3, r4, r5, pc}
    6866:	46c0      	nop			; (mov r8, r8)
    6868:	20000324 	.word	0x20000324

0000686c <_close_r>:
    686c:	b538      	push	{r3, r4, r5, lr}
    686e:	4c07      	ldr	r4, [pc, #28]	; (688c <_close_r+0x20>)
    6870:	2300      	movs	r3, #0
    6872:	1c05      	adds	r5, r0, #0
    6874:	1c08      	adds	r0, r1, #0
    6876:	6023      	str	r3, [r4, #0]
    6878:	f7fd f82c 	bl	38d4 <_close>
    687c:	1c43      	adds	r3, r0, #1
    687e:	d103      	bne.n	6888 <_close_r+0x1c>
    6880:	6823      	ldr	r3, [r4, #0]
    6882:	2b00      	cmp	r3, #0
    6884:	d000      	beq.n	6888 <_close_r+0x1c>
    6886:	602b      	str	r3, [r5, #0]
    6888:	bd38      	pop	{r3, r4, r5, pc}
    688a:	46c0      	nop			; (mov r8, r8)
    688c:	20000324 	.word	0x20000324

00006890 <_fstat_r>:
    6890:	b538      	push	{r3, r4, r5, lr}
    6892:	4c07      	ldr	r4, [pc, #28]	; (68b0 <_fstat_r+0x20>)
    6894:	2300      	movs	r3, #0
    6896:	1c05      	adds	r5, r0, #0
    6898:	1c08      	adds	r0, r1, #0
    689a:	1c11      	adds	r1, r2, #0
    689c:	6023      	str	r3, [r4, #0]
    689e:	f7fd f81d 	bl	38dc <_fstat>
    68a2:	1c43      	adds	r3, r0, #1
    68a4:	d103      	bne.n	68ae <_fstat_r+0x1e>
    68a6:	6823      	ldr	r3, [r4, #0]
    68a8:	2b00      	cmp	r3, #0
    68aa:	d000      	beq.n	68ae <_fstat_r+0x1e>
    68ac:	602b      	str	r3, [r5, #0]
    68ae:	bd38      	pop	{r3, r4, r5, pc}
    68b0:	20000324 	.word	0x20000324

000068b4 <_isatty_r>:
    68b4:	b538      	push	{r3, r4, r5, lr}
    68b6:	4c07      	ldr	r4, [pc, #28]	; (68d4 <_isatty_r+0x20>)
    68b8:	2300      	movs	r3, #0
    68ba:	1c05      	adds	r5, r0, #0
    68bc:	1c08      	adds	r0, r1, #0
    68be:	6023      	str	r3, [r4, #0]
    68c0:	f7fd f812 	bl	38e8 <_isatty>
    68c4:	1c43      	adds	r3, r0, #1
    68c6:	d103      	bne.n	68d0 <_isatty_r+0x1c>
    68c8:	6823      	ldr	r3, [r4, #0]
    68ca:	2b00      	cmp	r3, #0
    68cc:	d000      	beq.n	68d0 <_isatty_r+0x1c>
    68ce:	602b      	str	r3, [r5, #0]
    68d0:	bd38      	pop	{r3, r4, r5, pc}
    68d2:	46c0      	nop			; (mov r8, r8)
    68d4:	20000324 	.word	0x20000324

000068d8 <_lseek_r>:
    68d8:	b538      	push	{r3, r4, r5, lr}
    68da:	4c08      	ldr	r4, [pc, #32]	; (68fc <_lseek_r+0x24>)
    68dc:	1c05      	adds	r5, r0, #0
    68de:	2000      	movs	r0, #0
    68e0:	6020      	str	r0, [r4, #0]
    68e2:	1c08      	adds	r0, r1, #0
    68e4:	1c11      	adds	r1, r2, #0
    68e6:	1c1a      	adds	r2, r3, #0
    68e8:	f7fd f800 	bl	38ec <_lseek>
    68ec:	1c43      	adds	r3, r0, #1
    68ee:	d103      	bne.n	68f8 <_lseek_r+0x20>
    68f0:	6823      	ldr	r3, [r4, #0]
    68f2:	2b00      	cmp	r3, #0
    68f4:	d000      	beq.n	68f8 <_lseek_r+0x20>
    68f6:	602b      	str	r3, [r5, #0]
    68f8:	bd38      	pop	{r3, r4, r5, pc}
    68fa:	46c0      	nop			; (mov r8, r8)
    68fc:	20000324 	.word	0x20000324

00006900 <_read_r>:
    6900:	b538      	push	{r3, r4, r5, lr}
    6902:	4c08      	ldr	r4, [pc, #32]	; (6924 <_read_r+0x24>)
    6904:	1c05      	adds	r5, r0, #0
    6906:	2000      	movs	r0, #0
    6908:	6020      	str	r0, [r4, #0]
    690a:	1c08      	adds	r0, r1, #0
    690c:	1c11      	adds	r1, r2, #0
    690e:	1c1a      	adds	r2, r3, #0
    6910:	f7fc ff82 	bl	3818 <_read>
    6914:	1c43      	adds	r3, r0, #1
    6916:	d103      	bne.n	6920 <_read_r+0x20>
    6918:	6823      	ldr	r3, [r4, #0]
    691a:	2b00      	cmp	r3, #0
    691c:	d000      	beq.n	6920 <_read_r+0x20>
    691e:	602b      	str	r3, [r5, #0]
    6920:	bd38      	pop	{r3, r4, r5, pc}
    6922:	46c0      	nop			; (mov r8, r8)
    6924:	20000324 	.word	0x20000324

00006928 <__gnu_thumb1_case_uqi>:
    6928:	b402      	push	{r1}
    692a:	4671      	mov	r1, lr
    692c:	0849      	lsrs	r1, r1, #1
    692e:	0049      	lsls	r1, r1, #1
    6930:	5c09      	ldrb	r1, [r1, r0]
    6932:	0049      	lsls	r1, r1, #1
    6934:	448e      	add	lr, r1
    6936:	bc02      	pop	{r1}
    6938:	4770      	bx	lr
    693a:	46c0      	nop			; (mov r8, r8)

0000693c <__aeabi_uidiv>:
    693c:	2900      	cmp	r1, #0
    693e:	d034      	beq.n	69aa <.udivsi3_skip_div0_test+0x6a>

00006940 <.udivsi3_skip_div0_test>:
    6940:	2301      	movs	r3, #1
    6942:	2200      	movs	r2, #0
    6944:	b410      	push	{r4}
    6946:	4288      	cmp	r0, r1
    6948:	d32c      	bcc.n	69a4 <.udivsi3_skip_div0_test+0x64>
    694a:	2401      	movs	r4, #1
    694c:	0724      	lsls	r4, r4, #28
    694e:	42a1      	cmp	r1, r4
    6950:	d204      	bcs.n	695c <.udivsi3_skip_div0_test+0x1c>
    6952:	4281      	cmp	r1, r0
    6954:	d202      	bcs.n	695c <.udivsi3_skip_div0_test+0x1c>
    6956:	0109      	lsls	r1, r1, #4
    6958:	011b      	lsls	r3, r3, #4
    695a:	e7f8      	b.n	694e <.udivsi3_skip_div0_test+0xe>
    695c:	00e4      	lsls	r4, r4, #3
    695e:	42a1      	cmp	r1, r4
    6960:	d204      	bcs.n	696c <.udivsi3_skip_div0_test+0x2c>
    6962:	4281      	cmp	r1, r0
    6964:	d202      	bcs.n	696c <.udivsi3_skip_div0_test+0x2c>
    6966:	0049      	lsls	r1, r1, #1
    6968:	005b      	lsls	r3, r3, #1
    696a:	e7f8      	b.n	695e <.udivsi3_skip_div0_test+0x1e>
    696c:	4288      	cmp	r0, r1
    696e:	d301      	bcc.n	6974 <.udivsi3_skip_div0_test+0x34>
    6970:	1a40      	subs	r0, r0, r1
    6972:	431a      	orrs	r2, r3
    6974:	084c      	lsrs	r4, r1, #1
    6976:	42a0      	cmp	r0, r4
    6978:	d302      	bcc.n	6980 <.udivsi3_skip_div0_test+0x40>
    697a:	1b00      	subs	r0, r0, r4
    697c:	085c      	lsrs	r4, r3, #1
    697e:	4322      	orrs	r2, r4
    6980:	088c      	lsrs	r4, r1, #2
    6982:	42a0      	cmp	r0, r4
    6984:	d302      	bcc.n	698c <.udivsi3_skip_div0_test+0x4c>
    6986:	1b00      	subs	r0, r0, r4
    6988:	089c      	lsrs	r4, r3, #2
    698a:	4322      	orrs	r2, r4
    698c:	08cc      	lsrs	r4, r1, #3
    698e:	42a0      	cmp	r0, r4
    6990:	d302      	bcc.n	6998 <.udivsi3_skip_div0_test+0x58>
    6992:	1b00      	subs	r0, r0, r4
    6994:	08dc      	lsrs	r4, r3, #3
    6996:	4322      	orrs	r2, r4
    6998:	2800      	cmp	r0, #0
    699a:	d003      	beq.n	69a4 <.udivsi3_skip_div0_test+0x64>
    699c:	091b      	lsrs	r3, r3, #4
    699e:	d001      	beq.n	69a4 <.udivsi3_skip_div0_test+0x64>
    69a0:	0909      	lsrs	r1, r1, #4
    69a2:	e7e3      	b.n	696c <.udivsi3_skip_div0_test+0x2c>
    69a4:	1c10      	adds	r0, r2, #0
    69a6:	bc10      	pop	{r4}
    69a8:	4770      	bx	lr
    69aa:	2800      	cmp	r0, #0
    69ac:	d001      	beq.n	69b2 <.udivsi3_skip_div0_test+0x72>
    69ae:	2000      	movs	r0, #0
    69b0:	43c0      	mvns	r0, r0
    69b2:	b407      	push	{r0, r1, r2}
    69b4:	4802      	ldr	r0, [pc, #8]	; (69c0 <.udivsi3_skip_div0_test+0x80>)
    69b6:	a102      	add	r1, pc, #8	; (adr r1, 69c0 <.udivsi3_skip_div0_test+0x80>)
    69b8:	1840      	adds	r0, r0, r1
    69ba:	9002      	str	r0, [sp, #8]
    69bc:	bd03      	pop	{r0, r1, pc}
    69be:	46c0      	nop			; (mov r8, r8)
    69c0:	000000d9 	.word	0x000000d9

000069c4 <__aeabi_uidivmod>:
    69c4:	2900      	cmp	r1, #0
    69c6:	d0f0      	beq.n	69aa <.udivsi3_skip_div0_test+0x6a>
    69c8:	b503      	push	{r0, r1, lr}
    69ca:	f7ff ffb9 	bl	6940 <.udivsi3_skip_div0_test>
    69ce:	bc0e      	pop	{r1, r2, r3}
    69d0:	4342      	muls	r2, r0
    69d2:	1a89      	subs	r1, r1, r2
    69d4:	4718      	bx	r3
    69d6:	46c0      	nop			; (mov r8, r8)

000069d8 <__aeabi_idiv>:
    69d8:	2900      	cmp	r1, #0
    69da:	d041      	beq.n	6a60 <.divsi3_skip_div0_test+0x84>

000069dc <.divsi3_skip_div0_test>:
    69dc:	b410      	push	{r4}
    69de:	1c04      	adds	r4, r0, #0
    69e0:	404c      	eors	r4, r1
    69e2:	46a4      	mov	ip, r4
    69e4:	2301      	movs	r3, #1
    69e6:	2200      	movs	r2, #0
    69e8:	2900      	cmp	r1, #0
    69ea:	d500      	bpl.n	69ee <.divsi3_skip_div0_test+0x12>
    69ec:	4249      	negs	r1, r1
    69ee:	2800      	cmp	r0, #0
    69f0:	d500      	bpl.n	69f4 <.divsi3_skip_div0_test+0x18>
    69f2:	4240      	negs	r0, r0
    69f4:	4288      	cmp	r0, r1
    69f6:	d32c      	bcc.n	6a52 <.divsi3_skip_div0_test+0x76>
    69f8:	2401      	movs	r4, #1
    69fa:	0724      	lsls	r4, r4, #28
    69fc:	42a1      	cmp	r1, r4
    69fe:	d204      	bcs.n	6a0a <.divsi3_skip_div0_test+0x2e>
    6a00:	4281      	cmp	r1, r0
    6a02:	d202      	bcs.n	6a0a <.divsi3_skip_div0_test+0x2e>
    6a04:	0109      	lsls	r1, r1, #4
    6a06:	011b      	lsls	r3, r3, #4
    6a08:	e7f8      	b.n	69fc <.divsi3_skip_div0_test+0x20>
    6a0a:	00e4      	lsls	r4, r4, #3
    6a0c:	42a1      	cmp	r1, r4
    6a0e:	d204      	bcs.n	6a1a <.divsi3_skip_div0_test+0x3e>
    6a10:	4281      	cmp	r1, r0
    6a12:	d202      	bcs.n	6a1a <.divsi3_skip_div0_test+0x3e>
    6a14:	0049      	lsls	r1, r1, #1
    6a16:	005b      	lsls	r3, r3, #1
    6a18:	e7f8      	b.n	6a0c <.divsi3_skip_div0_test+0x30>
    6a1a:	4288      	cmp	r0, r1
    6a1c:	d301      	bcc.n	6a22 <.divsi3_skip_div0_test+0x46>
    6a1e:	1a40      	subs	r0, r0, r1
    6a20:	431a      	orrs	r2, r3
    6a22:	084c      	lsrs	r4, r1, #1
    6a24:	42a0      	cmp	r0, r4
    6a26:	d302      	bcc.n	6a2e <.divsi3_skip_div0_test+0x52>
    6a28:	1b00      	subs	r0, r0, r4
    6a2a:	085c      	lsrs	r4, r3, #1
    6a2c:	4322      	orrs	r2, r4
    6a2e:	088c      	lsrs	r4, r1, #2
    6a30:	42a0      	cmp	r0, r4
    6a32:	d302      	bcc.n	6a3a <.divsi3_skip_div0_test+0x5e>
    6a34:	1b00      	subs	r0, r0, r4
    6a36:	089c      	lsrs	r4, r3, #2
    6a38:	4322      	orrs	r2, r4
    6a3a:	08cc      	lsrs	r4, r1, #3
    6a3c:	42a0      	cmp	r0, r4
    6a3e:	d302      	bcc.n	6a46 <.divsi3_skip_div0_test+0x6a>
    6a40:	1b00      	subs	r0, r0, r4
    6a42:	08dc      	lsrs	r4, r3, #3
    6a44:	4322      	orrs	r2, r4
    6a46:	2800      	cmp	r0, #0
    6a48:	d003      	beq.n	6a52 <.divsi3_skip_div0_test+0x76>
    6a4a:	091b      	lsrs	r3, r3, #4
    6a4c:	d001      	beq.n	6a52 <.divsi3_skip_div0_test+0x76>
    6a4e:	0909      	lsrs	r1, r1, #4
    6a50:	e7e3      	b.n	6a1a <.divsi3_skip_div0_test+0x3e>
    6a52:	1c10      	adds	r0, r2, #0
    6a54:	4664      	mov	r4, ip
    6a56:	2c00      	cmp	r4, #0
    6a58:	d500      	bpl.n	6a5c <.divsi3_skip_div0_test+0x80>
    6a5a:	4240      	negs	r0, r0
    6a5c:	bc10      	pop	{r4}
    6a5e:	4770      	bx	lr
    6a60:	2800      	cmp	r0, #0
    6a62:	d006      	beq.n	6a72 <.divsi3_skip_div0_test+0x96>
    6a64:	db03      	blt.n	6a6e <.divsi3_skip_div0_test+0x92>
    6a66:	2000      	movs	r0, #0
    6a68:	43c0      	mvns	r0, r0
    6a6a:	0840      	lsrs	r0, r0, #1
    6a6c:	e001      	b.n	6a72 <.divsi3_skip_div0_test+0x96>
    6a6e:	2080      	movs	r0, #128	; 0x80
    6a70:	0600      	lsls	r0, r0, #24
    6a72:	b407      	push	{r0, r1, r2}
    6a74:	4802      	ldr	r0, [pc, #8]	; (6a80 <.divsi3_skip_div0_test+0xa4>)
    6a76:	a102      	add	r1, pc, #8	; (adr r1, 6a80 <.divsi3_skip_div0_test+0xa4>)
    6a78:	1840      	adds	r0, r0, r1
    6a7a:	9002      	str	r0, [sp, #8]
    6a7c:	bd03      	pop	{r0, r1, pc}
    6a7e:	46c0      	nop			; (mov r8, r8)
    6a80:	00000019 	.word	0x00000019

00006a84 <__aeabi_idivmod>:
    6a84:	2900      	cmp	r1, #0
    6a86:	d0eb      	beq.n	6a60 <.divsi3_skip_div0_test+0x84>
    6a88:	b503      	push	{r0, r1, lr}
    6a8a:	f7ff ffa7 	bl	69dc <.divsi3_skip_div0_test>
    6a8e:	bc0e      	pop	{r1, r2, r3}
    6a90:	4342      	muls	r2, r0
    6a92:	1a89      	subs	r1, r1, r2
    6a94:	4718      	bx	r3
    6a96:	46c0      	nop			; (mov r8, r8)

00006a98 <__aeabi_idiv0>:
    6a98:	4770      	bx	lr
    6a9a:	46c0      	nop			; (mov r8, r8)

00006a9c <__aeabi_cdrcmple>:
    6a9c:	4684      	mov	ip, r0
    6a9e:	1c10      	adds	r0, r2, #0
    6aa0:	4662      	mov	r2, ip
    6aa2:	468c      	mov	ip, r1
    6aa4:	1c19      	adds	r1, r3, #0
    6aa6:	4663      	mov	r3, ip
    6aa8:	e000      	b.n	6aac <__aeabi_cdcmpeq>
    6aaa:	46c0      	nop			; (mov r8, r8)

00006aac <__aeabi_cdcmpeq>:
    6aac:	b51f      	push	{r0, r1, r2, r3, r4, lr}
    6aae:	f001 fe71 	bl	8794 <__ledf2>
    6ab2:	2800      	cmp	r0, #0
    6ab4:	d401      	bmi.n	6aba <__aeabi_cdcmpeq+0xe>
    6ab6:	2100      	movs	r1, #0
    6ab8:	42c8      	cmn	r0, r1
    6aba:	bd1f      	pop	{r0, r1, r2, r3, r4, pc}

00006abc <__aeabi_dcmpeq>:
    6abc:	b510      	push	{r4, lr}
    6abe:	f001 fda1 	bl	8604 <__eqdf2>
    6ac2:	4240      	negs	r0, r0
    6ac4:	3001      	adds	r0, #1
    6ac6:	bd10      	pop	{r4, pc}

00006ac8 <__aeabi_dcmplt>:
    6ac8:	b510      	push	{r4, lr}
    6aca:	f001 fe63 	bl	8794 <__ledf2>
    6ace:	2800      	cmp	r0, #0
    6ad0:	db01      	blt.n	6ad6 <__aeabi_dcmplt+0xe>
    6ad2:	2000      	movs	r0, #0
    6ad4:	bd10      	pop	{r4, pc}
    6ad6:	2001      	movs	r0, #1
    6ad8:	bd10      	pop	{r4, pc}
    6ada:	46c0      	nop			; (mov r8, r8)

00006adc <__aeabi_dcmple>:
    6adc:	b510      	push	{r4, lr}
    6ade:	f001 fe59 	bl	8794 <__ledf2>
    6ae2:	2800      	cmp	r0, #0
    6ae4:	dd01      	ble.n	6aea <__aeabi_dcmple+0xe>
    6ae6:	2000      	movs	r0, #0
    6ae8:	bd10      	pop	{r4, pc}
    6aea:	2001      	movs	r0, #1
    6aec:	bd10      	pop	{r4, pc}
    6aee:	46c0      	nop			; (mov r8, r8)

00006af0 <__aeabi_dcmpgt>:
    6af0:	b510      	push	{r4, lr}
    6af2:	f001 fdd1 	bl	8698 <__gedf2>
    6af6:	2800      	cmp	r0, #0
    6af8:	dc01      	bgt.n	6afe <__aeabi_dcmpgt+0xe>
    6afa:	2000      	movs	r0, #0
    6afc:	bd10      	pop	{r4, pc}
    6afe:	2001      	movs	r0, #1
    6b00:	bd10      	pop	{r4, pc}
    6b02:	46c0      	nop			; (mov r8, r8)

00006b04 <__aeabi_dcmpge>:
    6b04:	b510      	push	{r4, lr}
    6b06:	f001 fdc7 	bl	8698 <__gedf2>
    6b0a:	2800      	cmp	r0, #0
    6b0c:	da01      	bge.n	6b12 <__aeabi_dcmpge+0xe>
    6b0e:	2000      	movs	r0, #0
    6b10:	bd10      	pop	{r4, pc}
    6b12:	2001      	movs	r0, #1
    6b14:	bd10      	pop	{r4, pc}
    6b16:	46c0      	nop			; (mov r8, r8)

00006b18 <__aeabi_cfrcmple>:
    6b18:	4684      	mov	ip, r0
    6b1a:	1c08      	adds	r0, r1, #0
    6b1c:	4661      	mov	r1, ip
    6b1e:	e7ff      	b.n	6b20 <__aeabi_cfcmpeq>

00006b20 <__aeabi_cfcmpeq>:
    6b20:	b51f      	push	{r0, r1, r2, r3, r4, lr}
    6b22:	f000 fb71 	bl	7208 <__lesf2>
    6b26:	2800      	cmp	r0, #0
    6b28:	d401      	bmi.n	6b2e <__aeabi_cfcmpeq+0xe>
    6b2a:	2100      	movs	r1, #0
    6b2c:	42c8      	cmn	r0, r1
    6b2e:	bd1f      	pop	{r0, r1, r2, r3, r4, pc}

00006b30 <__aeabi_fcmpeq>:
    6b30:	b510      	push	{r4, lr}
    6b32:	f000 faf7 	bl	7124 <__eqsf2>
    6b36:	4240      	negs	r0, r0
    6b38:	3001      	adds	r0, #1
    6b3a:	bd10      	pop	{r4, pc}

00006b3c <__aeabi_fcmplt>:
    6b3c:	b510      	push	{r4, lr}
    6b3e:	f000 fb63 	bl	7208 <__lesf2>
    6b42:	2800      	cmp	r0, #0
    6b44:	db01      	blt.n	6b4a <__aeabi_fcmplt+0xe>
    6b46:	2000      	movs	r0, #0
    6b48:	bd10      	pop	{r4, pc}
    6b4a:	2001      	movs	r0, #1
    6b4c:	bd10      	pop	{r4, pc}
    6b4e:	46c0      	nop			; (mov r8, r8)

00006b50 <__aeabi_fcmple>:
    6b50:	b510      	push	{r4, lr}
    6b52:	f000 fb59 	bl	7208 <__lesf2>
    6b56:	2800      	cmp	r0, #0
    6b58:	dd01      	ble.n	6b5e <__aeabi_fcmple+0xe>
    6b5a:	2000      	movs	r0, #0
    6b5c:	bd10      	pop	{r4, pc}
    6b5e:	2001      	movs	r0, #1
    6b60:	bd10      	pop	{r4, pc}
    6b62:	46c0      	nop			; (mov r8, r8)

00006b64 <__aeabi_fcmpgt>:
    6b64:	b510      	push	{r4, lr}
    6b66:	f000 fb07 	bl	7178 <__gesf2>
    6b6a:	2800      	cmp	r0, #0
    6b6c:	dc01      	bgt.n	6b72 <__aeabi_fcmpgt+0xe>
    6b6e:	2000      	movs	r0, #0
    6b70:	bd10      	pop	{r4, pc}
    6b72:	2001      	movs	r0, #1
    6b74:	bd10      	pop	{r4, pc}
    6b76:	46c0      	nop			; (mov r8, r8)

00006b78 <__aeabi_fcmpge>:
    6b78:	b510      	push	{r4, lr}
    6b7a:	f000 fafd 	bl	7178 <__gesf2>
    6b7e:	2800      	cmp	r0, #0
    6b80:	da01      	bge.n	6b86 <__aeabi_fcmpge+0xe>
    6b82:	2000      	movs	r0, #0
    6b84:	bd10      	pop	{r4, pc}
    6b86:	2001      	movs	r0, #1
    6b88:	bd10      	pop	{r4, pc}
    6b8a:	46c0      	nop			; (mov r8, r8)

00006b8c <__aeabi_lmul>:
    6b8c:	469c      	mov	ip, r3
    6b8e:	0403      	lsls	r3, r0, #16
    6b90:	b5f0      	push	{r4, r5, r6, r7, lr}
    6b92:	0c1b      	lsrs	r3, r3, #16
    6b94:	0417      	lsls	r7, r2, #16
    6b96:	0c3f      	lsrs	r7, r7, #16
    6b98:	0c15      	lsrs	r5, r2, #16
    6b9a:	1c1e      	adds	r6, r3, #0
    6b9c:	1c04      	adds	r4, r0, #0
    6b9e:	0c00      	lsrs	r0, r0, #16
    6ba0:	437e      	muls	r6, r7
    6ba2:	436b      	muls	r3, r5
    6ba4:	4347      	muls	r7, r0
    6ba6:	4345      	muls	r5, r0
    6ba8:	18fb      	adds	r3, r7, r3
    6baa:	0c30      	lsrs	r0, r6, #16
    6bac:	1818      	adds	r0, r3, r0
    6bae:	4287      	cmp	r7, r0
    6bb0:	d902      	bls.n	6bb8 <__aeabi_lmul+0x2c>
    6bb2:	2380      	movs	r3, #128	; 0x80
    6bb4:	025b      	lsls	r3, r3, #9
    6bb6:	18ed      	adds	r5, r5, r3
    6bb8:	0c03      	lsrs	r3, r0, #16
    6bba:	18ed      	adds	r5, r5, r3
    6bbc:	4663      	mov	r3, ip
    6bbe:	435c      	muls	r4, r3
    6bc0:	434a      	muls	r2, r1
    6bc2:	0436      	lsls	r6, r6, #16
    6bc4:	0c36      	lsrs	r6, r6, #16
    6bc6:	18a1      	adds	r1, r4, r2
    6bc8:	0400      	lsls	r0, r0, #16
    6bca:	1980      	adds	r0, r0, r6
    6bcc:	1949      	adds	r1, r1, r5
    6bce:	bdf0      	pop	{r4, r5, r6, r7, pc}

00006bd0 <__aeabi_f2uiz>:
    6bd0:	219e      	movs	r1, #158	; 0x9e
    6bd2:	b510      	push	{r4, lr}
    6bd4:	05c9      	lsls	r1, r1, #23
    6bd6:	1c04      	adds	r4, r0, #0
    6bd8:	f7ff ffce 	bl	6b78 <__aeabi_fcmpge>
    6bdc:	2800      	cmp	r0, #0
    6bde:	d103      	bne.n	6be8 <__aeabi_f2uiz+0x18>
    6be0:	1c20      	adds	r0, r4, #0
    6be2:	f000 fdfd 	bl	77e0 <__aeabi_f2iz>
    6be6:	bd10      	pop	{r4, pc}
    6be8:	219e      	movs	r1, #158	; 0x9e
    6bea:	05c9      	lsls	r1, r1, #23
    6bec:	1c20      	adds	r0, r4, #0
    6bee:	f000 fc81 	bl	74f4 <__aeabi_fsub>
    6bf2:	f000 fdf5 	bl	77e0 <__aeabi_f2iz>
    6bf6:	2380      	movs	r3, #128	; 0x80
    6bf8:	061b      	lsls	r3, r3, #24
    6bfa:	18c0      	adds	r0, r0, r3
    6bfc:	e7f3      	b.n	6be6 <__aeabi_f2uiz+0x16>
    6bfe:	46c0      	nop			; (mov r8, r8)

00006c00 <__aeabi_fadd>:
    6c00:	b5f8      	push	{r3, r4, r5, r6, r7, lr}
    6c02:	0243      	lsls	r3, r0, #9
    6c04:	0044      	lsls	r4, r0, #1
    6c06:	0fc5      	lsrs	r5, r0, #31
    6c08:	024e      	lsls	r6, r1, #9
    6c0a:	0048      	lsls	r0, r1, #1
    6c0c:	0e24      	lsrs	r4, r4, #24
    6c0e:	1c2a      	adds	r2, r5, #0
    6c10:	099b      	lsrs	r3, r3, #6
    6c12:	0e00      	lsrs	r0, r0, #24
    6c14:	0fc9      	lsrs	r1, r1, #31
    6c16:	09b6      	lsrs	r6, r6, #6
    6c18:	428d      	cmp	r5, r1
    6c1a:	d05b      	beq.n	6cd4 <__aeabi_fadd+0xd4>
    6c1c:	1a22      	subs	r2, r4, r0
    6c1e:	2a00      	cmp	r2, #0
    6c20:	dc00      	bgt.n	6c24 <__aeabi_fadd+0x24>
    6c22:	e089      	b.n	6d38 <__aeabi_fadd+0x138>
    6c24:	2800      	cmp	r0, #0
    6c26:	d11d      	bne.n	6c64 <__aeabi_fadd+0x64>
    6c28:	2e00      	cmp	r6, #0
    6c2a:	d000      	beq.n	6c2e <__aeabi_fadd+0x2e>
    6c2c:	e075      	b.n	6d1a <__aeabi_fadd+0x11a>
    6c2e:	0758      	lsls	r0, r3, #29
    6c30:	d004      	beq.n	6c3c <__aeabi_fadd+0x3c>
    6c32:	220f      	movs	r2, #15
    6c34:	401a      	ands	r2, r3
    6c36:	2a04      	cmp	r2, #4
    6c38:	d000      	beq.n	6c3c <__aeabi_fadd+0x3c>
    6c3a:	3304      	adds	r3, #4
    6c3c:	2180      	movs	r1, #128	; 0x80
    6c3e:	04c9      	lsls	r1, r1, #19
    6c40:	4019      	ands	r1, r3
    6c42:	1c2a      	adds	r2, r5, #0
    6c44:	2900      	cmp	r1, #0
    6c46:	d03a      	beq.n	6cbe <__aeabi_fadd+0xbe>
    6c48:	3401      	adds	r4, #1
    6c4a:	2cff      	cmp	r4, #255	; 0xff
    6c4c:	d100      	bne.n	6c50 <__aeabi_fadd+0x50>
    6c4e:	e07f      	b.n	6d50 <__aeabi_fadd+0x150>
    6c50:	019b      	lsls	r3, r3, #6
    6c52:	0a5b      	lsrs	r3, r3, #9
    6c54:	025b      	lsls	r3, r3, #9
    6c56:	b2e4      	uxtb	r4, r4
    6c58:	05e4      	lsls	r4, r4, #23
    6c5a:	0a58      	lsrs	r0, r3, #9
    6c5c:	07d2      	lsls	r2, r2, #31
    6c5e:	4320      	orrs	r0, r4
    6c60:	4310      	orrs	r0, r2
    6c62:	bdf8      	pop	{r3, r4, r5, r6, r7, pc}
    6c64:	2cff      	cmp	r4, #255	; 0xff
    6c66:	d0e2      	beq.n	6c2e <__aeabi_fadd+0x2e>
    6c68:	2180      	movs	r1, #128	; 0x80
    6c6a:	04c9      	lsls	r1, r1, #19
    6c6c:	430e      	orrs	r6, r1
    6c6e:	2a1b      	cmp	r2, #27
    6c70:	dd00      	ble.n	6c74 <__aeabi_fadd+0x74>
    6c72:	e12d      	b.n	6ed0 <__aeabi_fadd+0x2d0>
    6c74:	1c31      	adds	r1, r6, #0
    6c76:	2020      	movs	r0, #32
    6c78:	40d1      	lsrs	r1, r2
    6c7a:	1a82      	subs	r2, r0, r2
    6c7c:	4096      	lsls	r6, r2
    6c7e:	1e72      	subs	r2, r6, #1
    6c80:	4196      	sbcs	r6, r2
    6c82:	430e      	orrs	r6, r1
    6c84:	1b9b      	subs	r3, r3, r6
    6c86:	0158      	lsls	r0, r3, #5
    6c88:	d5d1      	bpl.n	6c2e <__aeabi_fadd+0x2e>
    6c8a:	019b      	lsls	r3, r3, #6
    6c8c:	099f      	lsrs	r7, r3, #6
    6c8e:	1c38      	adds	r0, r7, #0
    6c90:	f002 fd46 	bl	9720 <__clzsi2>
    6c94:	1f42      	subs	r2, r0, #5
    6c96:	4097      	lsls	r7, r2
    6c98:	4294      	cmp	r4, r2
    6c9a:	dc5b      	bgt.n	6d54 <__aeabi_fadd+0x154>
    6c9c:	1b14      	subs	r4, r2, r4
    6c9e:	231f      	movs	r3, #31
    6ca0:	1b1b      	subs	r3, r3, r4
    6ca2:	1c3a      	adds	r2, r7, #0
    6ca4:	409f      	lsls	r7, r3
    6ca6:	1c61      	adds	r1, r4, #1
    6ca8:	1c3b      	adds	r3, r7, #0
    6caa:	40ca      	lsrs	r2, r1
    6cac:	1e5f      	subs	r7, r3, #1
    6cae:	41bb      	sbcs	r3, r7
    6cb0:	4313      	orrs	r3, r2
    6cb2:	2400      	movs	r4, #0
    6cb4:	e7bb      	b.n	6c2e <__aeabi_fadd+0x2e>
    6cb6:	1e13      	subs	r3, r2, #0
    6cb8:	d1b9      	bne.n	6c2e <__aeabi_fadd+0x2e>
    6cba:	2300      	movs	r3, #0
    6cbc:	2200      	movs	r2, #0
    6cbe:	08db      	lsrs	r3, r3, #3
    6cc0:	2cff      	cmp	r4, #255	; 0xff
    6cc2:	d104      	bne.n	6cce <__aeabi_fadd+0xce>
    6cc4:	2b00      	cmp	r3, #0
    6cc6:	d043      	beq.n	6d50 <__aeabi_fadd+0x150>
    6cc8:	2080      	movs	r0, #128	; 0x80
    6cca:	03c0      	lsls	r0, r0, #15
    6ccc:	4303      	orrs	r3, r0
    6cce:	025b      	lsls	r3, r3, #9
    6cd0:	0a5b      	lsrs	r3, r3, #9
    6cd2:	e7bf      	b.n	6c54 <__aeabi_fadd+0x54>
    6cd4:	1a21      	subs	r1, r4, r0
    6cd6:	2900      	cmp	r1, #0
    6cd8:	dd40      	ble.n	6d5c <__aeabi_fadd+0x15c>
    6cda:	2800      	cmp	r0, #0
    6cdc:	d023      	beq.n	6d26 <__aeabi_fadd+0x126>
    6cde:	2cff      	cmp	r4, #255	; 0xff
    6ce0:	d0a5      	beq.n	6c2e <__aeabi_fadd+0x2e>
    6ce2:	2080      	movs	r0, #128	; 0x80
    6ce4:	04c0      	lsls	r0, r0, #19
    6ce6:	4306      	orrs	r6, r0
    6ce8:	291b      	cmp	r1, #27
    6cea:	dd00      	ble.n	6cee <__aeabi_fadd+0xee>
    6cec:	e0ee      	b.n	6ecc <__aeabi_fadd+0x2cc>
    6cee:	1c30      	adds	r0, r6, #0
    6cf0:	2720      	movs	r7, #32
    6cf2:	40c8      	lsrs	r0, r1
    6cf4:	1a79      	subs	r1, r7, r1
    6cf6:	408e      	lsls	r6, r1
    6cf8:	1e71      	subs	r1, r6, #1
    6cfa:	418e      	sbcs	r6, r1
    6cfc:	4306      	orrs	r6, r0
    6cfe:	199b      	adds	r3, r3, r6
    6d00:	0159      	lsls	r1, r3, #5
    6d02:	d400      	bmi.n	6d06 <__aeabi_fadd+0x106>
    6d04:	e793      	b.n	6c2e <__aeabi_fadd+0x2e>
    6d06:	3401      	adds	r4, #1
    6d08:	2cff      	cmp	r4, #255	; 0xff
    6d0a:	d055      	beq.n	6db8 <__aeabi_fadd+0x1b8>
    6d0c:	4971      	ldr	r1, [pc, #452]	; (6ed4 <__aeabi_fadd+0x2d4>)
    6d0e:	2201      	movs	r2, #1
    6d10:	401a      	ands	r2, r3
    6d12:	400b      	ands	r3, r1
    6d14:	085b      	lsrs	r3, r3, #1
    6d16:	4313      	orrs	r3, r2
    6d18:	e789      	b.n	6c2e <__aeabi_fadd+0x2e>
    6d1a:	3a01      	subs	r2, #1
    6d1c:	2a00      	cmp	r2, #0
    6d1e:	d0b1      	beq.n	6c84 <__aeabi_fadd+0x84>
    6d20:	2cff      	cmp	r4, #255	; 0xff
    6d22:	d1a4      	bne.n	6c6e <__aeabi_fadd+0x6e>
    6d24:	e783      	b.n	6c2e <__aeabi_fadd+0x2e>
    6d26:	2e00      	cmp	r6, #0
    6d28:	d100      	bne.n	6d2c <__aeabi_fadd+0x12c>
    6d2a:	e780      	b.n	6c2e <__aeabi_fadd+0x2e>
    6d2c:	3901      	subs	r1, #1
    6d2e:	2900      	cmp	r1, #0
    6d30:	d0e5      	beq.n	6cfe <__aeabi_fadd+0xfe>
    6d32:	2cff      	cmp	r4, #255	; 0xff
    6d34:	d1d8      	bne.n	6ce8 <__aeabi_fadd+0xe8>
    6d36:	e77a      	b.n	6c2e <__aeabi_fadd+0x2e>
    6d38:	2a00      	cmp	r2, #0
    6d3a:	d11b      	bne.n	6d74 <__aeabi_fadd+0x174>
    6d3c:	1c62      	adds	r2, r4, #1
    6d3e:	b2d2      	uxtb	r2, r2
    6d40:	2a01      	cmp	r2, #1
    6d42:	dd4b      	ble.n	6ddc <__aeabi_fadd+0x1dc>
    6d44:	1b9f      	subs	r7, r3, r6
    6d46:	017a      	lsls	r2, r7, #5
    6d48:	d523      	bpl.n	6d92 <__aeabi_fadd+0x192>
    6d4a:	1af7      	subs	r7, r6, r3
    6d4c:	1c0d      	adds	r5, r1, #0
    6d4e:	e79e      	b.n	6c8e <__aeabi_fadd+0x8e>
    6d50:	2300      	movs	r3, #0
    6d52:	e77f      	b.n	6c54 <__aeabi_fadd+0x54>
    6d54:	4b5f      	ldr	r3, [pc, #380]	; (6ed4 <__aeabi_fadd+0x2d4>)
    6d56:	1aa4      	subs	r4, r4, r2
    6d58:	403b      	ands	r3, r7
    6d5a:	e768      	b.n	6c2e <__aeabi_fadd+0x2e>
    6d5c:	2900      	cmp	r1, #0
    6d5e:	d146      	bne.n	6dee <__aeabi_fadd+0x1ee>
    6d60:	1c61      	adds	r1, r4, #1
    6d62:	b2c8      	uxtb	r0, r1
    6d64:	2801      	cmp	r0, #1
    6d66:	dd29      	ble.n	6dbc <__aeabi_fadd+0x1bc>
    6d68:	29ff      	cmp	r1, #255	; 0xff
    6d6a:	d024      	beq.n	6db6 <__aeabi_fadd+0x1b6>
    6d6c:	18f3      	adds	r3, r6, r3
    6d6e:	085b      	lsrs	r3, r3, #1
    6d70:	1c0c      	adds	r4, r1, #0
    6d72:	e75c      	b.n	6c2e <__aeabi_fadd+0x2e>
    6d74:	2c00      	cmp	r4, #0
    6d76:	d013      	beq.n	6da0 <__aeabi_fadd+0x1a0>
    6d78:	28ff      	cmp	r0, #255	; 0xff
    6d7a:	d018      	beq.n	6dae <__aeabi_fadd+0x1ae>
    6d7c:	2480      	movs	r4, #128	; 0x80
    6d7e:	04e4      	lsls	r4, r4, #19
    6d80:	4252      	negs	r2, r2
    6d82:	4323      	orrs	r3, r4
    6d84:	2a1b      	cmp	r2, #27
    6d86:	dd4d      	ble.n	6e24 <__aeabi_fadd+0x224>
    6d88:	2301      	movs	r3, #1
    6d8a:	1af3      	subs	r3, r6, r3
    6d8c:	1c04      	adds	r4, r0, #0
    6d8e:	1c0d      	adds	r5, r1, #0
    6d90:	e779      	b.n	6c86 <__aeabi_fadd+0x86>
    6d92:	2f00      	cmp	r7, #0
    6d94:	d000      	beq.n	6d98 <__aeabi_fadd+0x198>
    6d96:	e77a      	b.n	6c8e <__aeabi_fadd+0x8e>
    6d98:	2300      	movs	r3, #0
    6d9a:	2200      	movs	r2, #0
    6d9c:	2400      	movs	r4, #0
    6d9e:	e78e      	b.n	6cbe <__aeabi_fadd+0xbe>
    6da0:	2b00      	cmp	r3, #0
    6da2:	d03b      	beq.n	6e1c <__aeabi_fadd+0x21c>
    6da4:	43d2      	mvns	r2, r2
    6da6:	2a00      	cmp	r2, #0
    6da8:	d0ef      	beq.n	6d8a <__aeabi_fadd+0x18a>
    6daa:	28ff      	cmp	r0, #255	; 0xff
    6dac:	d1ea      	bne.n	6d84 <__aeabi_fadd+0x184>
    6dae:	1c33      	adds	r3, r6, #0
    6db0:	24ff      	movs	r4, #255	; 0xff
    6db2:	1c0d      	adds	r5, r1, #0
    6db4:	e73b      	b.n	6c2e <__aeabi_fadd+0x2e>
    6db6:	24ff      	movs	r4, #255	; 0xff
    6db8:	2300      	movs	r3, #0
    6dba:	e780      	b.n	6cbe <__aeabi_fadd+0xbe>
    6dbc:	2c00      	cmp	r4, #0
    6dbe:	d15c      	bne.n	6e7a <__aeabi_fadd+0x27a>
    6dc0:	2b00      	cmp	r3, #0
    6dc2:	d100      	bne.n	6dc6 <__aeabi_fadd+0x1c6>
    6dc4:	e080      	b.n	6ec8 <__aeabi_fadd+0x2c8>
    6dc6:	2e00      	cmp	r6, #0
    6dc8:	d100      	bne.n	6dcc <__aeabi_fadd+0x1cc>
    6dca:	e730      	b.n	6c2e <__aeabi_fadd+0x2e>
    6dcc:	199b      	adds	r3, r3, r6
    6dce:	0158      	lsls	r0, r3, #5
    6dd0:	d400      	bmi.n	6dd4 <__aeabi_fadd+0x1d4>
    6dd2:	e72c      	b.n	6c2e <__aeabi_fadd+0x2e>
    6dd4:	4a3f      	ldr	r2, [pc, #252]	; (6ed4 <__aeabi_fadd+0x2d4>)
    6dd6:	2401      	movs	r4, #1
    6dd8:	4013      	ands	r3, r2
    6dda:	e728      	b.n	6c2e <__aeabi_fadd+0x2e>
    6ddc:	2c00      	cmp	r4, #0
    6dde:	d115      	bne.n	6e0c <__aeabi_fadd+0x20c>
    6de0:	2b00      	cmp	r3, #0
    6de2:	d140      	bne.n	6e66 <__aeabi_fadd+0x266>
    6de4:	2e00      	cmp	r6, #0
    6de6:	d063      	beq.n	6eb0 <__aeabi_fadd+0x2b0>
    6de8:	1c33      	adds	r3, r6, #0
    6dea:	1c0d      	adds	r5, r1, #0
    6dec:	e71f      	b.n	6c2e <__aeabi_fadd+0x2e>
    6dee:	2c00      	cmp	r4, #0
    6df0:	d121      	bne.n	6e36 <__aeabi_fadd+0x236>
    6df2:	2b00      	cmp	r3, #0
    6df4:	d054      	beq.n	6ea0 <__aeabi_fadd+0x2a0>
    6df6:	43c9      	mvns	r1, r1
    6df8:	2900      	cmp	r1, #0
    6dfa:	d004      	beq.n	6e06 <__aeabi_fadd+0x206>
    6dfc:	28ff      	cmp	r0, #255	; 0xff
    6dfe:	d04c      	beq.n	6e9a <__aeabi_fadd+0x29a>
    6e00:	291b      	cmp	r1, #27
    6e02:	dd58      	ble.n	6eb6 <__aeabi_fadd+0x2b6>
    6e04:	2301      	movs	r3, #1
    6e06:	199b      	adds	r3, r3, r6
    6e08:	1c04      	adds	r4, r0, #0
    6e0a:	e779      	b.n	6d00 <__aeabi_fadd+0x100>
    6e0c:	2b00      	cmp	r3, #0
    6e0e:	d119      	bne.n	6e44 <__aeabi_fadd+0x244>
    6e10:	2e00      	cmp	r6, #0
    6e12:	d048      	beq.n	6ea6 <__aeabi_fadd+0x2a6>
    6e14:	1c33      	adds	r3, r6, #0
    6e16:	1c0d      	adds	r5, r1, #0
    6e18:	24ff      	movs	r4, #255	; 0xff
    6e1a:	e708      	b.n	6c2e <__aeabi_fadd+0x2e>
    6e1c:	1c33      	adds	r3, r6, #0
    6e1e:	1c04      	adds	r4, r0, #0
    6e20:	1c0d      	adds	r5, r1, #0
    6e22:	e704      	b.n	6c2e <__aeabi_fadd+0x2e>
    6e24:	1c1c      	adds	r4, r3, #0
    6e26:	2520      	movs	r5, #32
    6e28:	40d4      	lsrs	r4, r2
    6e2a:	1aaa      	subs	r2, r5, r2
    6e2c:	4093      	lsls	r3, r2
    6e2e:	1e5a      	subs	r2, r3, #1
    6e30:	4193      	sbcs	r3, r2
    6e32:	4323      	orrs	r3, r4
    6e34:	e7a9      	b.n	6d8a <__aeabi_fadd+0x18a>
    6e36:	28ff      	cmp	r0, #255	; 0xff
    6e38:	d02f      	beq.n	6e9a <__aeabi_fadd+0x29a>
    6e3a:	2480      	movs	r4, #128	; 0x80
    6e3c:	04e4      	lsls	r4, r4, #19
    6e3e:	4249      	negs	r1, r1
    6e40:	4323      	orrs	r3, r4
    6e42:	e7dd      	b.n	6e00 <__aeabi_fadd+0x200>
    6e44:	24ff      	movs	r4, #255	; 0xff
    6e46:	2e00      	cmp	r6, #0
    6e48:	d100      	bne.n	6e4c <__aeabi_fadd+0x24c>
    6e4a:	e6f0      	b.n	6c2e <__aeabi_fadd+0x2e>
    6e4c:	2280      	movs	r2, #128	; 0x80
    6e4e:	08db      	lsrs	r3, r3, #3
    6e50:	03d2      	lsls	r2, r2, #15
    6e52:	4213      	tst	r3, r2
    6e54:	d004      	beq.n	6e60 <__aeabi_fadd+0x260>
    6e56:	08f6      	lsrs	r6, r6, #3
    6e58:	4216      	tst	r6, r2
    6e5a:	d101      	bne.n	6e60 <__aeabi_fadd+0x260>
    6e5c:	1c33      	adds	r3, r6, #0
    6e5e:	1c0d      	adds	r5, r1, #0
    6e60:	00db      	lsls	r3, r3, #3
    6e62:	24ff      	movs	r4, #255	; 0xff
    6e64:	e6e3      	b.n	6c2e <__aeabi_fadd+0x2e>
    6e66:	2e00      	cmp	r6, #0
    6e68:	d100      	bne.n	6e6c <__aeabi_fadd+0x26c>
    6e6a:	e6e0      	b.n	6c2e <__aeabi_fadd+0x2e>
    6e6c:	1b9a      	subs	r2, r3, r6
    6e6e:	0150      	lsls	r0, r2, #5
    6e70:	d400      	bmi.n	6e74 <__aeabi_fadd+0x274>
    6e72:	e720      	b.n	6cb6 <__aeabi_fadd+0xb6>
    6e74:	1af3      	subs	r3, r6, r3
    6e76:	1c0d      	adds	r5, r1, #0
    6e78:	e6d9      	b.n	6c2e <__aeabi_fadd+0x2e>
    6e7a:	2b00      	cmp	r3, #0
    6e7c:	d00d      	beq.n	6e9a <__aeabi_fadd+0x29a>
    6e7e:	24ff      	movs	r4, #255	; 0xff
    6e80:	2e00      	cmp	r6, #0
    6e82:	d100      	bne.n	6e86 <__aeabi_fadd+0x286>
    6e84:	e6d3      	b.n	6c2e <__aeabi_fadd+0x2e>
    6e86:	2280      	movs	r2, #128	; 0x80
    6e88:	08db      	lsrs	r3, r3, #3
    6e8a:	03d2      	lsls	r2, r2, #15
    6e8c:	4213      	tst	r3, r2
    6e8e:	d0e7      	beq.n	6e60 <__aeabi_fadd+0x260>
    6e90:	08f6      	lsrs	r6, r6, #3
    6e92:	4216      	tst	r6, r2
    6e94:	d1e4      	bne.n	6e60 <__aeabi_fadd+0x260>
    6e96:	1c33      	adds	r3, r6, #0
    6e98:	e7e2      	b.n	6e60 <__aeabi_fadd+0x260>
    6e9a:	1c33      	adds	r3, r6, #0
    6e9c:	24ff      	movs	r4, #255	; 0xff
    6e9e:	e6c6      	b.n	6c2e <__aeabi_fadd+0x2e>
    6ea0:	1c33      	adds	r3, r6, #0
    6ea2:	1c04      	adds	r4, r0, #0
    6ea4:	e6c3      	b.n	6c2e <__aeabi_fadd+0x2e>
    6ea6:	2380      	movs	r3, #128	; 0x80
    6ea8:	2200      	movs	r2, #0
    6eaa:	049b      	lsls	r3, r3, #18
    6eac:	24ff      	movs	r4, #255	; 0xff
    6eae:	e706      	b.n	6cbe <__aeabi_fadd+0xbe>
    6eb0:	1c23      	adds	r3, r4, #0
    6eb2:	2200      	movs	r2, #0
    6eb4:	e703      	b.n	6cbe <__aeabi_fadd+0xbe>
    6eb6:	1c1c      	adds	r4, r3, #0
    6eb8:	2720      	movs	r7, #32
    6eba:	40cc      	lsrs	r4, r1
    6ebc:	1a79      	subs	r1, r7, r1
    6ebe:	408b      	lsls	r3, r1
    6ec0:	1e59      	subs	r1, r3, #1
    6ec2:	418b      	sbcs	r3, r1
    6ec4:	4323      	orrs	r3, r4
    6ec6:	e79e      	b.n	6e06 <__aeabi_fadd+0x206>
    6ec8:	1c33      	adds	r3, r6, #0
    6eca:	e6b0      	b.n	6c2e <__aeabi_fadd+0x2e>
    6ecc:	2601      	movs	r6, #1
    6ece:	e716      	b.n	6cfe <__aeabi_fadd+0xfe>
    6ed0:	2601      	movs	r6, #1
    6ed2:	e6d7      	b.n	6c84 <__aeabi_fadd+0x84>
    6ed4:	fbffffff 	.word	0xfbffffff

00006ed8 <__aeabi_fdiv>:
    6ed8:	b5f0      	push	{r4, r5, r6, r7, lr}
    6eda:	465f      	mov	r7, fp
    6edc:	4656      	mov	r6, sl
    6ede:	464d      	mov	r5, r9
    6ee0:	4644      	mov	r4, r8
    6ee2:	b4f0      	push	{r4, r5, r6, r7}
    6ee4:	0246      	lsls	r6, r0, #9
    6ee6:	0045      	lsls	r5, r0, #1
    6ee8:	0fc0      	lsrs	r0, r0, #31
    6eea:	b085      	sub	sp, #20
    6eec:	1c0f      	adds	r7, r1, #0
    6eee:	0a76      	lsrs	r6, r6, #9
    6ef0:	0e2d      	lsrs	r5, r5, #24
    6ef2:	4680      	mov	r8, r0
    6ef4:	d041      	beq.n	6f7a <__aeabi_fdiv+0xa2>
    6ef6:	2dff      	cmp	r5, #255	; 0xff
    6ef8:	d026      	beq.n	6f48 <__aeabi_fdiv+0x70>
    6efa:	2480      	movs	r4, #128	; 0x80
    6efc:	0424      	lsls	r4, r4, #16
    6efe:	2100      	movs	r1, #0
    6f00:	4326      	orrs	r6, r4
    6f02:	00f6      	lsls	r6, r6, #3
    6f04:	3d7f      	subs	r5, #127	; 0x7f
    6f06:	4689      	mov	r9, r1
    6f08:	468b      	mov	fp, r1
    6f0a:	0ff9      	lsrs	r1, r7, #31
    6f0c:	027c      	lsls	r4, r7, #9
    6f0e:	0078      	lsls	r0, r7, #1
    6f10:	0a64      	lsrs	r4, r4, #9
    6f12:	0e00      	lsrs	r0, r0, #24
    6f14:	9100      	str	r1, [sp, #0]
    6f16:	468a      	mov	sl, r1
    6f18:	d03c      	beq.n	6f94 <__aeabi_fdiv+0xbc>
    6f1a:	28ff      	cmp	r0, #255	; 0xff
    6f1c:	d034      	beq.n	6f88 <__aeabi_fdiv+0xb0>
    6f1e:	2380      	movs	r3, #128	; 0x80
    6f20:	041b      	lsls	r3, r3, #16
    6f22:	431c      	orrs	r4, r3
    6f24:	2300      	movs	r3, #0
    6f26:	00e4      	lsls	r4, r4, #3
    6f28:	387f      	subs	r0, #127	; 0x7f
    6f2a:	9301      	str	r3, [sp, #4]
    6f2c:	9f00      	ldr	r7, [sp, #0]
    6f2e:	4643      	mov	r3, r8
    6f30:	9a01      	ldr	r2, [sp, #4]
    6f32:	407b      	eors	r3, r7
    6f34:	4649      	mov	r1, r9
    6f36:	469c      	mov	ip, r3
    6f38:	4311      	orrs	r1, r2
    6f3a:	290f      	cmp	r1, #15
    6f3c:	d900      	bls.n	6f40 <__aeabi_fdiv+0x68>
    6f3e:	e071      	b.n	7024 <__aeabi_fdiv+0x14c>
    6f40:	4f76      	ldr	r7, [pc, #472]	; (711c <__aeabi_fdiv+0x244>)
    6f42:	0089      	lsls	r1, r1, #2
    6f44:	587f      	ldr	r7, [r7, r1]
    6f46:	46bf      	mov	pc, r7
    6f48:	2e00      	cmp	r6, #0
    6f4a:	d13e      	bne.n	6fca <__aeabi_fdiv+0xf2>
    6f4c:	2208      	movs	r2, #8
    6f4e:	2302      	movs	r3, #2
    6f50:	4691      	mov	r9, r2
    6f52:	469b      	mov	fp, r3
    6f54:	e7d9      	b.n	6f0a <__aeabi_fdiv+0x32>
    6f56:	465a      	mov	r2, fp
    6f58:	1c34      	adds	r4, r6, #0
    6f5a:	46c2      	mov	sl, r8
    6f5c:	9201      	str	r2, [sp, #4]
    6f5e:	9901      	ldr	r1, [sp, #4]
    6f60:	2902      	cmp	r1, #2
    6f62:	d037      	beq.n	6fd4 <__aeabi_fdiv+0xfc>
    6f64:	2903      	cmp	r1, #3
    6f66:	d100      	bne.n	6f6a <__aeabi_fdiv+0x92>
    6f68:	e0cf      	b.n	710a <__aeabi_fdiv+0x232>
    6f6a:	2901      	cmp	r1, #1
    6f6c:	d000      	beq.n	6f70 <__aeabi_fdiv+0x98>
    6f6e:	e0ab      	b.n	70c8 <__aeabi_fdiv+0x1f0>
    6f70:	4653      	mov	r3, sl
    6f72:	400b      	ands	r3, r1
    6f74:	2200      	movs	r2, #0
    6f76:	2600      	movs	r6, #0
    6f78:	e032      	b.n	6fe0 <__aeabi_fdiv+0x108>
    6f7a:	2e00      	cmp	r6, #0
    6f7c:	d119      	bne.n	6fb2 <__aeabi_fdiv+0xda>
    6f7e:	2104      	movs	r1, #4
    6f80:	2201      	movs	r2, #1
    6f82:	4689      	mov	r9, r1
    6f84:	4693      	mov	fp, r2
    6f86:	e7c0      	b.n	6f0a <__aeabi_fdiv+0x32>
    6f88:	1c22      	adds	r2, r4, #0
    6f8a:	1e53      	subs	r3, r2, #1
    6f8c:	419a      	sbcs	r2, r3
    6f8e:	3202      	adds	r2, #2
    6f90:	9201      	str	r2, [sp, #4]
    6f92:	e7cb      	b.n	6f2c <__aeabi_fdiv+0x54>
    6f94:	2701      	movs	r7, #1
    6f96:	9701      	str	r7, [sp, #4]
    6f98:	2c00      	cmp	r4, #0
    6f9a:	d0c7      	beq.n	6f2c <__aeabi_fdiv+0x54>
    6f9c:	1c20      	adds	r0, r4, #0
    6f9e:	f002 fbbf 	bl	9720 <__clzsi2>
    6fa2:	1f43      	subs	r3, r0, #5
    6fa4:	409c      	lsls	r4, r3
    6fa6:	2376      	movs	r3, #118	; 0x76
    6fa8:	425b      	negs	r3, r3
    6faa:	2100      	movs	r1, #0
    6fac:	1a18      	subs	r0, r3, r0
    6fae:	9101      	str	r1, [sp, #4]
    6fb0:	e7bc      	b.n	6f2c <__aeabi_fdiv+0x54>
    6fb2:	1c30      	adds	r0, r6, #0
    6fb4:	f002 fbb4 	bl	9720 <__clzsi2>
    6fb8:	2576      	movs	r5, #118	; 0x76
    6fba:	1f43      	subs	r3, r0, #5
    6fbc:	409e      	lsls	r6, r3
    6fbe:	426d      	negs	r5, r5
    6fc0:	2300      	movs	r3, #0
    6fc2:	1a2d      	subs	r5, r5, r0
    6fc4:	4699      	mov	r9, r3
    6fc6:	469b      	mov	fp, r3
    6fc8:	e79f      	b.n	6f0a <__aeabi_fdiv+0x32>
    6fca:	230c      	movs	r3, #12
    6fcc:	2103      	movs	r1, #3
    6fce:	4699      	mov	r9, r3
    6fd0:	468b      	mov	fp, r1
    6fd2:	e79a      	b.n	6f0a <__aeabi_fdiv+0x32>
    6fd4:	46d4      	mov	ip, sl
    6fd6:	2301      	movs	r3, #1
    6fd8:	4667      	mov	r7, ip
    6fda:	403b      	ands	r3, r7
    6fdc:	22ff      	movs	r2, #255	; 0xff
    6fde:	2600      	movs	r6, #0
    6fe0:	0276      	lsls	r6, r6, #9
    6fe2:	05d2      	lsls	r2, r2, #23
    6fe4:	0a70      	lsrs	r0, r6, #9
    6fe6:	07db      	lsls	r3, r3, #31
    6fe8:	4310      	orrs	r0, r2
    6fea:	4318      	orrs	r0, r3
    6fec:	b005      	add	sp, #20
    6fee:	bc3c      	pop	{r2, r3, r4, r5}
    6ff0:	4690      	mov	r8, r2
    6ff2:	4699      	mov	r9, r3
    6ff4:	46a2      	mov	sl, r4
    6ff6:	46ab      	mov	fp, r5
    6ff8:	bdf0      	pop	{r4, r5, r6, r7, pc}
    6ffa:	2680      	movs	r6, #128	; 0x80
    6ffc:	2300      	movs	r3, #0
    6ffe:	03f6      	lsls	r6, r6, #15
    7000:	22ff      	movs	r2, #255	; 0xff
    7002:	e7ed      	b.n	6fe0 <__aeabi_fdiv+0x108>
    7004:	2200      	movs	r2, #0
    7006:	2600      	movs	r6, #0
    7008:	e7ea      	b.n	6fe0 <__aeabi_fdiv+0x108>
    700a:	2080      	movs	r0, #128	; 0x80
    700c:	03c0      	lsls	r0, r0, #15
    700e:	4206      	tst	r6, r0
    7010:	d03b      	beq.n	708a <__aeabi_fdiv+0x1b2>
    7012:	4204      	tst	r4, r0
    7014:	d139      	bne.n	708a <__aeabi_fdiv+0x1b2>
    7016:	1c06      	adds	r6, r0, #0
    7018:	4326      	orrs	r6, r4
    701a:	0276      	lsls	r6, r6, #9
    701c:	0a76      	lsrs	r6, r6, #9
    701e:	9b00      	ldr	r3, [sp, #0]
    7020:	22ff      	movs	r2, #255	; 0xff
    7022:	e7dd      	b.n	6fe0 <__aeabi_fdiv+0x108>
    7024:	1a28      	subs	r0, r5, r0
    7026:	9003      	str	r0, [sp, #12]
    7028:	0176      	lsls	r6, r6, #5
    702a:	0164      	lsls	r4, r4, #5
    702c:	42a6      	cmp	r6, r4
    702e:	d339      	bcc.n	70a4 <__aeabi_fdiv+0x1cc>
    7030:	1b36      	subs	r6, r6, r4
    7032:	221a      	movs	r2, #26
    7034:	2301      	movs	r3, #1
    7036:	2001      	movs	r0, #1
    7038:	1c31      	adds	r1, r6, #0
    703a:	005b      	lsls	r3, r3, #1
    703c:	0076      	lsls	r6, r6, #1
    703e:	2900      	cmp	r1, #0
    7040:	db01      	blt.n	7046 <__aeabi_fdiv+0x16e>
    7042:	42b4      	cmp	r4, r6
    7044:	d801      	bhi.n	704a <__aeabi_fdiv+0x172>
    7046:	1b36      	subs	r6, r6, r4
    7048:	4303      	orrs	r3, r0
    704a:	3a01      	subs	r2, #1
    704c:	2a00      	cmp	r2, #0
    704e:	dcf3      	bgt.n	7038 <__aeabi_fdiv+0x160>
    7050:	1e74      	subs	r4, r6, #1
    7052:	41a6      	sbcs	r6, r4
    7054:	1c34      	adds	r4, r6, #0
    7056:	431c      	orrs	r4, r3
    7058:	9a03      	ldr	r2, [sp, #12]
    705a:	327f      	adds	r2, #127	; 0x7f
    705c:	2a00      	cmp	r2, #0
    705e:	dd27      	ble.n	70b0 <__aeabi_fdiv+0x1d8>
    7060:	0763      	lsls	r3, r4, #29
    7062:	d004      	beq.n	706e <__aeabi_fdiv+0x196>
    7064:	230f      	movs	r3, #15
    7066:	4023      	ands	r3, r4
    7068:	2b04      	cmp	r3, #4
    706a:	d000      	beq.n	706e <__aeabi_fdiv+0x196>
    706c:	3404      	adds	r4, #4
    706e:	0127      	lsls	r7, r4, #4
    7070:	d503      	bpl.n	707a <__aeabi_fdiv+0x1a2>
    7072:	4b2b      	ldr	r3, [pc, #172]	; (7120 <__aeabi_fdiv+0x248>)
    7074:	9a03      	ldr	r2, [sp, #12]
    7076:	401c      	ands	r4, r3
    7078:	3280      	adds	r2, #128	; 0x80
    707a:	2afe      	cmp	r2, #254	; 0xfe
    707c:	dd0b      	ble.n	7096 <__aeabi_fdiv+0x1be>
    707e:	2301      	movs	r3, #1
    7080:	4661      	mov	r1, ip
    7082:	400b      	ands	r3, r1
    7084:	22ff      	movs	r2, #255	; 0xff
    7086:	2600      	movs	r6, #0
    7088:	e7aa      	b.n	6fe0 <__aeabi_fdiv+0x108>
    708a:	4306      	orrs	r6, r0
    708c:	0276      	lsls	r6, r6, #9
    708e:	0a76      	lsrs	r6, r6, #9
    7090:	4643      	mov	r3, r8
    7092:	22ff      	movs	r2, #255	; 0xff
    7094:	e7a4      	b.n	6fe0 <__aeabi_fdiv+0x108>
    7096:	01a4      	lsls	r4, r4, #6
    7098:	2301      	movs	r3, #1
    709a:	4667      	mov	r7, ip
    709c:	0a66      	lsrs	r6, r4, #9
    709e:	b2d2      	uxtb	r2, r2
    70a0:	403b      	ands	r3, r7
    70a2:	e79d      	b.n	6fe0 <__aeabi_fdiv+0x108>
    70a4:	9f03      	ldr	r7, [sp, #12]
    70a6:	221b      	movs	r2, #27
    70a8:	3f01      	subs	r7, #1
    70aa:	9703      	str	r7, [sp, #12]
    70ac:	2300      	movs	r3, #0
    70ae:	e7c2      	b.n	7036 <__aeabi_fdiv+0x15e>
    70b0:	237e      	movs	r3, #126	; 0x7e
    70b2:	9f03      	ldr	r7, [sp, #12]
    70b4:	425b      	negs	r3, r3
    70b6:	1bdb      	subs	r3, r3, r7
    70b8:	2b1b      	cmp	r3, #27
    70ba:	dd07      	ble.n	70cc <__aeabi_fdiv+0x1f4>
    70bc:	2301      	movs	r3, #1
    70be:	4661      	mov	r1, ip
    70c0:	400b      	ands	r3, r1
    70c2:	2200      	movs	r2, #0
    70c4:	2600      	movs	r6, #0
    70c6:	e78b      	b.n	6fe0 <__aeabi_fdiv+0x108>
    70c8:	46d4      	mov	ip, sl
    70ca:	e7c5      	b.n	7058 <__aeabi_fdiv+0x180>
    70cc:	1c22      	adds	r2, r4, #0
    70ce:	40da      	lsrs	r2, r3
    70d0:	9b03      	ldr	r3, [sp, #12]
    70d2:	339e      	adds	r3, #158	; 0x9e
    70d4:	409c      	lsls	r4, r3
    70d6:	1c23      	adds	r3, r4, #0
    70d8:	1e5c      	subs	r4, r3, #1
    70da:	41a3      	sbcs	r3, r4
    70dc:	4313      	orrs	r3, r2
    70de:	075a      	lsls	r2, r3, #29
    70e0:	d004      	beq.n	70ec <__aeabi_fdiv+0x214>
    70e2:	220f      	movs	r2, #15
    70e4:	401a      	ands	r2, r3
    70e6:	2a04      	cmp	r2, #4
    70e8:	d000      	beq.n	70ec <__aeabi_fdiv+0x214>
    70ea:	3304      	adds	r3, #4
    70ec:	015f      	lsls	r7, r3, #5
    70ee:	d505      	bpl.n	70fc <__aeabi_fdiv+0x224>
    70f0:	2301      	movs	r3, #1
    70f2:	4661      	mov	r1, ip
    70f4:	400b      	ands	r3, r1
    70f6:	2201      	movs	r2, #1
    70f8:	2600      	movs	r6, #0
    70fa:	e771      	b.n	6fe0 <__aeabi_fdiv+0x108>
    70fc:	019e      	lsls	r6, r3, #6
    70fe:	4662      	mov	r2, ip
    7100:	2301      	movs	r3, #1
    7102:	4013      	ands	r3, r2
    7104:	0a76      	lsrs	r6, r6, #9
    7106:	2200      	movs	r2, #0
    7108:	e76a      	b.n	6fe0 <__aeabi_fdiv+0x108>
    710a:	2680      	movs	r6, #128	; 0x80
    710c:	03f6      	lsls	r6, r6, #15
    710e:	4326      	orrs	r6, r4
    7110:	0276      	lsls	r6, r6, #9
    7112:	0a76      	lsrs	r6, r6, #9
    7114:	4653      	mov	r3, sl
    7116:	22ff      	movs	r2, #255	; 0xff
    7118:	e762      	b.n	6fe0 <__aeabi_fdiv+0x108>
    711a:	46c0      	nop			; (mov r8, r8)
    711c:	00009e74 	.word	0x00009e74
    7120:	f7ffffff 	.word	0xf7ffffff

00007124 <__eqsf2>:
    7124:	024a      	lsls	r2, r1, #9
    7126:	0243      	lsls	r3, r0, #9
    7128:	b570      	push	{r4, r5, r6, lr}
    712a:	0a5c      	lsrs	r4, r3, #9
    712c:	0a55      	lsrs	r5, r2, #9
    712e:	0043      	lsls	r3, r0, #1
    7130:	004a      	lsls	r2, r1, #1
    7132:	0e1b      	lsrs	r3, r3, #24
    7134:	0fc6      	lsrs	r6, r0, #31
    7136:	0e12      	lsrs	r2, r2, #24
    7138:	0fc9      	lsrs	r1, r1, #31
    713a:	2bff      	cmp	r3, #255	; 0xff
    713c:	d005      	beq.n	714a <__eqsf2+0x26>
    713e:	2aff      	cmp	r2, #255	; 0xff
    7140:	d008      	beq.n	7154 <__eqsf2+0x30>
    7142:	2001      	movs	r0, #1
    7144:	4293      	cmp	r3, r2
    7146:	d00b      	beq.n	7160 <__eqsf2+0x3c>
    7148:	bd70      	pop	{r4, r5, r6, pc}
    714a:	2001      	movs	r0, #1
    714c:	2c00      	cmp	r4, #0
    714e:	d1fb      	bne.n	7148 <__eqsf2+0x24>
    7150:	2aff      	cmp	r2, #255	; 0xff
    7152:	d1f6      	bne.n	7142 <__eqsf2+0x1e>
    7154:	2001      	movs	r0, #1
    7156:	2d00      	cmp	r5, #0
    7158:	d1f6      	bne.n	7148 <__eqsf2+0x24>
    715a:	2001      	movs	r0, #1
    715c:	4293      	cmp	r3, r2
    715e:	d1f3      	bne.n	7148 <__eqsf2+0x24>
    7160:	42ac      	cmp	r4, r5
    7162:	d1f1      	bne.n	7148 <__eqsf2+0x24>
    7164:	428e      	cmp	r6, r1
    7166:	d005      	beq.n	7174 <__eqsf2+0x50>
    7168:	2b00      	cmp	r3, #0
    716a:	d1ed      	bne.n	7148 <__eqsf2+0x24>
    716c:	1c20      	adds	r0, r4, #0
    716e:	1e44      	subs	r4, r0, #1
    7170:	41a0      	sbcs	r0, r4
    7172:	e7e9      	b.n	7148 <__eqsf2+0x24>
    7174:	2000      	movs	r0, #0
    7176:	e7e7      	b.n	7148 <__eqsf2+0x24>

00007178 <__gesf2>:
    7178:	024a      	lsls	r2, r1, #9
    717a:	0243      	lsls	r3, r0, #9
    717c:	b5f0      	push	{r4, r5, r6, r7, lr}
    717e:	0a5c      	lsrs	r4, r3, #9
    7180:	0a55      	lsrs	r5, r2, #9
    7182:	0043      	lsls	r3, r0, #1
    7184:	004a      	lsls	r2, r1, #1
    7186:	0e1b      	lsrs	r3, r3, #24
    7188:	0fc6      	lsrs	r6, r0, #31
    718a:	0e12      	lsrs	r2, r2, #24
    718c:	0fc9      	lsrs	r1, r1, #31
    718e:	2bff      	cmp	r3, #255	; 0xff
    7190:	d031      	beq.n	71f6 <__gesf2+0x7e>
    7192:	2aff      	cmp	r2, #255	; 0xff
    7194:	d034      	beq.n	7200 <__gesf2+0x88>
    7196:	2b00      	cmp	r3, #0
    7198:	d116      	bne.n	71c8 <__gesf2+0x50>
    719a:	4260      	negs	r0, r4
    719c:	4160      	adcs	r0, r4
    719e:	4684      	mov	ip, r0
    71a0:	2a00      	cmp	r2, #0
    71a2:	d014      	beq.n	71ce <__gesf2+0x56>
    71a4:	2800      	cmp	r0, #0
    71a6:	d120      	bne.n	71ea <__gesf2+0x72>
    71a8:	428e      	cmp	r6, r1
    71aa:	d117      	bne.n	71dc <__gesf2+0x64>
    71ac:	4293      	cmp	r3, r2
    71ae:	dc15      	bgt.n	71dc <__gesf2+0x64>
    71b0:	db04      	blt.n	71bc <__gesf2+0x44>
    71b2:	42ac      	cmp	r4, r5
    71b4:	d812      	bhi.n	71dc <__gesf2+0x64>
    71b6:	2000      	movs	r0, #0
    71b8:	42ac      	cmp	r4, r5
    71ba:	d212      	bcs.n	71e2 <__gesf2+0x6a>
    71bc:	4270      	negs	r0, r6
    71be:	4170      	adcs	r0, r6
    71c0:	4240      	negs	r0, r0
    71c2:	2301      	movs	r3, #1
    71c4:	4318      	orrs	r0, r3
    71c6:	e00c      	b.n	71e2 <__gesf2+0x6a>
    71c8:	2a00      	cmp	r2, #0
    71ca:	d1ed      	bne.n	71a8 <__gesf2+0x30>
    71cc:	4694      	mov	ip, r2
    71ce:	426f      	negs	r7, r5
    71d0:	416f      	adcs	r7, r5
    71d2:	4660      	mov	r0, ip
    71d4:	2800      	cmp	r0, #0
    71d6:	d105      	bne.n	71e4 <__gesf2+0x6c>
    71d8:	2f00      	cmp	r7, #0
    71da:	d0e5      	beq.n	71a8 <__gesf2+0x30>
    71dc:	4270      	negs	r0, r6
    71de:	2301      	movs	r3, #1
    71e0:	4318      	orrs	r0, r3
    71e2:	bdf0      	pop	{r4, r5, r6, r7, pc}
    71e4:	2000      	movs	r0, #0
    71e6:	2f00      	cmp	r7, #0
    71e8:	d1fb      	bne.n	71e2 <__gesf2+0x6a>
    71ea:	4248      	negs	r0, r1
    71ec:	4148      	adcs	r0, r1
    71ee:	4240      	negs	r0, r0
    71f0:	2301      	movs	r3, #1
    71f2:	4318      	orrs	r0, r3
    71f4:	e7f5      	b.n	71e2 <__gesf2+0x6a>
    71f6:	2c00      	cmp	r4, #0
    71f8:	d0cb      	beq.n	7192 <__gesf2+0x1a>
    71fa:	2002      	movs	r0, #2
    71fc:	4240      	negs	r0, r0
    71fe:	e7f0      	b.n	71e2 <__gesf2+0x6a>
    7200:	2d00      	cmp	r5, #0
    7202:	d0c8      	beq.n	7196 <__gesf2+0x1e>
    7204:	e7f9      	b.n	71fa <__gesf2+0x82>
    7206:	46c0      	nop			; (mov r8, r8)

00007208 <__lesf2>:
    7208:	024a      	lsls	r2, r1, #9
    720a:	0243      	lsls	r3, r0, #9
    720c:	b5f0      	push	{r4, r5, r6, r7, lr}
    720e:	0a5c      	lsrs	r4, r3, #9
    7210:	0a55      	lsrs	r5, r2, #9
    7212:	0043      	lsls	r3, r0, #1
    7214:	004a      	lsls	r2, r1, #1
    7216:	0e1b      	lsrs	r3, r3, #24
    7218:	0fc6      	lsrs	r6, r0, #31
    721a:	0e12      	lsrs	r2, r2, #24
    721c:	0fc9      	lsrs	r1, r1, #31
    721e:	2bff      	cmp	r3, #255	; 0xff
    7220:	d027      	beq.n	7272 <__lesf2+0x6a>
    7222:	2aff      	cmp	r2, #255	; 0xff
    7224:	d029      	beq.n	727a <__lesf2+0x72>
    7226:	2b00      	cmp	r3, #0
    7228:	d010      	beq.n	724c <__lesf2+0x44>
    722a:	2a00      	cmp	r2, #0
    722c:	d115      	bne.n	725a <__lesf2+0x52>
    722e:	4694      	mov	ip, r2
    7230:	426f      	negs	r7, r5
    7232:	416f      	adcs	r7, r5
    7234:	4660      	mov	r0, ip
    7236:	2800      	cmp	r0, #0
    7238:	d015      	beq.n	7266 <__lesf2+0x5e>
    723a:	2000      	movs	r0, #0
    723c:	2f00      	cmp	r7, #0
    723e:	d104      	bne.n	724a <__lesf2+0x42>
    7240:	4248      	negs	r0, r1
    7242:	4148      	adcs	r0, r1
    7244:	4240      	negs	r0, r0
    7246:	2301      	movs	r3, #1
    7248:	4318      	orrs	r0, r3
    724a:	bdf0      	pop	{r4, r5, r6, r7, pc}
    724c:	4260      	negs	r0, r4
    724e:	4160      	adcs	r0, r4
    7250:	4684      	mov	ip, r0
    7252:	2a00      	cmp	r2, #0
    7254:	d0ec      	beq.n	7230 <__lesf2+0x28>
    7256:	2800      	cmp	r0, #0
    7258:	d1f2      	bne.n	7240 <__lesf2+0x38>
    725a:	428e      	cmp	r6, r1
    725c:	d011      	beq.n	7282 <__lesf2+0x7a>
    725e:	4270      	negs	r0, r6
    7260:	2301      	movs	r3, #1
    7262:	4318      	orrs	r0, r3
    7264:	e7f1      	b.n	724a <__lesf2+0x42>
    7266:	2f00      	cmp	r7, #0
    7268:	d0f7      	beq.n	725a <__lesf2+0x52>
    726a:	4270      	negs	r0, r6
    726c:	2301      	movs	r3, #1
    726e:	4318      	orrs	r0, r3
    7270:	e7eb      	b.n	724a <__lesf2+0x42>
    7272:	2002      	movs	r0, #2
    7274:	2c00      	cmp	r4, #0
    7276:	d1e8      	bne.n	724a <__lesf2+0x42>
    7278:	e7d3      	b.n	7222 <__lesf2+0x1a>
    727a:	2002      	movs	r0, #2
    727c:	2d00      	cmp	r5, #0
    727e:	d1e4      	bne.n	724a <__lesf2+0x42>
    7280:	e7d1      	b.n	7226 <__lesf2+0x1e>
    7282:	4293      	cmp	r3, r2
    7284:	dceb      	bgt.n	725e <__lesf2+0x56>
    7286:	db04      	blt.n	7292 <__lesf2+0x8a>
    7288:	42ac      	cmp	r4, r5
    728a:	d8e8      	bhi.n	725e <__lesf2+0x56>
    728c:	2000      	movs	r0, #0
    728e:	42ac      	cmp	r4, r5
    7290:	d2db      	bcs.n	724a <__lesf2+0x42>
    7292:	4270      	negs	r0, r6
    7294:	4170      	adcs	r0, r6
    7296:	4240      	negs	r0, r0
    7298:	2301      	movs	r3, #1
    729a:	4318      	orrs	r0, r3
    729c:	e7d5      	b.n	724a <__lesf2+0x42>
    729e:	46c0      	nop			; (mov r8, r8)

000072a0 <__aeabi_fmul>:
    72a0:	b5f0      	push	{r4, r5, r6, r7, lr}
    72a2:	465f      	mov	r7, fp
    72a4:	4656      	mov	r6, sl
    72a6:	464d      	mov	r5, r9
    72a8:	4644      	mov	r4, r8
    72aa:	b4f0      	push	{r4, r5, r6, r7}
    72ac:	0244      	lsls	r4, r0, #9
    72ae:	0046      	lsls	r6, r0, #1
    72b0:	b083      	sub	sp, #12
    72b2:	1c0f      	adds	r7, r1, #0
    72b4:	0a64      	lsrs	r4, r4, #9
    72b6:	0e36      	lsrs	r6, r6, #24
    72b8:	0fc5      	lsrs	r5, r0, #31
    72ba:	2e00      	cmp	r6, #0
    72bc:	d041      	beq.n	7342 <__aeabi_fmul+0xa2>
    72be:	2eff      	cmp	r6, #255	; 0xff
    72c0:	d022      	beq.n	7308 <__aeabi_fmul+0x68>
    72c2:	2380      	movs	r3, #128	; 0x80
    72c4:	041b      	lsls	r3, r3, #16
    72c6:	2000      	movs	r0, #0
    72c8:	431c      	orrs	r4, r3
    72ca:	00e4      	lsls	r4, r4, #3
    72cc:	3e7f      	subs	r6, #127	; 0x7f
    72ce:	4682      	mov	sl, r0
    72d0:	4680      	mov	r8, r0
    72d2:	1c39      	adds	r1, r7, #0
    72d4:	004b      	lsls	r3, r1, #1
    72d6:	027f      	lsls	r7, r7, #9
    72d8:	0fc9      	lsrs	r1, r1, #31
    72da:	0a7f      	lsrs	r7, r7, #9
    72dc:	0e1b      	lsrs	r3, r3, #24
    72de:	468b      	mov	fp, r1
    72e0:	d03b      	beq.n	735a <__aeabi_fmul+0xba>
    72e2:	2bff      	cmp	r3, #255	; 0xff
    72e4:	d034      	beq.n	7350 <__aeabi_fmul+0xb0>
    72e6:	2280      	movs	r2, #128	; 0x80
    72e8:	0412      	lsls	r2, r2, #16
    72ea:	4317      	orrs	r7, r2
    72ec:	00ff      	lsls	r7, r7, #3
    72ee:	3b7f      	subs	r3, #127	; 0x7f
    72f0:	2100      	movs	r1, #0
    72f2:	465a      	mov	r2, fp
    72f4:	406a      	eors	r2, r5
    72f6:	9201      	str	r2, [sp, #4]
    72f8:	4652      	mov	r2, sl
    72fa:	430a      	orrs	r2, r1
    72fc:	2a0f      	cmp	r2, #15
    72fe:	d863      	bhi.n	73c8 <__aeabi_fmul+0x128>
    7300:	487a      	ldr	r0, [pc, #488]	; (74ec <__aeabi_fmul+0x24c>)
    7302:	0092      	lsls	r2, r2, #2
    7304:	5882      	ldr	r2, [r0, r2]
    7306:	4697      	mov	pc, r2
    7308:	2c00      	cmp	r4, #0
    730a:	d13f      	bne.n	738c <__aeabi_fmul+0xec>
    730c:	2208      	movs	r2, #8
    730e:	2302      	movs	r3, #2
    7310:	4692      	mov	sl, r2
    7312:	4698      	mov	r8, r3
    7314:	e7dd      	b.n	72d2 <__aeabi_fmul+0x32>
    7316:	9501      	str	r5, [sp, #4]
    7318:	4640      	mov	r0, r8
    731a:	2802      	cmp	r0, #2
    731c:	d12a      	bne.n	7374 <__aeabi_fmul+0xd4>
    731e:	9a01      	ldr	r2, [sp, #4]
    7320:	2501      	movs	r5, #1
    7322:	4015      	ands	r5, r2
    7324:	23ff      	movs	r3, #255	; 0xff
    7326:	2400      	movs	r4, #0
    7328:	0264      	lsls	r4, r4, #9
    732a:	05db      	lsls	r3, r3, #23
    732c:	0a60      	lsrs	r0, r4, #9
    732e:	07ed      	lsls	r5, r5, #31
    7330:	4318      	orrs	r0, r3
    7332:	4328      	orrs	r0, r5
    7334:	b003      	add	sp, #12
    7336:	bc3c      	pop	{r2, r3, r4, r5}
    7338:	4690      	mov	r8, r2
    733a:	4699      	mov	r9, r3
    733c:	46a2      	mov	sl, r4
    733e:	46ab      	mov	fp, r5
    7340:	bdf0      	pop	{r4, r5, r6, r7, pc}
    7342:	2c00      	cmp	r4, #0
    7344:	d127      	bne.n	7396 <__aeabi_fmul+0xf6>
    7346:	2004      	movs	r0, #4
    7348:	2201      	movs	r2, #1
    734a:	4682      	mov	sl, r0
    734c:	4690      	mov	r8, r2
    734e:	e7c0      	b.n	72d2 <__aeabi_fmul+0x32>
    7350:	1c39      	adds	r1, r7, #0
    7352:	1e4a      	subs	r2, r1, #1
    7354:	4191      	sbcs	r1, r2
    7356:	3102      	adds	r1, #2
    7358:	e7cb      	b.n	72f2 <__aeabi_fmul+0x52>
    735a:	2101      	movs	r1, #1
    735c:	2f00      	cmp	r7, #0
    735e:	d0c8      	beq.n	72f2 <__aeabi_fmul+0x52>
    7360:	1c38      	adds	r0, r7, #0
    7362:	f002 f9dd 	bl	9720 <__clzsi2>
    7366:	1f43      	subs	r3, r0, #5
    7368:	409f      	lsls	r7, r3
    736a:	2376      	movs	r3, #118	; 0x76
    736c:	425b      	negs	r3, r3
    736e:	1a1b      	subs	r3, r3, r0
    7370:	2100      	movs	r1, #0
    7372:	e7be      	b.n	72f2 <__aeabi_fmul+0x52>
    7374:	2803      	cmp	r0, #3
    7376:	d100      	bne.n	737a <__aeabi_fmul+0xda>
    7378:	e0ae      	b.n	74d8 <__aeabi_fmul+0x238>
    737a:	2801      	cmp	r0, #1
    737c:	d14f      	bne.n	741e <__aeabi_fmul+0x17e>
    737e:	9801      	ldr	r0, [sp, #4]
    7380:	4642      	mov	r2, r8
    7382:	4010      	ands	r0, r2
    7384:	b2c5      	uxtb	r5, r0
    7386:	2300      	movs	r3, #0
    7388:	2400      	movs	r4, #0
    738a:	e7cd      	b.n	7328 <__aeabi_fmul+0x88>
    738c:	230c      	movs	r3, #12
    738e:	2003      	movs	r0, #3
    7390:	469a      	mov	sl, r3
    7392:	4680      	mov	r8, r0
    7394:	e79d      	b.n	72d2 <__aeabi_fmul+0x32>
    7396:	1c20      	adds	r0, r4, #0
    7398:	f002 f9c2 	bl	9720 <__clzsi2>
    739c:	2676      	movs	r6, #118	; 0x76
    739e:	1f43      	subs	r3, r0, #5
    73a0:	409c      	lsls	r4, r3
    73a2:	4276      	negs	r6, r6
    73a4:	2300      	movs	r3, #0
    73a6:	1a36      	subs	r6, r6, r0
    73a8:	469a      	mov	sl, r3
    73aa:	4698      	mov	r8, r3
    73ac:	e791      	b.n	72d2 <__aeabi_fmul+0x32>
    73ae:	2480      	movs	r4, #128	; 0x80
    73b0:	2500      	movs	r5, #0
    73b2:	03e4      	lsls	r4, r4, #15
    73b4:	23ff      	movs	r3, #255	; 0xff
    73b6:	e7b7      	b.n	7328 <__aeabi_fmul+0x88>
    73b8:	465b      	mov	r3, fp
    73ba:	1c3c      	adds	r4, r7, #0
    73bc:	9301      	str	r3, [sp, #4]
    73be:	4688      	mov	r8, r1
    73c0:	e7aa      	b.n	7318 <__aeabi_fmul+0x78>
    73c2:	1c3c      	adds	r4, r7, #0
    73c4:	4688      	mov	r8, r1
    73c6:	e7a7      	b.n	7318 <__aeabi_fmul+0x78>
    73c8:	0c25      	lsrs	r5, r4, #16
    73ca:	0424      	lsls	r4, r4, #16
    73cc:	0c3a      	lsrs	r2, r7, #16
    73ce:	0c24      	lsrs	r4, r4, #16
    73d0:	043f      	lsls	r7, r7, #16
    73d2:	18f6      	adds	r6, r6, r3
    73d4:	0c3f      	lsrs	r7, r7, #16
    73d6:	1c21      	adds	r1, r4, #0
    73d8:	1c23      	adds	r3, r4, #0
    73da:	4379      	muls	r1, r7
    73dc:	4353      	muls	r3, r2
    73de:	436f      	muls	r7, r5
    73e0:	4355      	muls	r5, r2
    73e2:	18fb      	adds	r3, r7, r3
    73e4:	0c0a      	lsrs	r2, r1, #16
    73e6:	189b      	adds	r3, r3, r2
    73e8:	46b1      	mov	r9, r6
    73ea:	429f      	cmp	r7, r3
    73ec:	d902      	bls.n	73f4 <__aeabi_fmul+0x154>
    73ee:	2280      	movs	r2, #128	; 0x80
    73f0:	0252      	lsls	r2, r2, #9
    73f2:	18ad      	adds	r5, r5, r2
    73f4:	0409      	lsls	r1, r1, #16
    73f6:	041a      	lsls	r2, r3, #16
    73f8:	0c09      	lsrs	r1, r1, #16
    73fa:	1852      	adds	r2, r2, r1
    73fc:	0194      	lsls	r4, r2, #6
    73fe:	0c1b      	lsrs	r3, r3, #16
    7400:	1e61      	subs	r1, r4, #1
    7402:	418c      	sbcs	r4, r1
    7404:	0e92      	lsrs	r2, r2, #26
    7406:	18ed      	adds	r5, r5, r3
    7408:	4314      	orrs	r4, r2
    740a:	01ad      	lsls	r5, r5, #6
    740c:	432c      	orrs	r4, r5
    740e:	0123      	lsls	r3, r4, #4
    7410:	d505      	bpl.n	741e <__aeabi_fmul+0x17e>
    7412:	2201      	movs	r2, #1
    7414:	0863      	lsrs	r3, r4, #1
    7416:	2001      	movs	r0, #1
    7418:	4014      	ands	r4, r2
    741a:	4481      	add	r9, r0
    741c:	431c      	orrs	r4, r3
    741e:	464b      	mov	r3, r9
    7420:	337f      	adds	r3, #127	; 0x7f
    7422:	2b00      	cmp	r3, #0
    7424:	dd2d      	ble.n	7482 <__aeabi_fmul+0x1e2>
    7426:	0760      	lsls	r0, r4, #29
    7428:	d004      	beq.n	7434 <__aeabi_fmul+0x194>
    742a:	220f      	movs	r2, #15
    742c:	4022      	ands	r2, r4
    742e:	2a04      	cmp	r2, #4
    7430:	d000      	beq.n	7434 <__aeabi_fmul+0x194>
    7432:	3404      	adds	r4, #4
    7434:	0122      	lsls	r2, r4, #4
    7436:	d503      	bpl.n	7440 <__aeabi_fmul+0x1a0>
    7438:	4b2d      	ldr	r3, [pc, #180]	; (74f0 <__aeabi_fmul+0x250>)
    743a:	401c      	ands	r4, r3
    743c:	464b      	mov	r3, r9
    743e:	3380      	adds	r3, #128	; 0x80
    7440:	2bfe      	cmp	r3, #254	; 0xfe
    7442:	dd17      	ble.n	7474 <__aeabi_fmul+0x1d4>
    7444:	9b01      	ldr	r3, [sp, #4]
    7446:	2501      	movs	r5, #1
    7448:	401d      	ands	r5, r3
    744a:	2400      	movs	r4, #0
    744c:	23ff      	movs	r3, #255	; 0xff
    744e:	e76b      	b.n	7328 <__aeabi_fmul+0x88>
    7450:	2080      	movs	r0, #128	; 0x80
    7452:	03c0      	lsls	r0, r0, #15
    7454:	4204      	tst	r4, r0
    7456:	d008      	beq.n	746a <__aeabi_fmul+0x1ca>
    7458:	4207      	tst	r7, r0
    745a:	d106      	bne.n	746a <__aeabi_fmul+0x1ca>
    745c:	1c04      	adds	r4, r0, #0
    745e:	433c      	orrs	r4, r7
    7460:	0264      	lsls	r4, r4, #9
    7462:	0a64      	lsrs	r4, r4, #9
    7464:	465d      	mov	r5, fp
    7466:	23ff      	movs	r3, #255	; 0xff
    7468:	e75e      	b.n	7328 <__aeabi_fmul+0x88>
    746a:	4304      	orrs	r4, r0
    746c:	0264      	lsls	r4, r4, #9
    746e:	0a64      	lsrs	r4, r4, #9
    7470:	23ff      	movs	r3, #255	; 0xff
    7472:	e759      	b.n	7328 <__aeabi_fmul+0x88>
    7474:	9801      	ldr	r0, [sp, #4]
    7476:	01a4      	lsls	r4, r4, #6
    7478:	2501      	movs	r5, #1
    747a:	0a64      	lsrs	r4, r4, #9
    747c:	b2db      	uxtb	r3, r3
    747e:	4005      	ands	r5, r0
    7480:	e752      	b.n	7328 <__aeabi_fmul+0x88>
    7482:	237e      	movs	r3, #126	; 0x7e
    7484:	425b      	negs	r3, r3
    7486:	464a      	mov	r2, r9
    7488:	1a9b      	subs	r3, r3, r2
    748a:	2b1b      	cmp	r3, #27
    748c:	dd05      	ble.n	749a <__aeabi_fmul+0x1fa>
    748e:	9b01      	ldr	r3, [sp, #4]
    7490:	2501      	movs	r5, #1
    7492:	401d      	ands	r5, r3
    7494:	2400      	movs	r4, #0
    7496:	2300      	movs	r3, #0
    7498:	e746      	b.n	7328 <__aeabi_fmul+0x88>
    749a:	1c22      	adds	r2, r4, #0
    749c:	40da      	lsrs	r2, r3
    749e:	464b      	mov	r3, r9
    74a0:	339e      	adds	r3, #158	; 0x9e
    74a2:	409c      	lsls	r4, r3
    74a4:	1c23      	adds	r3, r4, #0
    74a6:	1e5c      	subs	r4, r3, #1
    74a8:	41a3      	sbcs	r3, r4
    74aa:	4313      	orrs	r3, r2
    74ac:	0758      	lsls	r0, r3, #29
    74ae:	d004      	beq.n	74ba <__aeabi_fmul+0x21a>
    74b0:	220f      	movs	r2, #15
    74b2:	401a      	ands	r2, r3
    74b4:	2a04      	cmp	r2, #4
    74b6:	d000      	beq.n	74ba <__aeabi_fmul+0x21a>
    74b8:	3304      	adds	r3, #4
    74ba:	015a      	lsls	r2, r3, #5
    74bc:	d505      	bpl.n	74ca <__aeabi_fmul+0x22a>
    74be:	9b01      	ldr	r3, [sp, #4]
    74c0:	2501      	movs	r5, #1
    74c2:	401d      	ands	r5, r3
    74c4:	2400      	movs	r4, #0
    74c6:	2301      	movs	r3, #1
    74c8:	e72e      	b.n	7328 <__aeabi_fmul+0x88>
    74ca:	9801      	ldr	r0, [sp, #4]
    74cc:	019c      	lsls	r4, r3, #6
    74ce:	2501      	movs	r5, #1
    74d0:	0a64      	lsrs	r4, r4, #9
    74d2:	4005      	ands	r5, r0
    74d4:	2300      	movs	r3, #0
    74d6:	e727      	b.n	7328 <__aeabi_fmul+0x88>
    74d8:	2780      	movs	r7, #128	; 0x80
    74da:	03ff      	lsls	r7, r7, #15
    74dc:	9b01      	ldr	r3, [sp, #4]
    74de:	433c      	orrs	r4, r7
    74e0:	0264      	lsls	r4, r4, #9
    74e2:	2501      	movs	r5, #1
    74e4:	401d      	ands	r5, r3
    74e6:	0a64      	lsrs	r4, r4, #9
    74e8:	23ff      	movs	r3, #255	; 0xff
    74ea:	e71d      	b.n	7328 <__aeabi_fmul+0x88>
    74ec:	00009eb4 	.word	0x00009eb4
    74f0:	f7ffffff 	.word	0xf7ffffff

000074f4 <__aeabi_fsub>:
    74f4:	b5f8      	push	{r3, r4, r5, r6, r7, lr}
    74f6:	0fc2      	lsrs	r2, r0, #31
    74f8:	0243      	lsls	r3, r0, #9
    74fa:	0044      	lsls	r4, r0, #1
    74fc:	024d      	lsls	r5, r1, #9
    74fe:	0048      	lsls	r0, r1, #1
    7500:	0e24      	lsrs	r4, r4, #24
    7502:	1c16      	adds	r6, r2, #0
    7504:	099b      	lsrs	r3, r3, #6
    7506:	0e00      	lsrs	r0, r0, #24
    7508:	0fc9      	lsrs	r1, r1, #31
    750a:	09ad      	lsrs	r5, r5, #6
    750c:	28ff      	cmp	r0, #255	; 0xff
    750e:	d100      	bne.n	7512 <__aeabi_fsub+0x1e>
    7510:	e083      	b.n	761a <__aeabi_fsub+0x126>
    7512:	2701      	movs	r7, #1
    7514:	4079      	eors	r1, r7
    7516:	428a      	cmp	r2, r1
    7518:	d05c      	beq.n	75d4 <__aeabi_fsub+0xe0>
    751a:	1a22      	subs	r2, r4, r0
    751c:	2a00      	cmp	r2, #0
    751e:	dc00      	bgt.n	7522 <__aeabi_fsub+0x2e>
    7520:	e08e      	b.n	7640 <__aeabi_fsub+0x14c>
    7522:	2800      	cmp	r0, #0
    7524:	d11e      	bne.n	7564 <__aeabi_fsub+0x70>
    7526:	2d00      	cmp	r5, #0
    7528:	d000      	beq.n	752c <__aeabi_fsub+0x38>
    752a:	e07a      	b.n	7622 <__aeabi_fsub+0x12e>
    752c:	0758      	lsls	r0, r3, #29
    752e:	d004      	beq.n	753a <__aeabi_fsub+0x46>
    7530:	220f      	movs	r2, #15
    7532:	401a      	ands	r2, r3
    7534:	2a04      	cmp	r2, #4
    7536:	d000      	beq.n	753a <__aeabi_fsub+0x46>
    7538:	3304      	adds	r3, #4
    753a:	2180      	movs	r1, #128	; 0x80
    753c:	04c9      	lsls	r1, r1, #19
    753e:	2201      	movs	r2, #1
    7540:	4019      	ands	r1, r3
    7542:	4032      	ands	r2, r6
    7544:	2900      	cmp	r1, #0
    7546:	d03a      	beq.n	75be <__aeabi_fsub+0xca>
    7548:	3401      	adds	r4, #1
    754a:	2cff      	cmp	r4, #255	; 0xff
    754c:	d100      	bne.n	7550 <__aeabi_fsub+0x5c>
    754e:	e083      	b.n	7658 <__aeabi_fsub+0x164>
    7550:	019b      	lsls	r3, r3, #6
    7552:	0a5b      	lsrs	r3, r3, #9
    7554:	025b      	lsls	r3, r3, #9
    7556:	b2e4      	uxtb	r4, r4
    7558:	05e4      	lsls	r4, r4, #23
    755a:	0a58      	lsrs	r0, r3, #9
    755c:	07d2      	lsls	r2, r2, #31
    755e:	4320      	orrs	r0, r4
    7560:	4310      	orrs	r0, r2
    7562:	bdf8      	pop	{r3, r4, r5, r6, r7, pc}
    7564:	2cff      	cmp	r4, #255	; 0xff
    7566:	d0e1      	beq.n	752c <__aeabi_fsub+0x38>
    7568:	2180      	movs	r1, #128	; 0x80
    756a:	04c9      	lsls	r1, r1, #19
    756c:	430d      	orrs	r5, r1
    756e:	2a1b      	cmp	r2, #27
    7570:	dd00      	ble.n	7574 <__aeabi_fsub+0x80>
    7572:	e131      	b.n	77d8 <__aeabi_fsub+0x2e4>
    7574:	1c29      	adds	r1, r5, #0
    7576:	2020      	movs	r0, #32
    7578:	40d1      	lsrs	r1, r2
    757a:	1a82      	subs	r2, r0, r2
    757c:	4095      	lsls	r5, r2
    757e:	1e6a      	subs	r2, r5, #1
    7580:	4195      	sbcs	r5, r2
    7582:	430d      	orrs	r5, r1
    7584:	1b5b      	subs	r3, r3, r5
    7586:	0158      	lsls	r0, r3, #5
    7588:	d5d0      	bpl.n	752c <__aeabi_fsub+0x38>
    758a:	019b      	lsls	r3, r3, #6
    758c:	099f      	lsrs	r7, r3, #6
    758e:	1c38      	adds	r0, r7, #0
    7590:	f002 f8c6 	bl	9720 <__clzsi2>
    7594:	1f42      	subs	r2, r0, #5
    7596:	4097      	lsls	r7, r2
    7598:	4294      	cmp	r4, r2
    759a:	dc5f      	bgt.n	765c <__aeabi_fsub+0x168>
    759c:	1b14      	subs	r4, r2, r4
    759e:	231f      	movs	r3, #31
    75a0:	1b1b      	subs	r3, r3, r4
    75a2:	1c3a      	adds	r2, r7, #0
    75a4:	409f      	lsls	r7, r3
    75a6:	1c61      	adds	r1, r4, #1
    75a8:	1c3b      	adds	r3, r7, #0
    75aa:	40ca      	lsrs	r2, r1
    75ac:	1e5f      	subs	r7, r3, #1
    75ae:	41bb      	sbcs	r3, r7
    75b0:	4313      	orrs	r3, r2
    75b2:	2400      	movs	r4, #0
    75b4:	e7ba      	b.n	752c <__aeabi_fsub+0x38>
    75b6:	1e13      	subs	r3, r2, #0
    75b8:	d1b8      	bne.n	752c <__aeabi_fsub+0x38>
    75ba:	2300      	movs	r3, #0
    75bc:	2200      	movs	r2, #0
    75be:	08db      	lsrs	r3, r3, #3
    75c0:	2cff      	cmp	r4, #255	; 0xff
    75c2:	d104      	bne.n	75ce <__aeabi_fsub+0xda>
    75c4:	2b00      	cmp	r3, #0
    75c6:	d047      	beq.n	7658 <__aeabi_fsub+0x164>
    75c8:	2080      	movs	r0, #128	; 0x80
    75ca:	03c0      	lsls	r0, r0, #15
    75cc:	4303      	orrs	r3, r0
    75ce:	025b      	lsls	r3, r3, #9
    75d0:	0a5b      	lsrs	r3, r3, #9
    75d2:	e7bf      	b.n	7554 <__aeabi_fsub+0x60>
    75d4:	1a21      	subs	r1, r4, r0
    75d6:	2900      	cmp	r1, #0
    75d8:	dd44      	ble.n	7664 <__aeabi_fsub+0x170>
    75da:	2800      	cmp	r0, #0
    75dc:	d027      	beq.n	762e <__aeabi_fsub+0x13a>
    75de:	2cff      	cmp	r4, #255	; 0xff
    75e0:	d0a4      	beq.n	752c <__aeabi_fsub+0x38>
    75e2:	2080      	movs	r0, #128	; 0x80
    75e4:	04c0      	lsls	r0, r0, #19
    75e6:	4305      	orrs	r5, r0
    75e8:	291b      	cmp	r1, #27
    75ea:	dd00      	ble.n	75ee <__aeabi_fsub+0xfa>
    75ec:	e0f2      	b.n	77d4 <__aeabi_fsub+0x2e0>
    75ee:	1c28      	adds	r0, r5, #0
    75f0:	2720      	movs	r7, #32
    75f2:	40c8      	lsrs	r0, r1
    75f4:	1a79      	subs	r1, r7, r1
    75f6:	408d      	lsls	r5, r1
    75f8:	1e69      	subs	r1, r5, #1
    75fa:	418d      	sbcs	r5, r1
    75fc:	4305      	orrs	r5, r0
    75fe:	195b      	adds	r3, r3, r5
    7600:	0159      	lsls	r1, r3, #5
    7602:	d400      	bmi.n	7606 <__aeabi_fsub+0x112>
    7604:	e792      	b.n	752c <__aeabi_fsub+0x38>
    7606:	3401      	adds	r4, #1
    7608:	2cff      	cmp	r4, #255	; 0xff
    760a:	d059      	beq.n	76c0 <__aeabi_fsub+0x1cc>
    760c:	4973      	ldr	r1, [pc, #460]	; (77dc <__aeabi_fsub+0x2e8>)
    760e:	2201      	movs	r2, #1
    7610:	401a      	ands	r2, r3
    7612:	400b      	ands	r3, r1
    7614:	085b      	lsrs	r3, r3, #1
    7616:	4313      	orrs	r3, r2
    7618:	e788      	b.n	752c <__aeabi_fsub+0x38>
    761a:	2d00      	cmp	r5, #0
    761c:	d000      	beq.n	7620 <__aeabi_fsub+0x12c>
    761e:	e77a      	b.n	7516 <__aeabi_fsub+0x22>
    7620:	e777      	b.n	7512 <__aeabi_fsub+0x1e>
    7622:	3a01      	subs	r2, #1
    7624:	2a00      	cmp	r2, #0
    7626:	d0ad      	beq.n	7584 <__aeabi_fsub+0x90>
    7628:	2cff      	cmp	r4, #255	; 0xff
    762a:	d1a0      	bne.n	756e <__aeabi_fsub+0x7a>
    762c:	e77e      	b.n	752c <__aeabi_fsub+0x38>
    762e:	2d00      	cmp	r5, #0
    7630:	d100      	bne.n	7634 <__aeabi_fsub+0x140>
    7632:	e77b      	b.n	752c <__aeabi_fsub+0x38>
    7634:	3901      	subs	r1, #1
    7636:	2900      	cmp	r1, #0
    7638:	d0e1      	beq.n	75fe <__aeabi_fsub+0x10a>
    763a:	2cff      	cmp	r4, #255	; 0xff
    763c:	d1d4      	bne.n	75e8 <__aeabi_fsub+0xf4>
    763e:	e775      	b.n	752c <__aeabi_fsub+0x38>
    7640:	2a00      	cmp	r2, #0
    7642:	d11b      	bne.n	767c <__aeabi_fsub+0x188>
    7644:	1c62      	adds	r2, r4, #1
    7646:	b2d2      	uxtb	r2, r2
    7648:	2a01      	cmp	r2, #1
    764a:	dd4b      	ble.n	76e4 <__aeabi_fsub+0x1f0>
    764c:	1b5f      	subs	r7, r3, r5
    764e:	017a      	lsls	r2, r7, #5
    7650:	d523      	bpl.n	769a <__aeabi_fsub+0x1a6>
    7652:	1aef      	subs	r7, r5, r3
    7654:	1c0e      	adds	r6, r1, #0
    7656:	e79a      	b.n	758e <__aeabi_fsub+0x9a>
    7658:	2300      	movs	r3, #0
    765a:	e77b      	b.n	7554 <__aeabi_fsub+0x60>
    765c:	4b5f      	ldr	r3, [pc, #380]	; (77dc <__aeabi_fsub+0x2e8>)
    765e:	1aa4      	subs	r4, r4, r2
    7660:	403b      	ands	r3, r7
    7662:	e763      	b.n	752c <__aeabi_fsub+0x38>
    7664:	2900      	cmp	r1, #0
    7666:	d146      	bne.n	76f6 <__aeabi_fsub+0x202>
    7668:	1c61      	adds	r1, r4, #1
    766a:	b2c8      	uxtb	r0, r1
    766c:	2801      	cmp	r0, #1
    766e:	dd29      	ble.n	76c4 <__aeabi_fsub+0x1d0>
    7670:	29ff      	cmp	r1, #255	; 0xff
    7672:	d024      	beq.n	76be <__aeabi_fsub+0x1ca>
    7674:	18eb      	adds	r3, r5, r3
    7676:	085b      	lsrs	r3, r3, #1
    7678:	1c0c      	adds	r4, r1, #0
    767a:	e757      	b.n	752c <__aeabi_fsub+0x38>
    767c:	2c00      	cmp	r4, #0
    767e:	d013      	beq.n	76a8 <__aeabi_fsub+0x1b4>
    7680:	28ff      	cmp	r0, #255	; 0xff
    7682:	d018      	beq.n	76b6 <__aeabi_fsub+0x1c2>
    7684:	2480      	movs	r4, #128	; 0x80
    7686:	04e4      	lsls	r4, r4, #19
    7688:	4252      	negs	r2, r2
    768a:	4323      	orrs	r3, r4
    768c:	2a1b      	cmp	r2, #27
    768e:	dd4d      	ble.n	772c <__aeabi_fsub+0x238>
    7690:	2301      	movs	r3, #1
    7692:	1aeb      	subs	r3, r5, r3
    7694:	1c04      	adds	r4, r0, #0
    7696:	1c0e      	adds	r6, r1, #0
    7698:	e775      	b.n	7586 <__aeabi_fsub+0x92>
    769a:	2f00      	cmp	r7, #0
    769c:	d000      	beq.n	76a0 <__aeabi_fsub+0x1ac>
    769e:	e776      	b.n	758e <__aeabi_fsub+0x9a>
    76a0:	2300      	movs	r3, #0
    76a2:	2200      	movs	r2, #0
    76a4:	2400      	movs	r4, #0
    76a6:	e78a      	b.n	75be <__aeabi_fsub+0xca>
    76a8:	2b00      	cmp	r3, #0
    76aa:	d03b      	beq.n	7724 <__aeabi_fsub+0x230>
    76ac:	43d2      	mvns	r2, r2
    76ae:	2a00      	cmp	r2, #0
    76b0:	d0ef      	beq.n	7692 <__aeabi_fsub+0x19e>
    76b2:	28ff      	cmp	r0, #255	; 0xff
    76b4:	d1ea      	bne.n	768c <__aeabi_fsub+0x198>
    76b6:	1c2b      	adds	r3, r5, #0
    76b8:	24ff      	movs	r4, #255	; 0xff
    76ba:	1c0e      	adds	r6, r1, #0
    76bc:	e736      	b.n	752c <__aeabi_fsub+0x38>
    76be:	24ff      	movs	r4, #255	; 0xff
    76c0:	2300      	movs	r3, #0
    76c2:	e77c      	b.n	75be <__aeabi_fsub+0xca>
    76c4:	2c00      	cmp	r4, #0
    76c6:	d15c      	bne.n	7782 <__aeabi_fsub+0x28e>
    76c8:	2b00      	cmp	r3, #0
    76ca:	d100      	bne.n	76ce <__aeabi_fsub+0x1da>
    76cc:	e080      	b.n	77d0 <__aeabi_fsub+0x2dc>
    76ce:	2d00      	cmp	r5, #0
    76d0:	d100      	bne.n	76d4 <__aeabi_fsub+0x1e0>
    76d2:	e72b      	b.n	752c <__aeabi_fsub+0x38>
    76d4:	195b      	adds	r3, r3, r5
    76d6:	0158      	lsls	r0, r3, #5
    76d8:	d400      	bmi.n	76dc <__aeabi_fsub+0x1e8>
    76da:	e727      	b.n	752c <__aeabi_fsub+0x38>
    76dc:	4a3f      	ldr	r2, [pc, #252]	; (77dc <__aeabi_fsub+0x2e8>)
    76de:	2401      	movs	r4, #1
    76e0:	4013      	ands	r3, r2
    76e2:	e723      	b.n	752c <__aeabi_fsub+0x38>
    76e4:	2c00      	cmp	r4, #0
    76e6:	d115      	bne.n	7714 <__aeabi_fsub+0x220>
    76e8:	2b00      	cmp	r3, #0
    76ea:	d140      	bne.n	776e <__aeabi_fsub+0x27a>
    76ec:	2d00      	cmp	r5, #0
    76ee:	d063      	beq.n	77b8 <__aeabi_fsub+0x2c4>
    76f0:	1c2b      	adds	r3, r5, #0
    76f2:	1c0e      	adds	r6, r1, #0
    76f4:	e71a      	b.n	752c <__aeabi_fsub+0x38>
    76f6:	2c00      	cmp	r4, #0
    76f8:	d121      	bne.n	773e <__aeabi_fsub+0x24a>
    76fa:	2b00      	cmp	r3, #0
    76fc:	d054      	beq.n	77a8 <__aeabi_fsub+0x2b4>
    76fe:	43c9      	mvns	r1, r1
    7700:	2900      	cmp	r1, #0
    7702:	d004      	beq.n	770e <__aeabi_fsub+0x21a>
    7704:	28ff      	cmp	r0, #255	; 0xff
    7706:	d04c      	beq.n	77a2 <__aeabi_fsub+0x2ae>
    7708:	291b      	cmp	r1, #27
    770a:	dd58      	ble.n	77be <__aeabi_fsub+0x2ca>
    770c:	2301      	movs	r3, #1
    770e:	195b      	adds	r3, r3, r5
    7710:	1c04      	adds	r4, r0, #0
    7712:	e775      	b.n	7600 <__aeabi_fsub+0x10c>
    7714:	2b00      	cmp	r3, #0
    7716:	d119      	bne.n	774c <__aeabi_fsub+0x258>
    7718:	2d00      	cmp	r5, #0
    771a:	d048      	beq.n	77ae <__aeabi_fsub+0x2ba>
    771c:	1c2b      	adds	r3, r5, #0
    771e:	1c0e      	adds	r6, r1, #0
    7720:	24ff      	movs	r4, #255	; 0xff
    7722:	e703      	b.n	752c <__aeabi_fsub+0x38>
    7724:	1c2b      	adds	r3, r5, #0
    7726:	1c04      	adds	r4, r0, #0
    7728:	1c0e      	adds	r6, r1, #0
    772a:	e6ff      	b.n	752c <__aeabi_fsub+0x38>
    772c:	1c1c      	adds	r4, r3, #0
    772e:	2620      	movs	r6, #32
    7730:	40d4      	lsrs	r4, r2
    7732:	1ab2      	subs	r2, r6, r2
    7734:	4093      	lsls	r3, r2
    7736:	1e5a      	subs	r2, r3, #1
    7738:	4193      	sbcs	r3, r2
    773a:	4323      	orrs	r3, r4
    773c:	e7a9      	b.n	7692 <__aeabi_fsub+0x19e>
    773e:	28ff      	cmp	r0, #255	; 0xff
    7740:	d02f      	beq.n	77a2 <__aeabi_fsub+0x2ae>
    7742:	2480      	movs	r4, #128	; 0x80
    7744:	04e4      	lsls	r4, r4, #19
    7746:	4249      	negs	r1, r1
    7748:	4323      	orrs	r3, r4
    774a:	e7dd      	b.n	7708 <__aeabi_fsub+0x214>
    774c:	24ff      	movs	r4, #255	; 0xff
    774e:	2d00      	cmp	r5, #0
    7750:	d100      	bne.n	7754 <__aeabi_fsub+0x260>
    7752:	e6eb      	b.n	752c <__aeabi_fsub+0x38>
    7754:	2280      	movs	r2, #128	; 0x80
    7756:	08db      	lsrs	r3, r3, #3
    7758:	03d2      	lsls	r2, r2, #15
    775a:	4213      	tst	r3, r2
    775c:	d004      	beq.n	7768 <__aeabi_fsub+0x274>
    775e:	08ed      	lsrs	r5, r5, #3
    7760:	4215      	tst	r5, r2
    7762:	d101      	bne.n	7768 <__aeabi_fsub+0x274>
    7764:	1c2b      	adds	r3, r5, #0
    7766:	1c0e      	adds	r6, r1, #0
    7768:	00db      	lsls	r3, r3, #3
    776a:	24ff      	movs	r4, #255	; 0xff
    776c:	e6de      	b.n	752c <__aeabi_fsub+0x38>
    776e:	2d00      	cmp	r5, #0
    7770:	d100      	bne.n	7774 <__aeabi_fsub+0x280>
    7772:	e6db      	b.n	752c <__aeabi_fsub+0x38>
    7774:	1b5a      	subs	r2, r3, r5
    7776:	0150      	lsls	r0, r2, #5
    7778:	d400      	bmi.n	777c <__aeabi_fsub+0x288>
    777a:	e71c      	b.n	75b6 <__aeabi_fsub+0xc2>
    777c:	1aeb      	subs	r3, r5, r3
    777e:	1c0e      	adds	r6, r1, #0
    7780:	e6d4      	b.n	752c <__aeabi_fsub+0x38>
    7782:	2b00      	cmp	r3, #0
    7784:	d00d      	beq.n	77a2 <__aeabi_fsub+0x2ae>
    7786:	24ff      	movs	r4, #255	; 0xff
    7788:	2d00      	cmp	r5, #0
    778a:	d100      	bne.n	778e <__aeabi_fsub+0x29a>
    778c:	e6ce      	b.n	752c <__aeabi_fsub+0x38>
    778e:	2280      	movs	r2, #128	; 0x80
    7790:	08db      	lsrs	r3, r3, #3
    7792:	03d2      	lsls	r2, r2, #15
    7794:	4213      	tst	r3, r2
    7796:	d0e7      	beq.n	7768 <__aeabi_fsub+0x274>
    7798:	08ed      	lsrs	r5, r5, #3
    779a:	4215      	tst	r5, r2
    779c:	d1e4      	bne.n	7768 <__aeabi_fsub+0x274>
    779e:	1c2b      	adds	r3, r5, #0
    77a0:	e7e2      	b.n	7768 <__aeabi_fsub+0x274>
    77a2:	1c2b      	adds	r3, r5, #0
    77a4:	24ff      	movs	r4, #255	; 0xff
    77a6:	e6c1      	b.n	752c <__aeabi_fsub+0x38>
    77a8:	1c2b      	adds	r3, r5, #0
    77aa:	1c04      	adds	r4, r0, #0
    77ac:	e6be      	b.n	752c <__aeabi_fsub+0x38>
    77ae:	2380      	movs	r3, #128	; 0x80
    77b0:	2200      	movs	r2, #0
    77b2:	049b      	lsls	r3, r3, #18
    77b4:	24ff      	movs	r4, #255	; 0xff
    77b6:	e702      	b.n	75be <__aeabi_fsub+0xca>
    77b8:	1c23      	adds	r3, r4, #0
    77ba:	2200      	movs	r2, #0
    77bc:	e6ff      	b.n	75be <__aeabi_fsub+0xca>
    77be:	1c1c      	adds	r4, r3, #0
    77c0:	2720      	movs	r7, #32
    77c2:	40cc      	lsrs	r4, r1
    77c4:	1a79      	subs	r1, r7, r1
    77c6:	408b      	lsls	r3, r1
    77c8:	1e59      	subs	r1, r3, #1
    77ca:	418b      	sbcs	r3, r1
    77cc:	4323      	orrs	r3, r4
    77ce:	e79e      	b.n	770e <__aeabi_fsub+0x21a>
    77d0:	1c2b      	adds	r3, r5, #0
    77d2:	e6ab      	b.n	752c <__aeabi_fsub+0x38>
    77d4:	2501      	movs	r5, #1
    77d6:	e712      	b.n	75fe <__aeabi_fsub+0x10a>
    77d8:	2501      	movs	r5, #1
    77da:	e6d3      	b.n	7584 <__aeabi_fsub+0x90>
    77dc:	fbffffff 	.word	0xfbffffff

000077e0 <__aeabi_f2iz>:
    77e0:	0243      	lsls	r3, r0, #9
    77e2:	0a59      	lsrs	r1, r3, #9
    77e4:	0043      	lsls	r3, r0, #1
    77e6:	0fc2      	lsrs	r2, r0, #31
    77e8:	0e1b      	lsrs	r3, r3, #24
    77ea:	2000      	movs	r0, #0
    77ec:	2b7e      	cmp	r3, #126	; 0x7e
    77ee:	dd0d      	ble.n	780c <__aeabi_f2iz+0x2c>
    77f0:	2b9d      	cmp	r3, #157	; 0x9d
    77f2:	dc0c      	bgt.n	780e <__aeabi_f2iz+0x2e>
    77f4:	2080      	movs	r0, #128	; 0x80
    77f6:	0400      	lsls	r0, r0, #16
    77f8:	4301      	orrs	r1, r0
    77fa:	2b95      	cmp	r3, #149	; 0x95
    77fc:	dc0a      	bgt.n	7814 <__aeabi_f2iz+0x34>
    77fe:	2096      	movs	r0, #150	; 0x96
    7800:	1ac3      	subs	r3, r0, r3
    7802:	40d9      	lsrs	r1, r3
    7804:	4248      	negs	r0, r1
    7806:	2a00      	cmp	r2, #0
    7808:	d100      	bne.n	780c <__aeabi_f2iz+0x2c>
    780a:	1c08      	adds	r0, r1, #0
    780c:	4770      	bx	lr
    780e:	4b03      	ldr	r3, [pc, #12]	; (781c <__aeabi_f2iz+0x3c>)
    7810:	18d0      	adds	r0, r2, r3
    7812:	e7fb      	b.n	780c <__aeabi_f2iz+0x2c>
    7814:	3b96      	subs	r3, #150	; 0x96
    7816:	4099      	lsls	r1, r3
    7818:	e7f4      	b.n	7804 <__aeabi_f2iz+0x24>
    781a:	46c0      	nop			; (mov r8, r8)
    781c:	7fffffff 	.word	0x7fffffff

00007820 <__aeabi_i2f>:
    7820:	b570      	push	{r4, r5, r6, lr}
    7822:	1e04      	subs	r4, r0, #0
    7824:	d03c      	beq.n	78a0 <__aeabi_i2f+0x80>
    7826:	0fc6      	lsrs	r6, r0, #31
    7828:	d000      	beq.n	782c <__aeabi_i2f+0xc>
    782a:	4244      	negs	r4, r0
    782c:	1c20      	adds	r0, r4, #0
    782e:	f001 ff77 	bl	9720 <__clzsi2>
    7832:	239e      	movs	r3, #158	; 0x9e
    7834:	1c25      	adds	r5, r4, #0
    7836:	1a1b      	subs	r3, r3, r0
    7838:	2b96      	cmp	r3, #150	; 0x96
    783a:	dc0c      	bgt.n	7856 <__aeabi_i2f+0x36>
    783c:	3808      	subs	r0, #8
    783e:	4084      	lsls	r4, r0
    7840:	0264      	lsls	r4, r4, #9
    7842:	0a64      	lsrs	r4, r4, #9
    7844:	b2db      	uxtb	r3, r3
    7846:	1c32      	adds	r2, r6, #0
    7848:	0264      	lsls	r4, r4, #9
    784a:	05db      	lsls	r3, r3, #23
    784c:	0a60      	lsrs	r0, r4, #9
    784e:	07d2      	lsls	r2, r2, #31
    7850:	4318      	orrs	r0, r3
    7852:	4310      	orrs	r0, r2
    7854:	bd70      	pop	{r4, r5, r6, pc}
    7856:	2b99      	cmp	r3, #153	; 0x99
    7858:	dd0a      	ble.n	7870 <__aeabi_i2f+0x50>
    785a:	2205      	movs	r2, #5
    785c:	1a12      	subs	r2, r2, r0
    785e:	1c21      	adds	r1, r4, #0
    7860:	40d1      	lsrs	r1, r2
    7862:	1c0a      	adds	r2, r1, #0
    7864:	1c01      	adds	r1, r0, #0
    7866:	311b      	adds	r1, #27
    7868:	408d      	lsls	r5, r1
    786a:	1e69      	subs	r1, r5, #1
    786c:	418d      	sbcs	r5, r1
    786e:	4315      	orrs	r5, r2
    7870:	2805      	cmp	r0, #5
    7872:	dd01      	ble.n	7878 <__aeabi_i2f+0x58>
    7874:	1f42      	subs	r2, r0, #5
    7876:	4095      	lsls	r5, r2
    7878:	4c16      	ldr	r4, [pc, #88]	; (78d4 <__aeabi_i2f+0xb4>)
    787a:	402c      	ands	r4, r5
    787c:	076a      	lsls	r2, r5, #29
    787e:	d004      	beq.n	788a <__aeabi_i2f+0x6a>
    7880:	220f      	movs	r2, #15
    7882:	4015      	ands	r5, r2
    7884:	2d04      	cmp	r5, #4
    7886:	d000      	beq.n	788a <__aeabi_i2f+0x6a>
    7888:	3404      	adds	r4, #4
    788a:	0161      	lsls	r1, r4, #5
    788c:	d50c      	bpl.n	78a8 <__aeabi_i2f+0x88>
    788e:	239f      	movs	r3, #159	; 0x9f
    7890:	1a18      	subs	r0, r3, r0
    7892:	28ff      	cmp	r0, #255	; 0xff
    7894:	d01a      	beq.n	78cc <__aeabi_i2f+0xac>
    7896:	01a4      	lsls	r4, r4, #6
    7898:	0a64      	lsrs	r4, r4, #9
    789a:	b2c3      	uxtb	r3, r0
    789c:	1c32      	adds	r2, r6, #0
    789e:	e7d3      	b.n	7848 <__aeabi_i2f+0x28>
    78a0:	2200      	movs	r2, #0
    78a2:	2300      	movs	r3, #0
    78a4:	2400      	movs	r4, #0
    78a6:	e7cf      	b.n	7848 <__aeabi_i2f+0x28>
    78a8:	08e4      	lsrs	r4, r4, #3
    78aa:	2bff      	cmp	r3, #255	; 0xff
    78ac:	d004      	beq.n	78b8 <__aeabi_i2f+0x98>
    78ae:	0264      	lsls	r4, r4, #9
    78b0:	0a64      	lsrs	r4, r4, #9
    78b2:	b2db      	uxtb	r3, r3
    78b4:	1c32      	adds	r2, r6, #0
    78b6:	e7c7      	b.n	7848 <__aeabi_i2f+0x28>
    78b8:	2c00      	cmp	r4, #0
    78ba:	d004      	beq.n	78c6 <__aeabi_i2f+0xa6>
    78bc:	2080      	movs	r0, #128	; 0x80
    78be:	03c0      	lsls	r0, r0, #15
    78c0:	4304      	orrs	r4, r0
    78c2:	0264      	lsls	r4, r4, #9
    78c4:	0a64      	lsrs	r4, r4, #9
    78c6:	1c32      	adds	r2, r6, #0
    78c8:	23ff      	movs	r3, #255	; 0xff
    78ca:	e7bd      	b.n	7848 <__aeabi_i2f+0x28>
    78cc:	1c32      	adds	r2, r6, #0
    78ce:	23ff      	movs	r3, #255	; 0xff
    78d0:	2400      	movs	r4, #0
    78d2:	e7b9      	b.n	7848 <__aeabi_i2f+0x28>
    78d4:	fbffffff 	.word	0xfbffffff

000078d8 <__aeabi_ui2f>:
    78d8:	b510      	push	{r4, lr}
    78da:	1e04      	subs	r4, r0, #0
    78dc:	d033      	beq.n	7946 <__aeabi_ui2f+0x6e>
    78de:	f001 ff1f 	bl	9720 <__clzsi2>
    78e2:	239e      	movs	r3, #158	; 0x9e
    78e4:	1a1b      	subs	r3, r3, r0
    78e6:	2b96      	cmp	r3, #150	; 0x96
    78e8:	dc09      	bgt.n	78fe <__aeabi_ui2f+0x26>
    78ea:	3808      	subs	r0, #8
    78ec:	4084      	lsls	r4, r0
    78ee:	0264      	lsls	r4, r4, #9
    78f0:	0a64      	lsrs	r4, r4, #9
    78f2:	b2db      	uxtb	r3, r3
    78f4:	0264      	lsls	r4, r4, #9
    78f6:	05db      	lsls	r3, r3, #23
    78f8:	0a60      	lsrs	r0, r4, #9
    78fa:	4318      	orrs	r0, r3
    78fc:	bd10      	pop	{r4, pc}
    78fe:	2b99      	cmp	r3, #153	; 0x99
    7900:	dd0a      	ble.n	7918 <__aeabi_ui2f+0x40>
    7902:	2205      	movs	r2, #5
    7904:	1a12      	subs	r2, r2, r0
    7906:	1c21      	adds	r1, r4, #0
    7908:	40d1      	lsrs	r1, r2
    790a:	1c0a      	adds	r2, r1, #0
    790c:	1c01      	adds	r1, r0, #0
    790e:	311b      	adds	r1, #27
    7910:	408c      	lsls	r4, r1
    7912:	1e61      	subs	r1, r4, #1
    7914:	418c      	sbcs	r4, r1
    7916:	4314      	orrs	r4, r2
    7918:	2805      	cmp	r0, #5
    791a:	dd01      	ble.n	7920 <__aeabi_ui2f+0x48>
    791c:	1f42      	subs	r2, r0, #5
    791e:	4094      	lsls	r4, r2
    7920:	4a14      	ldr	r2, [pc, #80]	; (7974 <__aeabi_ui2f+0x9c>)
    7922:	4022      	ands	r2, r4
    7924:	0761      	lsls	r1, r4, #29
    7926:	d004      	beq.n	7932 <__aeabi_ui2f+0x5a>
    7928:	210f      	movs	r1, #15
    792a:	400c      	ands	r4, r1
    792c:	2c04      	cmp	r4, #4
    792e:	d000      	beq.n	7932 <__aeabi_ui2f+0x5a>
    7930:	3204      	adds	r2, #4
    7932:	0151      	lsls	r1, r2, #5
    7934:	d50a      	bpl.n	794c <__aeabi_ui2f+0x74>
    7936:	239f      	movs	r3, #159	; 0x9f
    7938:	1a18      	subs	r0, r3, r0
    793a:	28ff      	cmp	r0, #255	; 0xff
    793c:	d016      	beq.n	796c <__aeabi_ui2f+0x94>
    793e:	0194      	lsls	r4, r2, #6
    7940:	0a64      	lsrs	r4, r4, #9
    7942:	b2c3      	uxtb	r3, r0
    7944:	e7d6      	b.n	78f4 <__aeabi_ui2f+0x1c>
    7946:	2300      	movs	r3, #0
    7948:	2400      	movs	r4, #0
    794a:	e7d3      	b.n	78f4 <__aeabi_ui2f+0x1c>
    794c:	08d2      	lsrs	r2, r2, #3
    794e:	2bff      	cmp	r3, #255	; 0xff
    7950:	d003      	beq.n	795a <__aeabi_ui2f+0x82>
    7952:	0254      	lsls	r4, r2, #9
    7954:	0a64      	lsrs	r4, r4, #9
    7956:	b2db      	uxtb	r3, r3
    7958:	e7cc      	b.n	78f4 <__aeabi_ui2f+0x1c>
    795a:	2a00      	cmp	r2, #0
    795c:	d006      	beq.n	796c <__aeabi_ui2f+0x94>
    795e:	2480      	movs	r4, #128	; 0x80
    7960:	03e4      	lsls	r4, r4, #15
    7962:	4314      	orrs	r4, r2
    7964:	0264      	lsls	r4, r4, #9
    7966:	0a64      	lsrs	r4, r4, #9
    7968:	23ff      	movs	r3, #255	; 0xff
    796a:	e7c3      	b.n	78f4 <__aeabi_ui2f+0x1c>
    796c:	23ff      	movs	r3, #255	; 0xff
    796e:	2400      	movs	r4, #0
    7970:	e7c0      	b.n	78f4 <__aeabi_ui2f+0x1c>
    7972:	46c0      	nop			; (mov r8, r8)
    7974:	fbffffff 	.word	0xfbffffff

00007978 <__aeabi_dadd>:
    7978:	b5f8      	push	{r3, r4, r5, r6, r7, lr}
    797a:	465f      	mov	r7, fp
    797c:	4656      	mov	r6, sl
    797e:	4644      	mov	r4, r8
    7980:	464d      	mov	r5, r9
    7982:	b4f0      	push	{r4, r5, r6, r7}
    7984:	030c      	lsls	r4, r1, #12
    7986:	004d      	lsls	r5, r1, #1
    7988:	0fce      	lsrs	r6, r1, #31
    798a:	0a61      	lsrs	r1, r4, #9
    798c:	0f44      	lsrs	r4, r0, #29
    798e:	4321      	orrs	r1, r4
    7990:	00c4      	lsls	r4, r0, #3
    7992:	0318      	lsls	r0, r3, #12
    7994:	4680      	mov	r8, r0
    7996:	0058      	lsls	r0, r3, #1
    7998:	0d40      	lsrs	r0, r0, #21
    799a:	4682      	mov	sl, r0
    799c:	0fd8      	lsrs	r0, r3, #31
    799e:	4684      	mov	ip, r0
    79a0:	4640      	mov	r0, r8
    79a2:	0a40      	lsrs	r0, r0, #9
    79a4:	0f53      	lsrs	r3, r2, #29
    79a6:	4303      	orrs	r3, r0
    79a8:	00d0      	lsls	r0, r2, #3
    79aa:	0d6d      	lsrs	r5, r5, #21
    79ac:	1c37      	adds	r7, r6, #0
    79ae:	4683      	mov	fp, r0
    79b0:	4652      	mov	r2, sl
    79b2:	4566      	cmp	r6, ip
    79b4:	d100      	bne.n	79b8 <__aeabi_dadd+0x40>
    79b6:	e0a4      	b.n	7b02 <__aeabi_dadd+0x18a>
    79b8:	1aaf      	subs	r7, r5, r2
    79ba:	2f00      	cmp	r7, #0
    79bc:	dc00      	bgt.n	79c0 <__aeabi_dadd+0x48>
    79be:	e109      	b.n	7bd4 <__aeabi_dadd+0x25c>
    79c0:	2a00      	cmp	r2, #0
    79c2:	d13b      	bne.n	7a3c <__aeabi_dadd+0xc4>
    79c4:	4318      	orrs	r0, r3
    79c6:	d000      	beq.n	79ca <__aeabi_dadd+0x52>
    79c8:	e0ea      	b.n	7ba0 <__aeabi_dadd+0x228>
    79ca:	0763      	lsls	r3, r4, #29
    79cc:	d100      	bne.n	79d0 <__aeabi_dadd+0x58>
    79ce:	e087      	b.n	7ae0 <__aeabi_dadd+0x168>
    79d0:	230f      	movs	r3, #15
    79d2:	4023      	ands	r3, r4
    79d4:	2b04      	cmp	r3, #4
    79d6:	d100      	bne.n	79da <__aeabi_dadd+0x62>
    79d8:	e082      	b.n	7ae0 <__aeabi_dadd+0x168>
    79da:	1d22      	adds	r2, r4, #4
    79dc:	42a2      	cmp	r2, r4
    79de:	41a4      	sbcs	r4, r4
    79e0:	4264      	negs	r4, r4
    79e2:	2380      	movs	r3, #128	; 0x80
    79e4:	1909      	adds	r1, r1, r4
    79e6:	041b      	lsls	r3, r3, #16
    79e8:	400b      	ands	r3, r1
    79ea:	1c37      	adds	r7, r6, #0
    79ec:	1c14      	adds	r4, r2, #0
    79ee:	2b00      	cmp	r3, #0
    79f0:	d100      	bne.n	79f4 <__aeabi_dadd+0x7c>
    79f2:	e07c      	b.n	7aee <__aeabi_dadd+0x176>
    79f4:	4bce      	ldr	r3, [pc, #824]	; (7d30 <__aeabi_dadd+0x3b8>)
    79f6:	3501      	adds	r5, #1
    79f8:	429d      	cmp	r5, r3
    79fa:	d100      	bne.n	79fe <__aeabi_dadd+0x86>
    79fc:	e105      	b.n	7c0a <__aeabi_dadd+0x292>
    79fe:	4bcd      	ldr	r3, [pc, #820]	; (7d34 <__aeabi_dadd+0x3bc>)
    7a00:	08e4      	lsrs	r4, r4, #3
    7a02:	4019      	ands	r1, r3
    7a04:	0748      	lsls	r0, r1, #29
    7a06:	0249      	lsls	r1, r1, #9
    7a08:	4304      	orrs	r4, r0
    7a0a:	0b0b      	lsrs	r3, r1, #12
    7a0c:	2000      	movs	r0, #0
    7a0e:	2100      	movs	r1, #0
    7a10:	031b      	lsls	r3, r3, #12
    7a12:	0b1a      	lsrs	r2, r3, #12
    7a14:	0d0b      	lsrs	r3, r1, #20
    7a16:	056d      	lsls	r5, r5, #21
    7a18:	051b      	lsls	r3, r3, #20
    7a1a:	4313      	orrs	r3, r2
    7a1c:	086a      	lsrs	r2, r5, #1
    7a1e:	4dc6      	ldr	r5, [pc, #792]	; (7d38 <__aeabi_dadd+0x3c0>)
    7a20:	07ff      	lsls	r7, r7, #31
    7a22:	401d      	ands	r5, r3
    7a24:	4315      	orrs	r5, r2
    7a26:	006d      	lsls	r5, r5, #1
    7a28:	086d      	lsrs	r5, r5, #1
    7a2a:	1c29      	adds	r1, r5, #0
    7a2c:	4339      	orrs	r1, r7
    7a2e:	1c20      	adds	r0, r4, #0
    7a30:	bc3c      	pop	{r2, r3, r4, r5}
    7a32:	4690      	mov	r8, r2
    7a34:	4699      	mov	r9, r3
    7a36:	46a2      	mov	sl, r4
    7a38:	46ab      	mov	fp, r5
    7a3a:	bdf8      	pop	{r3, r4, r5, r6, r7, pc}
    7a3c:	48bc      	ldr	r0, [pc, #752]	; (7d30 <__aeabi_dadd+0x3b8>)
    7a3e:	4285      	cmp	r5, r0
    7a40:	d0c3      	beq.n	79ca <__aeabi_dadd+0x52>
    7a42:	2080      	movs	r0, #128	; 0x80
    7a44:	0400      	lsls	r0, r0, #16
    7a46:	4303      	orrs	r3, r0
    7a48:	2f38      	cmp	r7, #56	; 0x38
    7a4a:	dd00      	ble.n	7a4e <__aeabi_dadd+0xd6>
    7a4c:	e0f0      	b.n	7c30 <__aeabi_dadd+0x2b8>
    7a4e:	2f1f      	cmp	r7, #31
    7a50:	dd00      	ble.n	7a54 <__aeabi_dadd+0xdc>
    7a52:	e124      	b.n	7c9e <__aeabi_dadd+0x326>
    7a54:	2020      	movs	r0, #32
    7a56:	1bc0      	subs	r0, r0, r7
    7a58:	1c1a      	adds	r2, r3, #0
    7a5a:	4681      	mov	r9, r0
    7a5c:	4082      	lsls	r2, r0
    7a5e:	4658      	mov	r0, fp
    7a60:	40f8      	lsrs	r0, r7
    7a62:	4302      	orrs	r2, r0
    7a64:	4694      	mov	ip, r2
    7a66:	4658      	mov	r0, fp
    7a68:	464a      	mov	r2, r9
    7a6a:	4090      	lsls	r0, r2
    7a6c:	1e42      	subs	r2, r0, #1
    7a6e:	4190      	sbcs	r0, r2
    7a70:	40fb      	lsrs	r3, r7
    7a72:	4662      	mov	r2, ip
    7a74:	4302      	orrs	r2, r0
    7a76:	1c1f      	adds	r7, r3, #0
    7a78:	1aa2      	subs	r2, r4, r2
    7a7a:	4294      	cmp	r4, r2
    7a7c:	41a4      	sbcs	r4, r4
    7a7e:	4264      	negs	r4, r4
    7a80:	1bc9      	subs	r1, r1, r7
    7a82:	1b09      	subs	r1, r1, r4
    7a84:	1c14      	adds	r4, r2, #0
    7a86:	020b      	lsls	r3, r1, #8
    7a88:	d59f      	bpl.n	79ca <__aeabi_dadd+0x52>
    7a8a:	0249      	lsls	r1, r1, #9
    7a8c:	0a4f      	lsrs	r7, r1, #9
    7a8e:	2f00      	cmp	r7, #0
    7a90:	d100      	bne.n	7a94 <__aeabi_dadd+0x11c>
    7a92:	e0c8      	b.n	7c26 <__aeabi_dadd+0x2ae>
    7a94:	1c38      	adds	r0, r7, #0
    7a96:	f001 fe43 	bl	9720 <__clzsi2>
    7a9a:	1c02      	adds	r2, r0, #0
    7a9c:	3a08      	subs	r2, #8
    7a9e:	2a1f      	cmp	r2, #31
    7aa0:	dd00      	ble.n	7aa4 <__aeabi_dadd+0x12c>
    7aa2:	e0b5      	b.n	7c10 <__aeabi_dadd+0x298>
    7aa4:	2128      	movs	r1, #40	; 0x28
    7aa6:	1a09      	subs	r1, r1, r0
    7aa8:	1c20      	adds	r0, r4, #0
    7aaa:	4097      	lsls	r7, r2
    7aac:	40c8      	lsrs	r0, r1
    7aae:	4307      	orrs	r7, r0
    7ab0:	4094      	lsls	r4, r2
    7ab2:	4295      	cmp	r5, r2
    7ab4:	dd00      	ble.n	7ab8 <__aeabi_dadd+0x140>
    7ab6:	e0b2      	b.n	7c1e <__aeabi_dadd+0x2a6>
    7ab8:	1b55      	subs	r5, r2, r5
    7aba:	1c69      	adds	r1, r5, #1
    7abc:	291f      	cmp	r1, #31
    7abe:	dd00      	ble.n	7ac2 <__aeabi_dadd+0x14a>
    7ac0:	e0dc      	b.n	7c7c <__aeabi_dadd+0x304>
    7ac2:	221f      	movs	r2, #31
    7ac4:	1b55      	subs	r5, r2, r5
    7ac6:	1c3b      	adds	r3, r7, #0
    7ac8:	1c22      	adds	r2, r4, #0
    7aca:	40ab      	lsls	r3, r5
    7acc:	40ca      	lsrs	r2, r1
    7ace:	40ac      	lsls	r4, r5
    7ad0:	1e65      	subs	r5, r4, #1
    7ad2:	41ac      	sbcs	r4, r5
    7ad4:	4313      	orrs	r3, r2
    7ad6:	40cf      	lsrs	r7, r1
    7ad8:	431c      	orrs	r4, r3
    7ada:	1c39      	adds	r1, r7, #0
    7adc:	2500      	movs	r5, #0
    7ade:	e774      	b.n	79ca <__aeabi_dadd+0x52>
    7ae0:	2380      	movs	r3, #128	; 0x80
    7ae2:	041b      	lsls	r3, r3, #16
    7ae4:	400b      	ands	r3, r1
    7ae6:	1c37      	adds	r7, r6, #0
    7ae8:	2b00      	cmp	r3, #0
    7aea:	d000      	beq.n	7aee <__aeabi_dadd+0x176>
    7aec:	e782      	b.n	79f4 <__aeabi_dadd+0x7c>
    7aee:	4b90      	ldr	r3, [pc, #576]	; (7d30 <__aeabi_dadd+0x3b8>)
    7af0:	0748      	lsls	r0, r1, #29
    7af2:	08e4      	lsrs	r4, r4, #3
    7af4:	4304      	orrs	r4, r0
    7af6:	08c9      	lsrs	r1, r1, #3
    7af8:	429d      	cmp	r5, r3
    7afa:	d048      	beq.n	7b8e <__aeabi_dadd+0x216>
    7afc:	0309      	lsls	r1, r1, #12
    7afe:	0b0b      	lsrs	r3, r1, #12
    7b00:	e784      	b.n	7a0c <__aeabi_dadd+0x94>
    7b02:	1aaa      	subs	r2, r5, r2
    7b04:	4694      	mov	ip, r2
    7b06:	2a00      	cmp	r2, #0
    7b08:	dc00      	bgt.n	7b0c <__aeabi_dadd+0x194>
    7b0a:	e098      	b.n	7c3e <__aeabi_dadd+0x2c6>
    7b0c:	4650      	mov	r0, sl
    7b0e:	2800      	cmp	r0, #0
    7b10:	d052      	beq.n	7bb8 <__aeabi_dadd+0x240>
    7b12:	4887      	ldr	r0, [pc, #540]	; (7d30 <__aeabi_dadd+0x3b8>)
    7b14:	4285      	cmp	r5, r0
    7b16:	d100      	bne.n	7b1a <__aeabi_dadd+0x1a2>
    7b18:	e757      	b.n	79ca <__aeabi_dadd+0x52>
    7b1a:	2080      	movs	r0, #128	; 0x80
    7b1c:	0400      	lsls	r0, r0, #16
    7b1e:	4303      	orrs	r3, r0
    7b20:	4662      	mov	r2, ip
    7b22:	2a38      	cmp	r2, #56	; 0x38
    7b24:	dd00      	ble.n	7b28 <__aeabi_dadd+0x1b0>
    7b26:	e0fc      	b.n	7d22 <__aeabi_dadd+0x3aa>
    7b28:	2a1f      	cmp	r2, #31
    7b2a:	dd00      	ble.n	7b2e <__aeabi_dadd+0x1b6>
    7b2c:	e14a      	b.n	7dc4 <__aeabi_dadd+0x44c>
    7b2e:	2220      	movs	r2, #32
    7b30:	4660      	mov	r0, ip
    7b32:	1a10      	subs	r0, r2, r0
    7b34:	1c1a      	adds	r2, r3, #0
    7b36:	4082      	lsls	r2, r0
    7b38:	4682      	mov	sl, r0
    7b3a:	4691      	mov	r9, r2
    7b3c:	4658      	mov	r0, fp
    7b3e:	4662      	mov	r2, ip
    7b40:	40d0      	lsrs	r0, r2
    7b42:	464a      	mov	r2, r9
    7b44:	4302      	orrs	r2, r0
    7b46:	4690      	mov	r8, r2
    7b48:	4658      	mov	r0, fp
    7b4a:	4652      	mov	r2, sl
    7b4c:	4090      	lsls	r0, r2
    7b4e:	1e42      	subs	r2, r0, #1
    7b50:	4190      	sbcs	r0, r2
    7b52:	4642      	mov	r2, r8
    7b54:	4302      	orrs	r2, r0
    7b56:	4660      	mov	r0, ip
    7b58:	40c3      	lsrs	r3, r0
    7b5a:	1912      	adds	r2, r2, r4
    7b5c:	42a2      	cmp	r2, r4
    7b5e:	41a4      	sbcs	r4, r4
    7b60:	4264      	negs	r4, r4
    7b62:	1859      	adds	r1, r3, r1
    7b64:	1909      	adds	r1, r1, r4
    7b66:	1c14      	adds	r4, r2, #0
    7b68:	0208      	lsls	r0, r1, #8
    7b6a:	d400      	bmi.n	7b6e <__aeabi_dadd+0x1f6>
    7b6c:	e72d      	b.n	79ca <__aeabi_dadd+0x52>
    7b6e:	4b70      	ldr	r3, [pc, #448]	; (7d30 <__aeabi_dadd+0x3b8>)
    7b70:	3501      	adds	r5, #1
    7b72:	429d      	cmp	r5, r3
    7b74:	d100      	bne.n	7b78 <__aeabi_dadd+0x200>
    7b76:	e122      	b.n	7dbe <__aeabi_dadd+0x446>
    7b78:	4b6e      	ldr	r3, [pc, #440]	; (7d34 <__aeabi_dadd+0x3bc>)
    7b7a:	0860      	lsrs	r0, r4, #1
    7b7c:	4019      	ands	r1, r3
    7b7e:	2301      	movs	r3, #1
    7b80:	4023      	ands	r3, r4
    7b82:	1c1c      	adds	r4, r3, #0
    7b84:	4304      	orrs	r4, r0
    7b86:	07cb      	lsls	r3, r1, #31
    7b88:	431c      	orrs	r4, r3
    7b8a:	0849      	lsrs	r1, r1, #1
    7b8c:	e71d      	b.n	79ca <__aeabi_dadd+0x52>
    7b8e:	1c23      	adds	r3, r4, #0
    7b90:	430b      	orrs	r3, r1
    7b92:	d03a      	beq.n	7c0a <__aeabi_dadd+0x292>
    7b94:	2380      	movs	r3, #128	; 0x80
    7b96:	031b      	lsls	r3, r3, #12
    7b98:	430b      	orrs	r3, r1
    7b9a:	031b      	lsls	r3, r3, #12
    7b9c:	0b1b      	lsrs	r3, r3, #12
    7b9e:	e735      	b.n	7a0c <__aeabi_dadd+0x94>
    7ba0:	3f01      	subs	r7, #1
    7ba2:	2f00      	cmp	r7, #0
    7ba4:	d165      	bne.n	7c72 <__aeabi_dadd+0x2fa>
    7ba6:	4658      	mov	r0, fp
    7ba8:	1a22      	subs	r2, r4, r0
    7baa:	4294      	cmp	r4, r2
    7bac:	41a4      	sbcs	r4, r4
    7bae:	4264      	negs	r4, r4
    7bb0:	1ac9      	subs	r1, r1, r3
    7bb2:	1b09      	subs	r1, r1, r4
    7bb4:	1c14      	adds	r4, r2, #0
    7bb6:	e766      	b.n	7a86 <__aeabi_dadd+0x10e>
    7bb8:	4658      	mov	r0, fp
    7bba:	4318      	orrs	r0, r3
    7bbc:	d100      	bne.n	7bc0 <__aeabi_dadd+0x248>
    7bbe:	e704      	b.n	79ca <__aeabi_dadd+0x52>
    7bc0:	2201      	movs	r2, #1
    7bc2:	4252      	negs	r2, r2
    7bc4:	4494      	add	ip, r2
    7bc6:	4660      	mov	r0, ip
    7bc8:	2800      	cmp	r0, #0
    7bca:	d000      	beq.n	7bce <__aeabi_dadd+0x256>
    7bcc:	e0c5      	b.n	7d5a <__aeabi_dadd+0x3e2>
    7bce:	4658      	mov	r0, fp
    7bd0:	1902      	adds	r2, r0, r4
    7bd2:	e7c3      	b.n	7b5c <__aeabi_dadd+0x1e4>
    7bd4:	2f00      	cmp	r7, #0
    7bd6:	d173      	bne.n	7cc0 <__aeabi_dadd+0x348>
    7bd8:	1c68      	adds	r0, r5, #1
    7bda:	0540      	lsls	r0, r0, #21
    7bdc:	0d40      	lsrs	r0, r0, #21
    7bde:	2801      	cmp	r0, #1
    7be0:	dc00      	bgt.n	7be4 <__aeabi_dadd+0x26c>
    7be2:	e0de      	b.n	7da2 <__aeabi_dadd+0x42a>
    7be4:	465a      	mov	r2, fp
    7be6:	1aa2      	subs	r2, r4, r2
    7be8:	4294      	cmp	r4, r2
    7bea:	41bf      	sbcs	r7, r7
    7bec:	1ac8      	subs	r0, r1, r3
    7bee:	427f      	negs	r7, r7
    7bf0:	1bc7      	subs	r7, r0, r7
    7bf2:	0238      	lsls	r0, r7, #8
    7bf4:	d400      	bmi.n	7bf8 <__aeabi_dadd+0x280>
    7bf6:	e089      	b.n	7d0c <__aeabi_dadd+0x394>
    7bf8:	465a      	mov	r2, fp
    7bfa:	1b14      	subs	r4, r2, r4
    7bfc:	45a3      	cmp	fp, r4
    7bfe:	4192      	sbcs	r2, r2
    7c00:	1a59      	subs	r1, r3, r1
    7c02:	4252      	negs	r2, r2
    7c04:	1a8f      	subs	r7, r1, r2
    7c06:	4666      	mov	r6, ip
    7c08:	e741      	b.n	7a8e <__aeabi_dadd+0x116>
    7c0a:	2300      	movs	r3, #0
    7c0c:	2400      	movs	r4, #0
    7c0e:	e6fd      	b.n	7a0c <__aeabi_dadd+0x94>
    7c10:	1c27      	adds	r7, r4, #0
    7c12:	3828      	subs	r0, #40	; 0x28
    7c14:	4087      	lsls	r7, r0
    7c16:	2400      	movs	r4, #0
    7c18:	4295      	cmp	r5, r2
    7c1a:	dc00      	bgt.n	7c1e <__aeabi_dadd+0x2a6>
    7c1c:	e74c      	b.n	7ab8 <__aeabi_dadd+0x140>
    7c1e:	4945      	ldr	r1, [pc, #276]	; (7d34 <__aeabi_dadd+0x3bc>)
    7c20:	1aad      	subs	r5, r5, r2
    7c22:	4039      	ands	r1, r7
    7c24:	e6d1      	b.n	79ca <__aeabi_dadd+0x52>
    7c26:	1c20      	adds	r0, r4, #0
    7c28:	f001 fd7a 	bl	9720 <__clzsi2>
    7c2c:	3020      	adds	r0, #32
    7c2e:	e734      	b.n	7a9a <__aeabi_dadd+0x122>
    7c30:	465a      	mov	r2, fp
    7c32:	431a      	orrs	r2, r3
    7c34:	1e53      	subs	r3, r2, #1
    7c36:	419a      	sbcs	r2, r3
    7c38:	b2d2      	uxtb	r2, r2
    7c3a:	2700      	movs	r7, #0
    7c3c:	e71c      	b.n	7a78 <__aeabi_dadd+0x100>
    7c3e:	2a00      	cmp	r2, #0
    7c40:	d000      	beq.n	7c44 <__aeabi_dadd+0x2cc>
    7c42:	e0dc      	b.n	7dfe <__aeabi_dadd+0x486>
    7c44:	1c68      	adds	r0, r5, #1
    7c46:	0542      	lsls	r2, r0, #21
    7c48:	0d52      	lsrs	r2, r2, #21
    7c4a:	2a01      	cmp	r2, #1
    7c4c:	dc00      	bgt.n	7c50 <__aeabi_dadd+0x2d8>
    7c4e:	e08d      	b.n	7d6c <__aeabi_dadd+0x3f4>
    7c50:	4d37      	ldr	r5, [pc, #220]	; (7d30 <__aeabi_dadd+0x3b8>)
    7c52:	42a8      	cmp	r0, r5
    7c54:	d100      	bne.n	7c58 <__aeabi_dadd+0x2e0>
    7c56:	e0f3      	b.n	7e40 <__aeabi_dadd+0x4c8>
    7c58:	465d      	mov	r5, fp
    7c5a:	192a      	adds	r2, r5, r4
    7c5c:	42a2      	cmp	r2, r4
    7c5e:	41a4      	sbcs	r4, r4
    7c60:	4264      	negs	r4, r4
    7c62:	1859      	adds	r1, r3, r1
    7c64:	1909      	adds	r1, r1, r4
    7c66:	07cc      	lsls	r4, r1, #31
    7c68:	0852      	lsrs	r2, r2, #1
    7c6a:	4314      	orrs	r4, r2
    7c6c:	0849      	lsrs	r1, r1, #1
    7c6e:	1c05      	adds	r5, r0, #0
    7c70:	e6ab      	b.n	79ca <__aeabi_dadd+0x52>
    7c72:	482f      	ldr	r0, [pc, #188]	; (7d30 <__aeabi_dadd+0x3b8>)
    7c74:	4285      	cmp	r5, r0
    7c76:	d000      	beq.n	7c7a <__aeabi_dadd+0x302>
    7c78:	e6e6      	b.n	7a48 <__aeabi_dadd+0xd0>
    7c7a:	e6a6      	b.n	79ca <__aeabi_dadd+0x52>
    7c7c:	1c2b      	adds	r3, r5, #0
    7c7e:	3b1f      	subs	r3, #31
    7c80:	1c3a      	adds	r2, r7, #0
    7c82:	40da      	lsrs	r2, r3
    7c84:	1c13      	adds	r3, r2, #0
    7c86:	2920      	cmp	r1, #32
    7c88:	d06c      	beq.n	7d64 <__aeabi_dadd+0x3ec>
    7c8a:	223f      	movs	r2, #63	; 0x3f
    7c8c:	1b55      	subs	r5, r2, r5
    7c8e:	40af      	lsls	r7, r5
    7c90:	433c      	orrs	r4, r7
    7c92:	1e60      	subs	r0, r4, #1
    7c94:	4184      	sbcs	r4, r0
    7c96:	431c      	orrs	r4, r3
    7c98:	2100      	movs	r1, #0
    7c9a:	2500      	movs	r5, #0
    7c9c:	e695      	b.n	79ca <__aeabi_dadd+0x52>
    7c9e:	1c38      	adds	r0, r7, #0
    7ca0:	3820      	subs	r0, #32
    7ca2:	1c1a      	adds	r2, r3, #0
    7ca4:	40c2      	lsrs	r2, r0
    7ca6:	1c10      	adds	r0, r2, #0
    7ca8:	2f20      	cmp	r7, #32
    7caa:	d05d      	beq.n	7d68 <__aeabi_dadd+0x3f0>
    7cac:	2240      	movs	r2, #64	; 0x40
    7cae:	1bd7      	subs	r7, r2, r7
    7cb0:	40bb      	lsls	r3, r7
    7cb2:	465a      	mov	r2, fp
    7cb4:	431a      	orrs	r2, r3
    7cb6:	1e53      	subs	r3, r2, #1
    7cb8:	419a      	sbcs	r2, r3
    7cba:	4302      	orrs	r2, r0
    7cbc:	2700      	movs	r7, #0
    7cbe:	e6db      	b.n	7a78 <__aeabi_dadd+0x100>
    7cc0:	2d00      	cmp	r5, #0
    7cc2:	d03b      	beq.n	7d3c <__aeabi_dadd+0x3c4>
    7cc4:	4d1a      	ldr	r5, [pc, #104]	; (7d30 <__aeabi_dadd+0x3b8>)
    7cc6:	45aa      	cmp	sl, r5
    7cc8:	d100      	bne.n	7ccc <__aeabi_dadd+0x354>
    7cca:	e093      	b.n	7df4 <__aeabi_dadd+0x47c>
    7ccc:	2580      	movs	r5, #128	; 0x80
    7cce:	042d      	lsls	r5, r5, #16
    7cd0:	427f      	negs	r7, r7
    7cd2:	4329      	orrs	r1, r5
    7cd4:	2f38      	cmp	r7, #56	; 0x38
    7cd6:	dd00      	ble.n	7cda <__aeabi_dadd+0x362>
    7cd8:	e0ac      	b.n	7e34 <__aeabi_dadd+0x4bc>
    7cda:	2f1f      	cmp	r7, #31
    7cdc:	dd00      	ble.n	7ce0 <__aeabi_dadd+0x368>
    7cde:	e129      	b.n	7f34 <__aeabi_dadd+0x5bc>
    7ce0:	2520      	movs	r5, #32
    7ce2:	1bed      	subs	r5, r5, r7
    7ce4:	1c08      	adds	r0, r1, #0
    7ce6:	1c26      	adds	r6, r4, #0
    7ce8:	40a8      	lsls	r0, r5
    7cea:	40fe      	lsrs	r6, r7
    7cec:	40ac      	lsls	r4, r5
    7cee:	4306      	orrs	r6, r0
    7cf0:	1e65      	subs	r5, r4, #1
    7cf2:	41ac      	sbcs	r4, r5
    7cf4:	4334      	orrs	r4, r6
    7cf6:	40f9      	lsrs	r1, r7
    7cf8:	465d      	mov	r5, fp
    7cfa:	1b2c      	subs	r4, r5, r4
    7cfc:	45a3      	cmp	fp, r4
    7cfe:	4192      	sbcs	r2, r2
    7d00:	1a5b      	subs	r3, r3, r1
    7d02:	4252      	negs	r2, r2
    7d04:	1a99      	subs	r1, r3, r2
    7d06:	4655      	mov	r5, sl
    7d08:	4666      	mov	r6, ip
    7d0a:	e6bc      	b.n	7a86 <__aeabi_dadd+0x10e>
    7d0c:	1c13      	adds	r3, r2, #0
    7d0e:	433b      	orrs	r3, r7
    7d10:	1c14      	adds	r4, r2, #0
    7d12:	2b00      	cmp	r3, #0
    7d14:	d000      	beq.n	7d18 <__aeabi_dadd+0x3a0>
    7d16:	e6ba      	b.n	7a8e <__aeabi_dadd+0x116>
    7d18:	2700      	movs	r7, #0
    7d1a:	2100      	movs	r1, #0
    7d1c:	2500      	movs	r5, #0
    7d1e:	2400      	movs	r4, #0
    7d20:	e6e5      	b.n	7aee <__aeabi_dadd+0x176>
    7d22:	465a      	mov	r2, fp
    7d24:	431a      	orrs	r2, r3
    7d26:	1e53      	subs	r3, r2, #1
    7d28:	419a      	sbcs	r2, r3
    7d2a:	b2d2      	uxtb	r2, r2
    7d2c:	2300      	movs	r3, #0
    7d2e:	e714      	b.n	7b5a <__aeabi_dadd+0x1e2>
    7d30:	000007ff 	.word	0x000007ff
    7d34:	ff7fffff 	.word	0xff7fffff
    7d38:	800fffff 	.word	0x800fffff
    7d3c:	1c0d      	adds	r5, r1, #0
    7d3e:	4325      	orrs	r5, r4
    7d40:	d058      	beq.n	7df4 <__aeabi_dadd+0x47c>
    7d42:	43ff      	mvns	r7, r7
    7d44:	2f00      	cmp	r7, #0
    7d46:	d151      	bne.n	7dec <__aeabi_dadd+0x474>
    7d48:	1b04      	subs	r4, r0, r4
    7d4a:	45a3      	cmp	fp, r4
    7d4c:	4192      	sbcs	r2, r2
    7d4e:	1a59      	subs	r1, r3, r1
    7d50:	4252      	negs	r2, r2
    7d52:	1a89      	subs	r1, r1, r2
    7d54:	4655      	mov	r5, sl
    7d56:	4666      	mov	r6, ip
    7d58:	e695      	b.n	7a86 <__aeabi_dadd+0x10e>
    7d5a:	4896      	ldr	r0, [pc, #600]	; (7fb4 <__aeabi_dadd+0x63c>)
    7d5c:	4285      	cmp	r5, r0
    7d5e:	d000      	beq.n	7d62 <__aeabi_dadd+0x3ea>
    7d60:	e6de      	b.n	7b20 <__aeabi_dadd+0x1a8>
    7d62:	e632      	b.n	79ca <__aeabi_dadd+0x52>
    7d64:	2700      	movs	r7, #0
    7d66:	e793      	b.n	7c90 <__aeabi_dadd+0x318>
    7d68:	2300      	movs	r3, #0
    7d6a:	e7a2      	b.n	7cb2 <__aeabi_dadd+0x33a>
    7d6c:	1c08      	adds	r0, r1, #0
    7d6e:	4320      	orrs	r0, r4
    7d70:	2d00      	cmp	r5, #0
    7d72:	d000      	beq.n	7d76 <__aeabi_dadd+0x3fe>
    7d74:	e0c4      	b.n	7f00 <__aeabi_dadd+0x588>
    7d76:	2800      	cmp	r0, #0
    7d78:	d100      	bne.n	7d7c <__aeabi_dadd+0x404>
    7d7a:	e0f7      	b.n	7f6c <__aeabi_dadd+0x5f4>
    7d7c:	4658      	mov	r0, fp
    7d7e:	4318      	orrs	r0, r3
    7d80:	d100      	bne.n	7d84 <__aeabi_dadd+0x40c>
    7d82:	e622      	b.n	79ca <__aeabi_dadd+0x52>
    7d84:	4658      	mov	r0, fp
    7d86:	1902      	adds	r2, r0, r4
    7d88:	42a2      	cmp	r2, r4
    7d8a:	41a4      	sbcs	r4, r4
    7d8c:	4264      	negs	r4, r4
    7d8e:	1859      	adds	r1, r3, r1
    7d90:	1909      	adds	r1, r1, r4
    7d92:	1c14      	adds	r4, r2, #0
    7d94:	020a      	lsls	r2, r1, #8
    7d96:	d400      	bmi.n	7d9a <__aeabi_dadd+0x422>
    7d98:	e617      	b.n	79ca <__aeabi_dadd+0x52>
    7d9a:	4b87      	ldr	r3, [pc, #540]	; (7fb8 <__aeabi_dadd+0x640>)
    7d9c:	2501      	movs	r5, #1
    7d9e:	4019      	ands	r1, r3
    7da0:	e613      	b.n	79ca <__aeabi_dadd+0x52>
    7da2:	1c08      	adds	r0, r1, #0
    7da4:	4320      	orrs	r0, r4
    7da6:	2d00      	cmp	r5, #0
    7da8:	d139      	bne.n	7e1e <__aeabi_dadd+0x4a6>
    7daa:	2800      	cmp	r0, #0
    7dac:	d171      	bne.n	7e92 <__aeabi_dadd+0x51a>
    7dae:	4659      	mov	r1, fp
    7db0:	4319      	orrs	r1, r3
    7db2:	d003      	beq.n	7dbc <__aeabi_dadd+0x444>
    7db4:	1c19      	adds	r1, r3, #0
    7db6:	465c      	mov	r4, fp
    7db8:	4666      	mov	r6, ip
    7dba:	e606      	b.n	79ca <__aeabi_dadd+0x52>
    7dbc:	2700      	movs	r7, #0
    7dbe:	2100      	movs	r1, #0
    7dc0:	2400      	movs	r4, #0
    7dc2:	e694      	b.n	7aee <__aeabi_dadd+0x176>
    7dc4:	4660      	mov	r0, ip
    7dc6:	3820      	subs	r0, #32
    7dc8:	1c1a      	adds	r2, r3, #0
    7dca:	40c2      	lsrs	r2, r0
    7dcc:	4660      	mov	r0, ip
    7dce:	4691      	mov	r9, r2
    7dd0:	2820      	cmp	r0, #32
    7dd2:	d100      	bne.n	7dd6 <__aeabi_dadd+0x45e>
    7dd4:	e0ac      	b.n	7f30 <__aeabi_dadd+0x5b8>
    7dd6:	2240      	movs	r2, #64	; 0x40
    7dd8:	1a12      	subs	r2, r2, r0
    7dda:	4093      	lsls	r3, r2
    7ddc:	465a      	mov	r2, fp
    7dde:	431a      	orrs	r2, r3
    7de0:	1e53      	subs	r3, r2, #1
    7de2:	419a      	sbcs	r2, r3
    7de4:	464b      	mov	r3, r9
    7de6:	431a      	orrs	r2, r3
    7de8:	2300      	movs	r3, #0
    7dea:	e6b6      	b.n	7b5a <__aeabi_dadd+0x1e2>
    7dec:	4d71      	ldr	r5, [pc, #452]	; (7fb4 <__aeabi_dadd+0x63c>)
    7dee:	45aa      	cmp	sl, r5
    7df0:	d000      	beq.n	7df4 <__aeabi_dadd+0x47c>
    7df2:	e76f      	b.n	7cd4 <__aeabi_dadd+0x35c>
    7df4:	1c19      	adds	r1, r3, #0
    7df6:	465c      	mov	r4, fp
    7df8:	4655      	mov	r5, sl
    7dfa:	4666      	mov	r6, ip
    7dfc:	e5e5      	b.n	79ca <__aeabi_dadd+0x52>
    7dfe:	2d00      	cmp	r5, #0
    7e00:	d122      	bne.n	7e48 <__aeabi_dadd+0x4d0>
    7e02:	1c0d      	adds	r5, r1, #0
    7e04:	4325      	orrs	r5, r4
    7e06:	d077      	beq.n	7ef8 <__aeabi_dadd+0x580>
    7e08:	43d5      	mvns	r5, r2
    7e0a:	2d00      	cmp	r5, #0
    7e0c:	d171      	bne.n	7ef2 <__aeabi_dadd+0x57a>
    7e0e:	445c      	add	r4, fp
    7e10:	455c      	cmp	r4, fp
    7e12:	4192      	sbcs	r2, r2
    7e14:	1859      	adds	r1, r3, r1
    7e16:	4252      	negs	r2, r2
    7e18:	1889      	adds	r1, r1, r2
    7e1a:	4655      	mov	r5, sl
    7e1c:	e6a4      	b.n	7b68 <__aeabi_dadd+0x1f0>
    7e1e:	2800      	cmp	r0, #0
    7e20:	d14d      	bne.n	7ebe <__aeabi_dadd+0x546>
    7e22:	4659      	mov	r1, fp
    7e24:	4319      	orrs	r1, r3
    7e26:	d100      	bne.n	7e2a <__aeabi_dadd+0x4b2>
    7e28:	e094      	b.n	7f54 <__aeabi_dadd+0x5dc>
    7e2a:	1c19      	adds	r1, r3, #0
    7e2c:	465c      	mov	r4, fp
    7e2e:	4666      	mov	r6, ip
    7e30:	4d60      	ldr	r5, [pc, #384]	; (7fb4 <__aeabi_dadd+0x63c>)
    7e32:	e5ca      	b.n	79ca <__aeabi_dadd+0x52>
    7e34:	430c      	orrs	r4, r1
    7e36:	1e61      	subs	r1, r4, #1
    7e38:	418c      	sbcs	r4, r1
    7e3a:	b2e4      	uxtb	r4, r4
    7e3c:	2100      	movs	r1, #0
    7e3e:	e75b      	b.n	7cf8 <__aeabi_dadd+0x380>
    7e40:	1c05      	adds	r5, r0, #0
    7e42:	2100      	movs	r1, #0
    7e44:	2400      	movs	r4, #0
    7e46:	e652      	b.n	7aee <__aeabi_dadd+0x176>
    7e48:	4d5a      	ldr	r5, [pc, #360]	; (7fb4 <__aeabi_dadd+0x63c>)
    7e4a:	45aa      	cmp	sl, r5
    7e4c:	d054      	beq.n	7ef8 <__aeabi_dadd+0x580>
    7e4e:	4255      	negs	r5, r2
    7e50:	2280      	movs	r2, #128	; 0x80
    7e52:	0410      	lsls	r0, r2, #16
    7e54:	4301      	orrs	r1, r0
    7e56:	2d38      	cmp	r5, #56	; 0x38
    7e58:	dd00      	ble.n	7e5c <__aeabi_dadd+0x4e4>
    7e5a:	e081      	b.n	7f60 <__aeabi_dadd+0x5e8>
    7e5c:	2d1f      	cmp	r5, #31
    7e5e:	dd00      	ble.n	7e62 <__aeabi_dadd+0x4ea>
    7e60:	e092      	b.n	7f88 <__aeabi_dadd+0x610>
    7e62:	2220      	movs	r2, #32
    7e64:	1b50      	subs	r0, r2, r5
    7e66:	1c0a      	adds	r2, r1, #0
    7e68:	4684      	mov	ip, r0
    7e6a:	4082      	lsls	r2, r0
    7e6c:	1c20      	adds	r0, r4, #0
    7e6e:	40e8      	lsrs	r0, r5
    7e70:	4302      	orrs	r2, r0
    7e72:	4690      	mov	r8, r2
    7e74:	4662      	mov	r2, ip
    7e76:	4094      	lsls	r4, r2
    7e78:	1e60      	subs	r0, r4, #1
    7e7a:	4184      	sbcs	r4, r0
    7e7c:	4642      	mov	r2, r8
    7e7e:	4314      	orrs	r4, r2
    7e80:	40e9      	lsrs	r1, r5
    7e82:	445c      	add	r4, fp
    7e84:	455c      	cmp	r4, fp
    7e86:	4192      	sbcs	r2, r2
    7e88:	18cb      	adds	r3, r1, r3
    7e8a:	4252      	negs	r2, r2
    7e8c:	1899      	adds	r1, r3, r2
    7e8e:	4655      	mov	r5, sl
    7e90:	e66a      	b.n	7b68 <__aeabi_dadd+0x1f0>
    7e92:	4658      	mov	r0, fp
    7e94:	4318      	orrs	r0, r3
    7e96:	d100      	bne.n	7e9a <__aeabi_dadd+0x522>
    7e98:	e597      	b.n	79ca <__aeabi_dadd+0x52>
    7e9a:	4658      	mov	r0, fp
    7e9c:	1a27      	subs	r7, r4, r0
    7e9e:	42bc      	cmp	r4, r7
    7ea0:	4192      	sbcs	r2, r2
    7ea2:	1ac8      	subs	r0, r1, r3
    7ea4:	4252      	negs	r2, r2
    7ea6:	1a80      	subs	r0, r0, r2
    7ea8:	0202      	lsls	r2, r0, #8
    7eaa:	d566      	bpl.n	7f7a <__aeabi_dadd+0x602>
    7eac:	4658      	mov	r0, fp
    7eae:	1b04      	subs	r4, r0, r4
    7eb0:	45a3      	cmp	fp, r4
    7eb2:	4192      	sbcs	r2, r2
    7eb4:	1a59      	subs	r1, r3, r1
    7eb6:	4252      	negs	r2, r2
    7eb8:	1a89      	subs	r1, r1, r2
    7eba:	4666      	mov	r6, ip
    7ebc:	e585      	b.n	79ca <__aeabi_dadd+0x52>
    7ebe:	4658      	mov	r0, fp
    7ec0:	4318      	orrs	r0, r3
    7ec2:	d033      	beq.n	7f2c <__aeabi_dadd+0x5b4>
    7ec4:	0748      	lsls	r0, r1, #29
    7ec6:	08e4      	lsrs	r4, r4, #3
    7ec8:	4304      	orrs	r4, r0
    7eca:	2080      	movs	r0, #128	; 0x80
    7ecc:	08c9      	lsrs	r1, r1, #3
    7ece:	0300      	lsls	r0, r0, #12
    7ed0:	4201      	tst	r1, r0
    7ed2:	d008      	beq.n	7ee6 <__aeabi_dadd+0x56e>
    7ed4:	08dd      	lsrs	r5, r3, #3
    7ed6:	4205      	tst	r5, r0
    7ed8:	d105      	bne.n	7ee6 <__aeabi_dadd+0x56e>
    7eda:	4659      	mov	r1, fp
    7edc:	08ca      	lsrs	r2, r1, #3
    7ede:	075c      	lsls	r4, r3, #29
    7ee0:	4314      	orrs	r4, r2
    7ee2:	1c29      	adds	r1, r5, #0
    7ee4:	4666      	mov	r6, ip
    7ee6:	0f63      	lsrs	r3, r4, #29
    7ee8:	00c9      	lsls	r1, r1, #3
    7eea:	4319      	orrs	r1, r3
    7eec:	00e4      	lsls	r4, r4, #3
    7eee:	4d31      	ldr	r5, [pc, #196]	; (7fb4 <__aeabi_dadd+0x63c>)
    7ef0:	e56b      	b.n	79ca <__aeabi_dadd+0x52>
    7ef2:	4a30      	ldr	r2, [pc, #192]	; (7fb4 <__aeabi_dadd+0x63c>)
    7ef4:	4592      	cmp	sl, r2
    7ef6:	d1ae      	bne.n	7e56 <__aeabi_dadd+0x4de>
    7ef8:	1c19      	adds	r1, r3, #0
    7efa:	465c      	mov	r4, fp
    7efc:	4655      	mov	r5, sl
    7efe:	e564      	b.n	79ca <__aeabi_dadd+0x52>
    7f00:	2800      	cmp	r0, #0
    7f02:	d036      	beq.n	7f72 <__aeabi_dadd+0x5fa>
    7f04:	4658      	mov	r0, fp
    7f06:	4318      	orrs	r0, r3
    7f08:	d010      	beq.n	7f2c <__aeabi_dadd+0x5b4>
    7f0a:	2580      	movs	r5, #128	; 0x80
    7f0c:	0748      	lsls	r0, r1, #29
    7f0e:	08e4      	lsrs	r4, r4, #3
    7f10:	08c9      	lsrs	r1, r1, #3
    7f12:	032d      	lsls	r5, r5, #12
    7f14:	4304      	orrs	r4, r0
    7f16:	4229      	tst	r1, r5
    7f18:	d0e5      	beq.n	7ee6 <__aeabi_dadd+0x56e>
    7f1a:	08d8      	lsrs	r0, r3, #3
    7f1c:	4228      	tst	r0, r5
    7f1e:	d1e2      	bne.n	7ee6 <__aeabi_dadd+0x56e>
    7f20:	465d      	mov	r5, fp
    7f22:	08ea      	lsrs	r2, r5, #3
    7f24:	075c      	lsls	r4, r3, #29
    7f26:	4314      	orrs	r4, r2
    7f28:	1c01      	adds	r1, r0, #0
    7f2a:	e7dc      	b.n	7ee6 <__aeabi_dadd+0x56e>
    7f2c:	4d21      	ldr	r5, [pc, #132]	; (7fb4 <__aeabi_dadd+0x63c>)
    7f2e:	e54c      	b.n	79ca <__aeabi_dadd+0x52>
    7f30:	2300      	movs	r3, #0
    7f32:	e753      	b.n	7ddc <__aeabi_dadd+0x464>
    7f34:	1c3d      	adds	r5, r7, #0
    7f36:	3d20      	subs	r5, #32
    7f38:	1c0a      	adds	r2, r1, #0
    7f3a:	40ea      	lsrs	r2, r5
    7f3c:	1c15      	adds	r5, r2, #0
    7f3e:	2f20      	cmp	r7, #32
    7f40:	d034      	beq.n	7fac <__aeabi_dadd+0x634>
    7f42:	2640      	movs	r6, #64	; 0x40
    7f44:	1bf7      	subs	r7, r6, r7
    7f46:	40b9      	lsls	r1, r7
    7f48:	430c      	orrs	r4, r1
    7f4a:	1e61      	subs	r1, r4, #1
    7f4c:	418c      	sbcs	r4, r1
    7f4e:	432c      	orrs	r4, r5
    7f50:	2100      	movs	r1, #0
    7f52:	e6d1      	b.n	7cf8 <__aeabi_dadd+0x380>
    7f54:	2180      	movs	r1, #128	; 0x80
    7f56:	2700      	movs	r7, #0
    7f58:	03c9      	lsls	r1, r1, #15
    7f5a:	4d16      	ldr	r5, [pc, #88]	; (7fb4 <__aeabi_dadd+0x63c>)
    7f5c:	2400      	movs	r4, #0
    7f5e:	e5c6      	b.n	7aee <__aeabi_dadd+0x176>
    7f60:	430c      	orrs	r4, r1
    7f62:	1e61      	subs	r1, r4, #1
    7f64:	418c      	sbcs	r4, r1
    7f66:	b2e4      	uxtb	r4, r4
    7f68:	2100      	movs	r1, #0
    7f6a:	e78a      	b.n	7e82 <__aeabi_dadd+0x50a>
    7f6c:	1c19      	adds	r1, r3, #0
    7f6e:	465c      	mov	r4, fp
    7f70:	e52b      	b.n	79ca <__aeabi_dadd+0x52>
    7f72:	1c19      	adds	r1, r3, #0
    7f74:	465c      	mov	r4, fp
    7f76:	4d0f      	ldr	r5, [pc, #60]	; (7fb4 <__aeabi_dadd+0x63c>)
    7f78:	e527      	b.n	79ca <__aeabi_dadd+0x52>
    7f7a:	1c03      	adds	r3, r0, #0
    7f7c:	433b      	orrs	r3, r7
    7f7e:	d100      	bne.n	7f82 <__aeabi_dadd+0x60a>
    7f80:	e71c      	b.n	7dbc <__aeabi_dadd+0x444>
    7f82:	1c01      	adds	r1, r0, #0
    7f84:	1c3c      	adds	r4, r7, #0
    7f86:	e520      	b.n	79ca <__aeabi_dadd+0x52>
    7f88:	2020      	movs	r0, #32
    7f8a:	4240      	negs	r0, r0
    7f8c:	1940      	adds	r0, r0, r5
    7f8e:	1c0a      	adds	r2, r1, #0
    7f90:	40c2      	lsrs	r2, r0
    7f92:	4690      	mov	r8, r2
    7f94:	2d20      	cmp	r5, #32
    7f96:	d00b      	beq.n	7fb0 <__aeabi_dadd+0x638>
    7f98:	2040      	movs	r0, #64	; 0x40
    7f9a:	1b45      	subs	r5, r0, r5
    7f9c:	40a9      	lsls	r1, r5
    7f9e:	430c      	orrs	r4, r1
    7fa0:	1e61      	subs	r1, r4, #1
    7fa2:	418c      	sbcs	r4, r1
    7fa4:	4645      	mov	r5, r8
    7fa6:	432c      	orrs	r4, r5
    7fa8:	2100      	movs	r1, #0
    7faa:	e76a      	b.n	7e82 <__aeabi_dadd+0x50a>
    7fac:	2100      	movs	r1, #0
    7fae:	e7cb      	b.n	7f48 <__aeabi_dadd+0x5d0>
    7fb0:	2100      	movs	r1, #0
    7fb2:	e7f4      	b.n	7f9e <__aeabi_dadd+0x626>
    7fb4:	000007ff 	.word	0x000007ff
    7fb8:	ff7fffff 	.word	0xff7fffff

00007fbc <__aeabi_ddiv>:
    7fbc:	b5f0      	push	{r4, r5, r6, r7, lr}
    7fbe:	4656      	mov	r6, sl
    7fc0:	4644      	mov	r4, r8
    7fc2:	465f      	mov	r7, fp
    7fc4:	464d      	mov	r5, r9
    7fc6:	b4f0      	push	{r4, r5, r6, r7}
    7fc8:	1c1f      	adds	r7, r3, #0
    7fca:	030b      	lsls	r3, r1, #12
    7fcc:	0b1b      	lsrs	r3, r3, #12
    7fce:	4698      	mov	r8, r3
    7fd0:	004b      	lsls	r3, r1, #1
    7fd2:	b087      	sub	sp, #28
    7fd4:	1c04      	adds	r4, r0, #0
    7fd6:	4681      	mov	r9, r0
    7fd8:	0d5b      	lsrs	r3, r3, #21
    7fda:	0fc8      	lsrs	r0, r1, #31
    7fdc:	1c16      	adds	r6, r2, #0
    7fde:	469a      	mov	sl, r3
    7fe0:	9000      	str	r0, [sp, #0]
    7fe2:	2b00      	cmp	r3, #0
    7fe4:	d051      	beq.n	808a <__aeabi_ddiv+0xce>
    7fe6:	4b6a      	ldr	r3, [pc, #424]	; (8190 <__aeabi_ddiv+0x1d4>)
    7fe8:	459a      	cmp	sl, r3
    7fea:	d031      	beq.n	8050 <__aeabi_ddiv+0x94>
    7fec:	2280      	movs	r2, #128	; 0x80
    7fee:	4641      	mov	r1, r8
    7ff0:	0352      	lsls	r2, r2, #13
    7ff2:	430a      	orrs	r2, r1
    7ff4:	0f63      	lsrs	r3, r4, #29
    7ff6:	00d2      	lsls	r2, r2, #3
    7ff8:	431a      	orrs	r2, r3
    7ffa:	4b66      	ldr	r3, [pc, #408]	; (8194 <__aeabi_ddiv+0x1d8>)
    7ffc:	4690      	mov	r8, r2
    7ffe:	2500      	movs	r5, #0
    8000:	00e2      	lsls	r2, r4, #3
    8002:	4691      	mov	r9, r2
    8004:	449a      	add	sl, r3
    8006:	2400      	movs	r4, #0
    8008:	9502      	str	r5, [sp, #8]
    800a:	033b      	lsls	r3, r7, #12
    800c:	0b1b      	lsrs	r3, r3, #12
    800e:	469b      	mov	fp, r3
    8010:	0ffd      	lsrs	r5, r7, #31
    8012:	007b      	lsls	r3, r7, #1
    8014:	1c31      	adds	r1, r6, #0
    8016:	0d5b      	lsrs	r3, r3, #21
    8018:	9501      	str	r5, [sp, #4]
    801a:	d060      	beq.n	80de <__aeabi_ddiv+0x122>
    801c:	4a5c      	ldr	r2, [pc, #368]	; (8190 <__aeabi_ddiv+0x1d4>)
    801e:	4293      	cmp	r3, r2
    8020:	d054      	beq.n	80cc <__aeabi_ddiv+0x110>
    8022:	2180      	movs	r1, #128	; 0x80
    8024:	4658      	mov	r0, fp
    8026:	0349      	lsls	r1, r1, #13
    8028:	4301      	orrs	r1, r0
    802a:	0f72      	lsrs	r2, r6, #29
    802c:	00c9      	lsls	r1, r1, #3
    802e:	4311      	orrs	r1, r2
    8030:	4a58      	ldr	r2, [pc, #352]	; (8194 <__aeabi_ddiv+0x1d8>)
    8032:	468b      	mov	fp, r1
    8034:	189b      	adds	r3, r3, r2
    8036:	00f1      	lsls	r1, r6, #3
    8038:	2000      	movs	r0, #0
    803a:	9a00      	ldr	r2, [sp, #0]
    803c:	4304      	orrs	r4, r0
    803e:	406a      	eors	r2, r5
    8040:	9203      	str	r2, [sp, #12]
    8042:	2c0f      	cmp	r4, #15
    8044:	d900      	bls.n	8048 <__aeabi_ddiv+0x8c>
    8046:	e0ad      	b.n	81a4 <__aeabi_ddiv+0x1e8>
    8048:	4e53      	ldr	r6, [pc, #332]	; (8198 <__aeabi_ddiv+0x1dc>)
    804a:	00a4      	lsls	r4, r4, #2
    804c:	5934      	ldr	r4, [r6, r4]
    804e:	46a7      	mov	pc, r4
    8050:	4640      	mov	r0, r8
    8052:	4304      	orrs	r4, r0
    8054:	d16e      	bne.n	8134 <__aeabi_ddiv+0x178>
    8056:	2100      	movs	r1, #0
    8058:	2502      	movs	r5, #2
    805a:	2408      	movs	r4, #8
    805c:	4688      	mov	r8, r1
    805e:	4689      	mov	r9, r1
    8060:	9502      	str	r5, [sp, #8]
    8062:	e7d2      	b.n	800a <__aeabi_ddiv+0x4e>
    8064:	9c00      	ldr	r4, [sp, #0]
    8066:	9802      	ldr	r0, [sp, #8]
    8068:	46c3      	mov	fp, r8
    806a:	4649      	mov	r1, r9
    806c:	9401      	str	r4, [sp, #4]
    806e:	2802      	cmp	r0, #2
    8070:	d064      	beq.n	813c <__aeabi_ddiv+0x180>
    8072:	2803      	cmp	r0, #3
    8074:	d100      	bne.n	8078 <__aeabi_ddiv+0xbc>
    8076:	e2ab      	b.n	85d0 <__aeabi_ddiv+0x614>
    8078:	2801      	cmp	r0, #1
    807a:	d000      	beq.n	807e <__aeabi_ddiv+0xc2>
    807c:	e238      	b.n	84f0 <__aeabi_ddiv+0x534>
    807e:	9a01      	ldr	r2, [sp, #4]
    8080:	2400      	movs	r4, #0
    8082:	4002      	ands	r2, r0
    8084:	2500      	movs	r5, #0
    8086:	46a1      	mov	r9, r4
    8088:	e060      	b.n	814c <__aeabi_ddiv+0x190>
    808a:	4643      	mov	r3, r8
    808c:	4323      	orrs	r3, r4
    808e:	d04a      	beq.n	8126 <__aeabi_ddiv+0x16a>
    8090:	4640      	mov	r0, r8
    8092:	2800      	cmp	r0, #0
    8094:	d100      	bne.n	8098 <__aeabi_ddiv+0xdc>
    8096:	e1c0      	b.n	841a <__aeabi_ddiv+0x45e>
    8098:	f001 fb42 	bl	9720 <__clzsi2>
    809c:	1e03      	subs	r3, r0, #0
    809e:	2b27      	cmp	r3, #39	; 0x27
    80a0:	dd00      	ble.n	80a4 <__aeabi_ddiv+0xe8>
    80a2:	e1b3      	b.n	840c <__aeabi_ddiv+0x450>
    80a4:	2128      	movs	r1, #40	; 0x28
    80a6:	1a0d      	subs	r5, r1, r0
    80a8:	1c21      	adds	r1, r4, #0
    80aa:	3b08      	subs	r3, #8
    80ac:	4642      	mov	r2, r8
    80ae:	40e9      	lsrs	r1, r5
    80b0:	409a      	lsls	r2, r3
    80b2:	1c0d      	adds	r5, r1, #0
    80b4:	4315      	orrs	r5, r2
    80b6:	1c22      	adds	r2, r4, #0
    80b8:	409a      	lsls	r2, r3
    80ba:	46a8      	mov	r8, r5
    80bc:	4691      	mov	r9, r2
    80be:	4b37      	ldr	r3, [pc, #220]	; (819c <__aeabi_ddiv+0x1e0>)
    80c0:	2500      	movs	r5, #0
    80c2:	1a1b      	subs	r3, r3, r0
    80c4:	469a      	mov	sl, r3
    80c6:	2400      	movs	r4, #0
    80c8:	9502      	str	r5, [sp, #8]
    80ca:	e79e      	b.n	800a <__aeabi_ddiv+0x4e>
    80cc:	465a      	mov	r2, fp
    80ce:	4316      	orrs	r6, r2
    80d0:	2003      	movs	r0, #3
    80d2:	2e00      	cmp	r6, #0
    80d4:	d1b1      	bne.n	803a <__aeabi_ddiv+0x7e>
    80d6:	46b3      	mov	fp, r6
    80d8:	2100      	movs	r1, #0
    80da:	2002      	movs	r0, #2
    80dc:	e7ad      	b.n	803a <__aeabi_ddiv+0x7e>
    80de:	465a      	mov	r2, fp
    80e0:	4332      	orrs	r2, r6
    80e2:	d01b      	beq.n	811c <__aeabi_ddiv+0x160>
    80e4:	465b      	mov	r3, fp
    80e6:	2b00      	cmp	r3, #0
    80e8:	d100      	bne.n	80ec <__aeabi_ddiv+0x130>
    80ea:	e18a      	b.n	8402 <__aeabi_ddiv+0x446>
    80ec:	4658      	mov	r0, fp
    80ee:	f001 fb17 	bl	9720 <__clzsi2>
    80f2:	2827      	cmp	r0, #39	; 0x27
    80f4:	dd00      	ble.n	80f8 <__aeabi_ddiv+0x13c>
    80f6:	e17d      	b.n	83f4 <__aeabi_ddiv+0x438>
    80f8:	2228      	movs	r2, #40	; 0x28
    80fa:	1a17      	subs	r7, r2, r0
    80fc:	1c01      	adds	r1, r0, #0
    80fe:	1c32      	adds	r2, r6, #0
    8100:	3908      	subs	r1, #8
    8102:	465b      	mov	r3, fp
    8104:	40fa      	lsrs	r2, r7
    8106:	408b      	lsls	r3, r1
    8108:	1c17      	adds	r7, r2, #0
    810a:	431f      	orrs	r7, r3
    810c:	1c33      	adds	r3, r6, #0
    810e:	408b      	lsls	r3, r1
    8110:	46bb      	mov	fp, r7
    8112:	1c19      	adds	r1, r3, #0
    8114:	4b21      	ldr	r3, [pc, #132]	; (819c <__aeabi_ddiv+0x1e0>)
    8116:	1a1b      	subs	r3, r3, r0
    8118:	2000      	movs	r0, #0
    811a:	e78e      	b.n	803a <__aeabi_ddiv+0x7e>
    811c:	2700      	movs	r7, #0
    811e:	46bb      	mov	fp, r7
    8120:	2100      	movs	r1, #0
    8122:	2001      	movs	r0, #1
    8124:	e789      	b.n	803a <__aeabi_ddiv+0x7e>
    8126:	2000      	movs	r0, #0
    8128:	2501      	movs	r5, #1
    812a:	2404      	movs	r4, #4
    812c:	4680      	mov	r8, r0
    812e:	4681      	mov	r9, r0
    8130:	9502      	str	r5, [sp, #8]
    8132:	e76a      	b.n	800a <__aeabi_ddiv+0x4e>
    8134:	2503      	movs	r5, #3
    8136:	240c      	movs	r4, #12
    8138:	9502      	str	r5, [sp, #8]
    813a:	e766      	b.n	800a <__aeabi_ddiv+0x4e>
    813c:	9c01      	ldr	r4, [sp, #4]
    813e:	9403      	str	r4, [sp, #12]
    8140:	9d03      	ldr	r5, [sp, #12]
    8142:	2201      	movs	r2, #1
    8144:	402a      	ands	r2, r5
    8146:	2400      	movs	r4, #0
    8148:	4d11      	ldr	r5, [pc, #68]	; (8190 <__aeabi_ddiv+0x1d4>)
    814a:	46a1      	mov	r9, r4
    814c:	2000      	movs	r0, #0
    814e:	2100      	movs	r1, #0
    8150:	0324      	lsls	r4, r4, #12
    8152:	0b26      	lsrs	r6, r4, #12
    8154:	0d0c      	lsrs	r4, r1, #20
    8156:	0524      	lsls	r4, r4, #20
    8158:	4b11      	ldr	r3, [pc, #68]	; (81a0 <__aeabi_ddiv+0x1e4>)
    815a:	4334      	orrs	r4, r6
    815c:	052d      	lsls	r5, r5, #20
    815e:	4023      	ands	r3, r4
    8160:	432b      	orrs	r3, r5
    8162:	005b      	lsls	r3, r3, #1
    8164:	085b      	lsrs	r3, r3, #1
    8166:	07d2      	lsls	r2, r2, #31
    8168:	1c19      	adds	r1, r3, #0
    816a:	4648      	mov	r0, r9
    816c:	4311      	orrs	r1, r2
    816e:	b007      	add	sp, #28
    8170:	bc3c      	pop	{r2, r3, r4, r5}
    8172:	4690      	mov	r8, r2
    8174:	4699      	mov	r9, r3
    8176:	46a2      	mov	sl, r4
    8178:	46ab      	mov	fp, r5
    817a:	bdf0      	pop	{r4, r5, r6, r7, pc}
    817c:	2200      	movs	r2, #0
    817e:	2480      	movs	r4, #128	; 0x80
    8180:	0324      	lsls	r4, r4, #12
    8182:	4691      	mov	r9, r2
    8184:	4d02      	ldr	r5, [pc, #8]	; (8190 <__aeabi_ddiv+0x1d4>)
    8186:	e7e1      	b.n	814c <__aeabi_ddiv+0x190>
    8188:	2400      	movs	r4, #0
    818a:	2500      	movs	r5, #0
    818c:	46a1      	mov	r9, r4
    818e:	e7dd      	b.n	814c <__aeabi_ddiv+0x190>
    8190:	000007ff 	.word	0x000007ff
    8194:	fffffc01 	.word	0xfffffc01
    8198:	00009ef4 	.word	0x00009ef4
    819c:	fffffc0d 	.word	0xfffffc0d
    81a0:	800fffff 	.word	0x800fffff
    81a4:	4655      	mov	r5, sl
    81a6:	1aed      	subs	r5, r5, r3
    81a8:	9504      	str	r5, [sp, #16]
    81aa:	45d8      	cmp	r8, fp
    81ac:	d900      	bls.n	81b0 <__aeabi_ddiv+0x1f4>
    81ae:	e153      	b.n	8458 <__aeabi_ddiv+0x49c>
    81b0:	d100      	bne.n	81b4 <__aeabi_ddiv+0x1f8>
    81b2:	e14e      	b.n	8452 <__aeabi_ddiv+0x496>
    81b4:	9c04      	ldr	r4, [sp, #16]
    81b6:	2500      	movs	r5, #0
    81b8:	3c01      	subs	r4, #1
    81ba:	464e      	mov	r6, r9
    81bc:	9404      	str	r4, [sp, #16]
    81be:	4647      	mov	r7, r8
    81c0:	46a9      	mov	r9, r5
    81c2:	4658      	mov	r0, fp
    81c4:	0203      	lsls	r3, r0, #8
    81c6:	0e0c      	lsrs	r4, r1, #24
    81c8:	431c      	orrs	r4, r3
    81ca:	0209      	lsls	r1, r1, #8
    81cc:	0c25      	lsrs	r5, r4, #16
    81ce:	0423      	lsls	r3, r4, #16
    81d0:	0c1b      	lsrs	r3, r3, #16
    81d2:	9100      	str	r1, [sp, #0]
    81d4:	1c38      	adds	r0, r7, #0
    81d6:	1c29      	adds	r1, r5, #0
    81d8:	9301      	str	r3, [sp, #4]
    81da:	f7fe fbaf 	bl	693c <__aeabi_uidiv>
    81de:	9901      	ldr	r1, [sp, #4]
    81e0:	4683      	mov	fp, r0
    81e2:	4341      	muls	r1, r0
    81e4:	1c38      	adds	r0, r7, #0
    81e6:	468a      	mov	sl, r1
    81e8:	1c29      	adds	r1, r5, #0
    81ea:	f7fe fbeb 	bl	69c4 <__aeabi_uidivmod>
    81ee:	0c33      	lsrs	r3, r6, #16
    81f0:	0409      	lsls	r1, r1, #16
    81f2:	4319      	orrs	r1, r3
    81f4:	458a      	cmp	sl, r1
    81f6:	d90c      	bls.n	8212 <__aeabi_ddiv+0x256>
    81f8:	465b      	mov	r3, fp
    81fa:	1909      	adds	r1, r1, r4
    81fc:	3b01      	subs	r3, #1
    81fe:	428c      	cmp	r4, r1
    8200:	d900      	bls.n	8204 <__aeabi_ddiv+0x248>
    8202:	e147      	b.n	8494 <__aeabi_ddiv+0x4d8>
    8204:	458a      	cmp	sl, r1
    8206:	d800      	bhi.n	820a <__aeabi_ddiv+0x24e>
    8208:	e144      	b.n	8494 <__aeabi_ddiv+0x4d8>
    820a:	2202      	movs	r2, #2
    820c:	4252      	negs	r2, r2
    820e:	4493      	add	fp, r2
    8210:	1909      	adds	r1, r1, r4
    8212:	4653      	mov	r3, sl
    8214:	1acb      	subs	r3, r1, r3
    8216:	1c18      	adds	r0, r3, #0
    8218:	1c29      	adds	r1, r5, #0
    821a:	4698      	mov	r8, r3
    821c:	f7fe fb8e 	bl	693c <__aeabi_uidiv>
    8220:	1c07      	adds	r7, r0, #0
    8222:	9801      	ldr	r0, [sp, #4]
    8224:	1c29      	adds	r1, r5, #0
    8226:	4378      	muls	r0, r7
    8228:	4682      	mov	sl, r0
    822a:	4640      	mov	r0, r8
    822c:	f7fe fbca 	bl	69c4 <__aeabi_uidivmod>
    8230:	0436      	lsls	r6, r6, #16
    8232:	040b      	lsls	r3, r1, #16
    8234:	0c36      	lsrs	r6, r6, #16
    8236:	4333      	orrs	r3, r6
    8238:	459a      	cmp	sl, r3
    823a:	d909      	bls.n	8250 <__aeabi_ddiv+0x294>
    823c:	191b      	adds	r3, r3, r4
    823e:	1e7a      	subs	r2, r7, #1
    8240:	429c      	cmp	r4, r3
    8242:	d900      	bls.n	8246 <__aeabi_ddiv+0x28a>
    8244:	e124      	b.n	8490 <__aeabi_ddiv+0x4d4>
    8246:	459a      	cmp	sl, r3
    8248:	d800      	bhi.n	824c <__aeabi_ddiv+0x290>
    824a:	e121      	b.n	8490 <__aeabi_ddiv+0x4d4>
    824c:	3f02      	subs	r7, #2
    824e:	191b      	adds	r3, r3, r4
    8250:	465e      	mov	r6, fp
    8252:	0432      	lsls	r2, r6, #16
    8254:	4317      	orrs	r7, r2
    8256:	0c38      	lsrs	r0, r7, #16
    8258:	46bb      	mov	fp, r7
    825a:	9e00      	ldr	r6, [sp, #0]
    825c:	9f00      	ldr	r7, [sp, #0]
    825e:	4651      	mov	r1, sl
    8260:	0c3f      	lsrs	r7, r7, #16
    8262:	0432      	lsls	r2, r6, #16
    8264:	1a5b      	subs	r3, r3, r1
    8266:	4659      	mov	r1, fp
    8268:	46ba      	mov	sl, r7
    826a:	0c12      	lsrs	r2, r2, #16
    826c:	040f      	lsls	r7, r1, #16
    826e:	0c3f      	lsrs	r7, r7, #16
    8270:	4690      	mov	r8, r2
    8272:	4651      	mov	r1, sl
    8274:	437a      	muls	r2, r7
    8276:	434f      	muls	r7, r1
    8278:	4641      	mov	r1, r8
    827a:	4341      	muls	r1, r0
    827c:	4656      	mov	r6, sl
    827e:	4370      	muls	r0, r6
    8280:	19cf      	adds	r7, r1, r7
    8282:	0c16      	lsrs	r6, r2, #16
    8284:	19be      	adds	r6, r7, r6
    8286:	42b1      	cmp	r1, r6
    8288:	d902      	bls.n	8290 <__aeabi_ddiv+0x2d4>
    828a:	2780      	movs	r7, #128	; 0x80
    828c:	027f      	lsls	r7, r7, #9
    828e:	19c0      	adds	r0, r0, r7
    8290:	0c31      	lsrs	r1, r6, #16
    8292:	0412      	lsls	r2, r2, #16
    8294:	0436      	lsls	r6, r6, #16
    8296:	0c12      	lsrs	r2, r2, #16
    8298:	1840      	adds	r0, r0, r1
    829a:	18b6      	adds	r6, r6, r2
    829c:	4283      	cmp	r3, r0
    829e:	d200      	bcs.n	82a2 <__aeabi_ddiv+0x2e6>
    82a0:	e0c4      	b.n	842c <__aeabi_ddiv+0x470>
    82a2:	d100      	bne.n	82a6 <__aeabi_ddiv+0x2ea>
    82a4:	e0be      	b.n	8424 <__aeabi_ddiv+0x468>
    82a6:	1a19      	subs	r1, r3, r0
    82a8:	4648      	mov	r0, r9
    82aa:	1b86      	subs	r6, r0, r6
    82ac:	45b1      	cmp	r9, r6
    82ae:	41bf      	sbcs	r7, r7
    82b0:	427f      	negs	r7, r7
    82b2:	1bcf      	subs	r7, r1, r7
    82b4:	42a7      	cmp	r7, r4
    82b6:	d100      	bne.n	82ba <__aeabi_ddiv+0x2fe>
    82b8:	e113      	b.n	84e2 <__aeabi_ddiv+0x526>
    82ba:	1c29      	adds	r1, r5, #0
    82bc:	1c38      	adds	r0, r7, #0
    82be:	f7fe fb3d 	bl	693c <__aeabi_uidiv>
    82c2:	9901      	ldr	r1, [sp, #4]
    82c4:	9002      	str	r0, [sp, #8]
    82c6:	4341      	muls	r1, r0
    82c8:	1c38      	adds	r0, r7, #0
    82ca:	4689      	mov	r9, r1
    82cc:	1c29      	adds	r1, r5, #0
    82ce:	f7fe fb79 	bl	69c4 <__aeabi_uidivmod>
    82d2:	0c33      	lsrs	r3, r6, #16
    82d4:	0409      	lsls	r1, r1, #16
    82d6:	4319      	orrs	r1, r3
    82d8:	4589      	cmp	r9, r1
    82da:	d90c      	bls.n	82f6 <__aeabi_ddiv+0x33a>
    82dc:	9b02      	ldr	r3, [sp, #8]
    82de:	1909      	adds	r1, r1, r4
    82e0:	3b01      	subs	r3, #1
    82e2:	428c      	cmp	r4, r1
    82e4:	d900      	bls.n	82e8 <__aeabi_ddiv+0x32c>
    82e6:	e0ff      	b.n	84e8 <__aeabi_ddiv+0x52c>
    82e8:	4589      	cmp	r9, r1
    82ea:	d800      	bhi.n	82ee <__aeabi_ddiv+0x332>
    82ec:	e0fc      	b.n	84e8 <__aeabi_ddiv+0x52c>
    82ee:	9f02      	ldr	r7, [sp, #8]
    82f0:	1909      	adds	r1, r1, r4
    82f2:	3f02      	subs	r7, #2
    82f4:	9702      	str	r7, [sp, #8]
    82f6:	464f      	mov	r7, r9
    82f8:	1bcf      	subs	r7, r1, r7
    82fa:	1c38      	adds	r0, r7, #0
    82fc:	1c29      	adds	r1, r5, #0
    82fe:	9705      	str	r7, [sp, #20]
    8300:	f7fe fb1c 	bl	693c <__aeabi_uidiv>
    8304:	1c07      	adds	r7, r0, #0
    8306:	9801      	ldr	r0, [sp, #4]
    8308:	1c29      	adds	r1, r5, #0
    830a:	4378      	muls	r0, r7
    830c:	4681      	mov	r9, r0
    830e:	9805      	ldr	r0, [sp, #20]
    8310:	f7fe fb58 	bl	69c4 <__aeabi_uidivmod>
    8314:	0436      	lsls	r6, r6, #16
    8316:	0409      	lsls	r1, r1, #16
    8318:	0c36      	lsrs	r6, r6, #16
    831a:	430e      	orrs	r6, r1
    831c:	45b1      	cmp	r9, r6
    831e:	d909      	bls.n	8334 <__aeabi_ddiv+0x378>
    8320:	1936      	adds	r6, r6, r4
    8322:	1e7b      	subs	r3, r7, #1
    8324:	42b4      	cmp	r4, r6
    8326:	d900      	bls.n	832a <__aeabi_ddiv+0x36e>
    8328:	e0e0      	b.n	84ec <__aeabi_ddiv+0x530>
    832a:	45b1      	cmp	r9, r6
    832c:	d800      	bhi.n	8330 <__aeabi_ddiv+0x374>
    832e:	e0dd      	b.n	84ec <__aeabi_ddiv+0x530>
    8330:	3f02      	subs	r7, #2
    8332:	1936      	adds	r6, r6, r4
    8334:	9d02      	ldr	r5, [sp, #8]
    8336:	4649      	mov	r1, r9
    8338:	1a76      	subs	r6, r6, r1
    833a:	0429      	lsls	r1, r5, #16
    833c:	4339      	orrs	r1, r7
    833e:	040b      	lsls	r3, r1, #16
    8340:	4657      	mov	r7, sl
    8342:	0c0a      	lsrs	r2, r1, #16
    8344:	0c1b      	lsrs	r3, r3, #16
    8346:	4640      	mov	r0, r8
    8348:	4645      	mov	r5, r8
    834a:	4358      	muls	r0, r3
    834c:	4355      	muls	r5, r2
    834e:	437b      	muls	r3, r7
    8350:	437a      	muls	r2, r7
    8352:	18eb      	adds	r3, r5, r3
    8354:	0c07      	lsrs	r7, r0, #16
    8356:	19db      	adds	r3, r3, r7
    8358:	429d      	cmp	r5, r3
    835a:	d902      	bls.n	8362 <__aeabi_ddiv+0x3a6>
    835c:	2580      	movs	r5, #128	; 0x80
    835e:	026d      	lsls	r5, r5, #9
    8360:	1952      	adds	r2, r2, r5
    8362:	0c1d      	lsrs	r5, r3, #16
    8364:	0400      	lsls	r0, r0, #16
    8366:	041b      	lsls	r3, r3, #16
    8368:	0c00      	lsrs	r0, r0, #16
    836a:	1952      	adds	r2, r2, r5
    836c:	181b      	adds	r3, r3, r0
    836e:	4296      	cmp	r6, r2
    8370:	d335      	bcc.n	83de <__aeabi_ddiv+0x422>
    8372:	d100      	bne.n	8376 <__aeabi_ddiv+0x3ba>
    8374:	e0fc      	b.n	8570 <__aeabi_ddiv+0x5b4>
    8376:	2301      	movs	r3, #1
    8378:	4319      	orrs	r1, r3
    837a:	9e04      	ldr	r6, [sp, #16]
    837c:	4f99      	ldr	r7, [pc, #612]	; (85e4 <__aeabi_ddiv+0x628>)
    837e:	19f5      	adds	r5, r6, r7
    8380:	2d00      	cmp	r5, #0
    8382:	dc00      	bgt.n	8386 <__aeabi_ddiv+0x3ca>
    8384:	e0a1      	b.n	84ca <__aeabi_ddiv+0x50e>
    8386:	0748      	lsls	r0, r1, #29
    8388:	d009      	beq.n	839e <__aeabi_ddiv+0x3e2>
    838a:	230f      	movs	r3, #15
    838c:	400b      	ands	r3, r1
    838e:	2b04      	cmp	r3, #4
    8390:	d005      	beq.n	839e <__aeabi_ddiv+0x3e2>
    8392:	1d0b      	adds	r3, r1, #4
    8394:	428b      	cmp	r3, r1
    8396:	4189      	sbcs	r1, r1
    8398:	4249      	negs	r1, r1
    839a:	448b      	add	fp, r1
    839c:	1c19      	adds	r1, r3, #0
    839e:	465a      	mov	r2, fp
    83a0:	01d2      	lsls	r2, r2, #7
    83a2:	d507      	bpl.n	83b4 <__aeabi_ddiv+0x3f8>
    83a4:	4b90      	ldr	r3, [pc, #576]	; (85e8 <__aeabi_ddiv+0x62c>)
    83a6:	465c      	mov	r4, fp
    83a8:	9e04      	ldr	r6, [sp, #16]
    83aa:	2780      	movs	r7, #128	; 0x80
    83ac:	401c      	ands	r4, r3
    83ae:	00ff      	lsls	r7, r7, #3
    83b0:	46a3      	mov	fp, r4
    83b2:	19f5      	adds	r5, r6, r7
    83b4:	4b8d      	ldr	r3, [pc, #564]	; (85ec <__aeabi_ddiv+0x630>)
    83b6:	429d      	cmp	r5, r3
    83b8:	dd7a      	ble.n	84b0 <__aeabi_ddiv+0x4f4>
    83ba:	9c03      	ldr	r4, [sp, #12]
    83bc:	2201      	movs	r2, #1
    83be:	4022      	ands	r2, r4
    83c0:	2400      	movs	r4, #0
    83c2:	4d8b      	ldr	r5, [pc, #556]	; (85f0 <__aeabi_ddiv+0x634>)
    83c4:	46a1      	mov	r9, r4
    83c6:	e6c1      	b.n	814c <__aeabi_ddiv+0x190>
    83c8:	2480      	movs	r4, #128	; 0x80
    83ca:	0324      	lsls	r4, r4, #12
    83cc:	4647      	mov	r7, r8
    83ce:	4227      	tst	r7, r4
    83d0:	d14c      	bne.n	846c <__aeabi_ddiv+0x4b0>
    83d2:	433c      	orrs	r4, r7
    83d4:	0324      	lsls	r4, r4, #12
    83d6:	0b24      	lsrs	r4, r4, #12
    83d8:	9a00      	ldr	r2, [sp, #0]
    83da:	4d85      	ldr	r5, [pc, #532]	; (85f0 <__aeabi_ddiv+0x634>)
    83dc:	e6b6      	b.n	814c <__aeabi_ddiv+0x190>
    83de:	1936      	adds	r6, r6, r4
    83e0:	1e48      	subs	r0, r1, #1
    83e2:	42b4      	cmp	r4, r6
    83e4:	d95e      	bls.n	84a4 <__aeabi_ddiv+0x4e8>
    83e6:	1c01      	adds	r1, r0, #0
    83e8:	4296      	cmp	r6, r2
    83ea:	d1c4      	bne.n	8376 <__aeabi_ddiv+0x3ba>
    83ec:	9e00      	ldr	r6, [sp, #0]
    83ee:	429e      	cmp	r6, r3
    83f0:	d1c1      	bne.n	8376 <__aeabi_ddiv+0x3ba>
    83f2:	e7c2      	b.n	837a <__aeabi_ddiv+0x3be>
    83f4:	1c03      	adds	r3, r0, #0
    83f6:	3b28      	subs	r3, #40	; 0x28
    83f8:	1c31      	adds	r1, r6, #0
    83fa:	4099      	lsls	r1, r3
    83fc:	468b      	mov	fp, r1
    83fe:	2100      	movs	r1, #0
    8400:	e688      	b.n	8114 <__aeabi_ddiv+0x158>
    8402:	1c30      	adds	r0, r6, #0
    8404:	f001 f98c 	bl	9720 <__clzsi2>
    8408:	3020      	adds	r0, #32
    840a:	e672      	b.n	80f2 <__aeabi_ddiv+0x136>
    840c:	3b28      	subs	r3, #40	; 0x28
    840e:	1c21      	adds	r1, r4, #0
    8410:	4099      	lsls	r1, r3
    8412:	2200      	movs	r2, #0
    8414:	4688      	mov	r8, r1
    8416:	4691      	mov	r9, r2
    8418:	e651      	b.n	80be <__aeabi_ddiv+0x102>
    841a:	1c20      	adds	r0, r4, #0
    841c:	f001 f980 	bl	9720 <__clzsi2>
    8420:	3020      	adds	r0, #32
    8422:	e63b      	b.n	809c <__aeabi_ddiv+0xe0>
    8424:	2100      	movs	r1, #0
    8426:	45b1      	cmp	r9, r6
    8428:	d300      	bcc.n	842c <__aeabi_ddiv+0x470>
    842a:	e73d      	b.n	82a8 <__aeabi_ddiv+0x2ec>
    842c:	9f00      	ldr	r7, [sp, #0]
    842e:	465a      	mov	r2, fp
    8430:	44b9      	add	r9, r7
    8432:	45b9      	cmp	r9, r7
    8434:	41bf      	sbcs	r7, r7
    8436:	427f      	negs	r7, r7
    8438:	193f      	adds	r7, r7, r4
    843a:	18fb      	adds	r3, r7, r3
    843c:	3a01      	subs	r2, #1
    843e:	429c      	cmp	r4, r3
    8440:	d21e      	bcs.n	8480 <__aeabi_ddiv+0x4c4>
    8442:	4298      	cmp	r0, r3
    8444:	d900      	bls.n	8448 <__aeabi_ddiv+0x48c>
    8446:	e07e      	b.n	8546 <__aeabi_ddiv+0x58a>
    8448:	d100      	bne.n	844c <__aeabi_ddiv+0x490>
    844a:	e0b5      	b.n	85b8 <__aeabi_ddiv+0x5fc>
    844c:	1a19      	subs	r1, r3, r0
    844e:	4693      	mov	fp, r2
    8450:	e72a      	b.n	82a8 <__aeabi_ddiv+0x2ec>
    8452:	4589      	cmp	r9, r1
    8454:	d800      	bhi.n	8458 <__aeabi_ddiv+0x49c>
    8456:	e6ad      	b.n	81b4 <__aeabi_ddiv+0x1f8>
    8458:	4648      	mov	r0, r9
    845a:	4646      	mov	r6, r8
    845c:	4642      	mov	r2, r8
    845e:	0877      	lsrs	r7, r6, #1
    8460:	07d3      	lsls	r3, r2, #31
    8462:	0846      	lsrs	r6, r0, #1
    8464:	07c0      	lsls	r0, r0, #31
    8466:	431e      	orrs	r6, r3
    8468:	4681      	mov	r9, r0
    846a:	e6aa      	b.n	81c2 <__aeabi_ddiv+0x206>
    846c:	4658      	mov	r0, fp
    846e:	4220      	tst	r0, r4
    8470:	d112      	bne.n	8498 <__aeabi_ddiv+0x4dc>
    8472:	4304      	orrs	r4, r0
    8474:	0324      	lsls	r4, r4, #12
    8476:	1c2a      	adds	r2, r5, #0
    8478:	0b24      	lsrs	r4, r4, #12
    847a:	4689      	mov	r9, r1
    847c:	4d5c      	ldr	r5, [pc, #368]	; (85f0 <__aeabi_ddiv+0x634>)
    847e:	e665      	b.n	814c <__aeabi_ddiv+0x190>
    8480:	42a3      	cmp	r3, r4
    8482:	d1e3      	bne.n	844c <__aeabi_ddiv+0x490>
    8484:	9f00      	ldr	r7, [sp, #0]
    8486:	454f      	cmp	r7, r9
    8488:	d9db      	bls.n	8442 <__aeabi_ddiv+0x486>
    848a:	1a21      	subs	r1, r4, r0
    848c:	4693      	mov	fp, r2
    848e:	e70b      	b.n	82a8 <__aeabi_ddiv+0x2ec>
    8490:	1c17      	adds	r7, r2, #0
    8492:	e6dd      	b.n	8250 <__aeabi_ddiv+0x294>
    8494:	469b      	mov	fp, r3
    8496:	e6bc      	b.n	8212 <__aeabi_ddiv+0x256>
    8498:	433c      	orrs	r4, r7
    849a:	0324      	lsls	r4, r4, #12
    849c:	0b24      	lsrs	r4, r4, #12
    849e:	9a00      	ldr	r2, [sp, #0]
    84a0:	4d53      	ldr	r5, [pc, #332]	; (85f0 <__aeabi_ddiv+0x634>)
    84a2:	e653      	b.n	814c <__aeabi_ddiv+0x190>
    84a4:	42b2      	cmp	r2, r6
    84a6:	d859      	bhi.n	855c <__aeabi_ddiv+0x5a0>
    84a8:	d100      	bne.n	84ac <__aeabi_ddiv+0x4f0>
    84aa:	e08a      	b.n	85c2 <__aeabi_ddiv+0x606>
    84ac:	1c01      	adds	r1, r0, #0
    84ae:	e762      	b.n	8376 <__aeabi_ddiv+0x3ba>
    84b0:	465f      	mov	r7, fp
    84b2:	08c9      	lsrs	r1, r1, #3
    84b4:	077b      	lsls	r3, r7, #29
    84b6:	9e03      	ldr	r6, [sp, #12]
    84b8:	430b      	orrs	r3, r1
    84ba:	027c      	lsls	r4, r7, #9
    84bc:	056d      	lsls	r5, r5, #21
    84be:	2201      	movs	r2, #1
    84c0:	4699      	mov	r9, r3
    84c2:	0b24      	lsrs	r4, r4, #12
    84c4:	0d6d      	lsrs	r5, r5, #21
    84c6:	4032      	ands	r2, r6
    84c8:	e640      	b.n	814c <__aeabi_ddiv+0x190>
    84ca:	4b4a      	ldr	r3, [pc, #296]	; (85f4 <__aeabi_ddiv+0x638>)
    84cc:	9f04      	ldr	r7, [sp, #16]
    84ce:	1bdb      	subs	r3, r3, r7
    84d0:	2b38      	cmp	r3, #56	; 0x38
    84d2:	dd10      	ble.n	84f6 <__aeabi_ddiv+0x53a>
    84d4:	9c03      	ldr	r4, [sp, #12]
    84d6:	2201      	movs	r2, #1
    84d8:	4022      	ands	r2, r4
    84da:	2400      	movs	r4, #0
    84dc:	2500      	movs	r5, #0
    84de:	46a1      	mov	r9, r4
    84e0:	e634      	b.n	814c <__aeabi_ddiv+0x190>
    84e2:	2101      	movs	r1, #1
    84e4:	4249      	negs	r1, r1
    84e6:	e748      	b.n	837a <__aeabi_ddiv+0x3be>
    84e8:	9302      	str	r3, [sp, #8]
    84ea:	e704      	b.n	82f6 <__aeabi_ddiv+0x33a>
    84ec:	1c1f      	adds	r7, r3, #0
    84ee:	e721      	b.n	8334 <__aeabi_ddiv+0x378>
    84f0:	9c01      	ldr	r4, [sp, #4]
    84f2:	9403      	str	r4, [sp, #12]
    84f4:	e741      	b.n	837a <__aeabi_ddiv+0x3be>
    84f6:	2b1f      	cmp	r3, #31
    84f8:	dc40      	bgt.n	857c <__aeabi_ddiv+0x5c0>
    84fa:	483f      	ldr	r0, [pc, #252]	; (85f8 <__aeabi_ddiv+0x63c>)
    84fc:	9f04      	ldr	r7, [sp, #16]
    84fe:	1c0c      	adds	r4, r1, #0
    8500:	183a      	adds	r2, r7, r0
    8502:	4658      	mov	r0, fp
    8504:	4091      	lsls	r1, r2
    8506:	40dc      	lsrs	r4, r3
    8508:	4090      	lsls	r0, r2
    850a:	4320      	orrs	r0, r4
    850c:	1c0a      	adds	r2, r1, #0
    850e:	1e51      	subs	r1, r2, #1
    8510:	418a      	sbcs	r2, r1
    8512:	1c01      	adds	r1, r0, #0
    8514:	4311      	orrs	r1, r2
    8516:	465a      	mov	r2, fp
    8518:	40da      	lsrs	r2, r3
    851a:	1c13      	adds	r3, r2, #0
    851c:	0748      	lsls	r0, r1, #29
    851e:	d009      	beq.n	8534 <__aeabi_ddiv+0x578>
    8520:	220f      	movs	r2, #15
    8522:	400a      	ands	r2, r1
    8524:	2a04      	cmp	r2, #4
    8526:	d005      	beq.n	8534 <__aeabi_ddiv+0x578>
    8528:	1d0a      	adds	r2, r1, #4
    852a:	428a      	cmp	r2, r1
    852c:	4189      	sbcs	r1, r1
    852e:	4249      	negs	r1, r1
    8530:	185b      	adds	r3, r3, r1
    8532:	1c11      	adds	r1, r2, #0
    8534:	021a      	lsls	r2, r3, #8
    8536:	d534      	bpl.n	85a2 <__aeabi_ddiv+0x5e6>
    8538:	9c03      	ldr	r4, [sp, #12]
    853a:	2201      	movs	r2, #1
    853c:	4022      	ands	r2, r4
    853e:	2400      	movs	r4, #0
    8540:	2501      	movs	r5, #1
    8542:	46a1      	mov	r9, r4
    8544:	e602      	b.n	814c <__aeabi_ddiv+0x190>
    8546:	9f00      	ldr	r7, [sp, #0]
    8548:	2102      	movs	r1, #2
    854a:	4249      	negs	r1, r1
    854c:	44b9      	add	r9, r7
    854e:	448b      	add	fp, r1
    8550:	45b9      	cmp	r9, r7
    8552:	4189      	sbcs	r1, r1
    8554:	4249      	negs	r1, r1
    8556:	1909      	adds	r1, r1, r4
    8558:	18cb      	adds	r3, r1, r3
    855a:	e6a4      	b.n	82a6 <__aeabi_ddiv+0x2ea>
    855c:	9d00      	ldr	r5, [sp, #0]
    855e:	1e88      	subs	r0, r1, #2
    8560:	0069      	lsls	r1, r5, #1
    8562:	42a9      	cmp	r1, r5
    8564:	41ad      	sbcs	r5, r5
    8566:	426d      	negs	r5, r5
    8568:	192c      	adds	r4, r5, r4
    856a:	1936      	adds	r6, r6, r4
    856c:	9100      	str	r1, [sp, #0]
    856e:	e73a      	b.n	83e6 <__aeabi_ddiv+0x42a>
    8570:	2b00      	cmp	r3, #0
    8572:	d000      	beq.n	8576 <__aeabi_ddiv+0x5ba>
    8574:	e733      	b.n	83de <__aeabi_ddiv+0x422>
    8576:	2400      	movs	r4, #0
    8578:	9400      	str	r4, [sp, #0]
    857a:	e737      	b.n	83ec <__aeabi_ddiv+0x430>
    857c:	4a1f      	ldr	r2, [pc, #124]	; (85fc <__aeabi_ddiv+0x640>)
    857e:	9c04      	ldr	r4, [sp, #16]
    8580:	465d      	mov	r5, fp
    8582:	1b12      	subs	r2, r2, r4
    8584:	40d5      	lsrs	r5, r2
    8586:	1c2a      	adds	r2, r5, #0
    8588:	2b20      	cmp	r3, #32
    858a:	d01f      	beq.n	85cc <__aeabi_ddiv+0x610>
    858c:	4e1c      	ldr	r6, [pc, #112]	; (8600 <__aeabi_ddiv+0x644>)
    858e:	465f      	mov	r7, fp
    8590:	19a3      	adds	r3, r4, r6
    8592:	409f      	lsls	r7, r3
    8594:	1c3b      	adds	r3, r7, #0
    8596:	4319      	orrs	r1, r3
    8598:	1e4b      	subs	r3, r1, #1
    859a:	4199      	sbcs	r1, r3
    859c:	4311      	orrs	r1, r2
    859e:	2300      	movs	r3, #0
    85a0:	e7bc      	b.n	851c <__aeabi_ddiv+0x560>
    85a2:	075a      	lsls	r2, r3, #29
    85a4:	08c9      	lsrs	r1, r1, #3
    85a6:	430a      	orrs	r2, r1
    85a8:	9f03      	ldr	r7, [sp, #12]
    85aa:	4691      	mov	r9, r2
    85ac:	025b      	lsls	r3, r3, #9
    85ae:	2201      	movs	r2, #1
    85b0:	0b1c      	lsrs	r4, r3, #12
    85b2:	403a      	ands	r2, r7
    85b4:	2500      	movs	r5, #0
    85b6:	e5c9      	b.n	814c <__aeabi_ddiv+0x190>
    85b8:	454e      	cmp	r6, r9
    85ba:	d8c4      	bhi.n	8546 <__aeabi_ddiv+0x58a>
    85bc:	4693      	mov	fp, r2
    85be:	2100      	movs	r1, #0
    85c0:	e672      	b.n	82a8 <__aeabi_ddiv+0x2ec>
    85c2:	9f00      	ldr	r7, [sp, #0]
    85c4:	429f      	cmp	r7, r3
    85c6:	d3c9      	bcc.n	855c <__aeabi_ddiv+0x5a0>
    85c8:	1c01      	adds	r1, r0, #0
    85ca:	e70f      	b.n	83ec <__aeabi_ddiv+0x430>
    85cc:	2300      	movs	r3, #0
    85ce:	e7e2      	b.n	8596 <__aeabi_ddiv+0x5da>
    85d0:	2480      	movs	r4, #128	; 0x80
    85d2:	0324      	lsls	r4, r4, #12
    85d4:	465f      	mov	r7, fp
    85d6:	433c      	orrs	r4, r7
    85d8:	0324      	lsls	r4, r4, #12
    85da:	0b24      	lsrs	r4, r4, #12
    85dc:	9a01      	ldr	r2, [sp, #4]
    85de:	4689      	mov	r9, r1
    85e0:	4d03      	ldr	r5, [pc, #12]	; (85f0 <__aeabi_ddiv+0x634>)
    85e2:	e5b3      	b.n	814c <__aeabi_ddiv+0x190>
    85e4:	000003ff 	.word	0x000003ff
    85e8:	feffffff 	.word	0xfeffffff
    85ec:	000007fe 	.word	0x000007fe
    85f0:	000007ff 	.word	0x000007ff
    85f4:	fffffc02 	.word	0xfffffc02
    85f8:	0000041e 	.word	0x0000041e
    85fc:	fffffbe2 	.word	0xfffffbe2
    8600:	0000043e 	.word	0x0000043e

00008604 <__eqdf2>:
    8604:	b5f0      	push	{r4, r5, r6, r7, lr}
    8606:	465f      	mov	r7, fp
    8608:	4656      	mov	r6, sl
    860a:	464d      	mov	r5, r9
    860c:	4644      	mov	r4, r8
    860e:	b4f0      	push	{r4, r5, r6, r7}
    8610:	1c0d      	adds	r5, r1, #0
    8612:	1c04      	adds	r4, r0, #0
    8614:	4680      	mov	r8, r0
    8616:	0fe8      	lsrs	r0, r5, #31
    8618:	4681      	mov	r9, r0
    861a:	0318      	lsls	r0, r3, #12
    861c:	030f      	lsls	r7, r1, #12
    861e:	0b00      	lsrs	r0, r0, #12
    8620:	0b3f      	lsrs	r7, r7, #12
    8622:	b083      	sub	sp, #12
    8624:	4684      	mov	ip, r0
    8626:	481b      	ldr	r0, [pc, #108]	; (8694 <__eqdf2+0x90>)
    8628:	9700      	str	r7, [sp, #0]
    862a:	0049      	lsls	r1, r1, #1
    862c:	005e      	lsls	r6, r3, #1
    862e:	0fdf      	lsrs	r7, r3, #31
    8630:	0d49      	lsrs	r1, r1, #21
    8632:	4692      	mov	sl, r2
    8634:	0d76      	lsrs	r6, r6, #21
    8636:	46bb      	mov	fp, r7
    8638:	4281      	cmp	r1, r0
    863a:	d00c      	beq.n	8656 <__eqdf2+0x52>
    863c:	4815      	ldr	r0, [pc, #84]	; (8694 <__eqdf2+0x90>)
    863e:	4286      	cmp	r6, r0
    8640:	d010      	beq.n	8664 <__eqdf2+0x60>
    8642:	2001      	movs	r0, #1
    8644:	42b1      	cmp	r1, r6
    8646:	d015      	beq.n	8674 <__eqdf2+0x70>
    8648:	b003      	add	sp, #12
    864a:	bc3c      	pop	{r2, r3, r4, r5}
    864c:	4690      	mov	r8, r2
    864e:	4699      	mov	r9, r3
    8650:	46a2      	mov	sl, r4
    8652:	46ab      	mov	fp, r5
    8654:	bdf0      	pop	{r4, r5, r6, r7, pc}
    8656:	9f00      	ldr	r7, [sp, #0]
    8658:	2001      	movs	r0, #1
    865a:	4327      	orrs	r7, r4
    865c:	d1f4      	bne.n	8648 <__eqdf2+0x44>
    865e:	480d      	ldr	r0, [pc, #52]	; (8694 <__eqdf2+0x90>)
    8660:	4286      	cmp	r6, r0
    8662:	d1ee      	bne.n	8642 <__eqdf2+0x3e>
    8664:	4660      	mov	r0, ip
    8666:	4302      	orrs	r2, r0
    8668:	2001      	movs	r0, #1
    866a:	2a00      	cmp	r2, #0
    866c:	d1ec      	bne.n	8648 <__eqdf2+0x44>
    866e:	2001      	movs	r0, #1
    8670:	42b1      	cmp	r1, r6
    8672:	d1e9      	bne.n	8648 <__eqdf2+0x44>
    8674:	9b00      	ldr	r3, [sp, #0]
    8676:	4563      	cmp	r3, ip
    8678:	d1e6      	bne.n	8648 <__eqdf2+0x44>
    867a:	45d0      	cmp	r8, sl
    867c:	d1e4      	bne.n	8648 <__eqdf2+0x44>
    867e:	45d9      	cmp	r9, fp
    8680:	d006      	beq.n	8690 <__eqdf2+0x8c>
    8682:	2900      	cmp	r1, #0
    8684:	d1e0      	bne.n	8648 <__eqdf2+0x44>
    8686:	431c      	orrs	r4, r3
    8688:	1c20      	adds	r0, r4, #0
    868a:	1e44      	subs	r4, r0, #1
    868c:	41a0      	sbcs	r0, r4
    868e:	e7db      	b.n	8648 <__eqdf2+0x44>
    8690:	2000      	movs	r0, #0
    8692:	e7d9      	b.n	8648 <__eqdf2+0x44>
    8694:	000007ff 	.word	0x000007ff

00008698 <__gedf2>:
    8698:	b5f0      	push	{r4, r5, r6, r7, lr}
    869a:	465f      	mov	r7, fp
    869c:	4656      	mov	r6, sl
    869e:	464d      	mov	r5, r9
    86a0:	4644      	mov	r4, r8
    86a2:	b4f0      	push	{r4, r5, r6, r7}
    86a4:	0fcd      	lsrs	r5, r1, #31
    86a6:	0fde      	lsrs	r6, r3, #31
    86a8:	46ac      	mov	ip, r5
    86aa:	031d      	lsls	r5, r3, #12
    86ac:	0b2d      	lsrs	r5, r5, #12
    86ae:	46b1      	mov	r9, r6
    86b0:	4e37      	ldr	r6, [pc, #220]	; (8790 <__gedf2+0xf8>)
    86b2:	030f      	lsls	r7, r1, #12
    86b4:	004c      	lsls	r4, r1, #1
    86b6:	46ab      	mov	fp, r5
    86b8:	005d      	lsls	r5, r3, #1
    86ba:	4680      	mov	r8, r0
    86bc:	0b3f      	lsrs	r7, r7, #12
    86be:	0d64      	lsrs	r4, r4, #21
    86c0:	4692      	mov	sl, r2
    86c2:	0d6d      	lsrs	r5, r5, #21
    86c4:	42b4      	cmp	r4, r6
    86c6:	d032      	beq.n	872e <__gedf2+0x96>
    86c8:	4e31      	ldr	r6, [pc, #196]	; (8790 <__gedf2+0xf8>)
    86ca:	42b5      	cmp	r5, r6
    86cc:	d035      	beq.n	873a <__gedf2+0xa2>
    86ce:	2c00      	cmp	r4, #0
    86d0:	d10e      	bne.n	86f0 <__gedf2+0x58>
    86d2:	4338      	orrs	r0, r7
    86d4:	4241      	negs	r1, r0
    86d6:	4141      	adcs	r1, r0
    86d8:	1c08      	adds	r0, r1, #0
    86da:	2d00      	cmp	r5, #0
    86dc:	d00b      	beq.n	86f6 <__gedf2+0x5e>
    86de:	2900      	cmp	r1, #0
    86e0:	d119      	bne.n	8716 <__gedf2+0x7e>
    86e2:	45cc      	cmp	ip, r9
    86e4:	d02d      	beq.n	8742 <__gedf2+0xaa>
    86e6:	4665      	mov	r5, ip
    86e8:	4268      	negs	r0, r5
    86ea:	2301      	movs	r3, #1
    86ec:	4318      	orrs	r0, r3
    86ee:	e018      	b.n	8722 <__gedf2+0x8a>
    86f0:	2d00      	cmp	r5, #0
    86f2:	d1f6      	bne.n	86e2 <__gedf2+0x4a>
    86f4:	1c28      	adds	r0, r5, #0
    86f6:	4659      	mov	r1, fp
    86f8:	430a      	orrs	r2, r1
    86fa:	4253      	negs	r3, r2
    86fc:	4153      	adcs	r3, r2
    86fe:	2800      	cmp	r0, #0
    8700:	d106      	bne.n	8710 <__gedf2+0x78>
    8702:	2b00      	cmp	r3, #0
    8704:	d0ed      	beq.n	86e2 <__gedf2+0x4a>
    8706:	4663      	mov	r3, ip
    8708:	4258      	negs	r0, r3
    870a:	2301      	movs	r3, #1
    870c:	4318      	orrs	r0, r3
    870e:	e008      	b.n	8722 <__gedf2+0x8a>
    8710:	2000      	movs	r0, #0
    8712:	2b00      	cmp	r3, #0
    8714:	d105      	bne.n	8722 <__gedf2+0x8a>
    8716:	464a      	mov	r2, r9
    8718:	4250      	negs	r0, r2
    871a:	4150      	adcs	r0, r2
    871c:	4240      	negs	r0, r0
    871e:	2301      	movs	r3, #1
    8720:	4318      	orrs	r0, r3
    8722:	bc3c      	pop	{r2, r3, r4, r5}
    8724:	4690      	mov	r8, r2
    8726:	4699      	mov	r9, r3
    8728:	46a2      	mov	sl, r4
    872a:	46ab      	mov	fp, r5
    872c:	bdf0      	pop	{r4, r5, r6, r7, pc}
    872e:	1c3e      	adds	r6, r7, #0
    8730:	4306      	orrs	r6, r0
    8732:	d0c9      	beq.n	86c8 <__gedf2+0x30>
    8734:	2002      	movs	r0, #2
    8736:	4240      	negs	r0, r0
    8738:	e7f3      	b.n	8722 <__gedf2+0x8a>
    873a:	465e      	mov	r6, fp
    873c:	4316      	orrs	r6, r2
    873e:	d0c6      	beq.n	86ce <__gedf2+0x36>
    8740:	e7f8      	b.n	8734 <__gedf2+0x9c>
    8742:	42ac      	cmp	r4, r5
    8744:	dc07      	bgt.n	8756 <__gedf2+0xbe>
    8746:	da0b      	bge.n	8760 <__gedf2+0xc8>
    8748:	4661      	mov	r1, ip
    874a:	4248      	negs	r0, r1
    874c:	4148      	adcs	r0, r1
    874e:	4240      	negs	r0, r0
    8750:	2301      	movs	r3, #1
    8752:	4318      	orrs	r0, r3
    8754:	e7e5      	b.n	8722 <__gedf2+0x8a>
    8756:	4666      	mov	r6, ip
    8758:	4270      	negs	r0, r6
    875a:	2301      	movs	r3, #1
    875c:	4318      	orrs	r0, r3
    875e:	e7e0      	b.n	8722 <__gedf2+0x8a>
    8760:	455f      	cmp	r7, fp
    8762:	d80a      	bhi.n	877a <__gedf2+0xe2>
    8764:	d00e      	beq.n	8784 <__gedf2+0xec>
    8766:	2000      	movs	r0, #0
    8768:	455f      	cmp	r7, fp
    876a:	d2da      	bcs.n	8722 <__gedf2+0x8a>
    876c:	4665      	mov	r5, ip
    876e:	4268      	negs	r0, r5
    8770:	4168      	adcs	r0, r5
    8772:	4240      	negs	r0, r0
    8774:	2301      	movs	r3, #1
    8776:	4318      	orrs	r0, r3
    8778:	e7d3      	b.n	8722 <__gedf2+0x8a>
    877a:	4662      	mov	r2, ip
    877c:	4250      	negs	r0, r2
    877e:	2301      	movs	r3, #1
    8780:	4318      	orrs	r0, r3
    8782:	e7ce      	b.n	8722 <__gedf2+0x8a>
    8784:	45d0      	cmp	r8, sl
    8786:	d8f8      	bhi.n	877a <__gedf2+0xe2>
    8788:	2000      	movs	r0, #0
    878a:	45d0      	cmp	r8, sl
    878c:	d3ee      	bcc.n	876c <__gedf2+0xd4>
    878e:	e7c8      	b.n	8722 <__gedf2+0x8a>
    8790:	000007ff 	.word	0x000007ff

00008794 <__ledf2>:
    8794:	b5f0      	push	{r4, r5, r6, r7, lr}
    8796:	4656      	mov	r6, sl
    8798:	464d      	mov	r5, r9
    879a:	4644      	mov	r4, r8
    879c:	465f      	mov	r7, fp
    879e:	b4f0      	push	{r4, r5, r6, r7}
    87a0:	1c0d      	adds	r5, r1, #0
    87a2:	b083      	sub	sp, #12
    87a4:	1c04      	adds	r4, r0, #0
    87a6:	9001      	str	r0, [sp, #4]
    87a8:	0fe8      	lsrs	r0, r5, #31
    87aa:	4681      	mov	r9, r0
    87ac:	0318      	lsls	r0, r3, #12
    87ae:	030f      	lsls	r7, r1, #12
    87b0:	0b00      	lsrs	r0, r0, #12
    87b2:	0b3f      	lsrs	r7, r7, #12
    87b4:	4684      	mov	ip, r0
    87b6:	4835      	ldr	r0, [pc, #212]	; (888c <__ledf2+0xf8>)
    87b8:	9700      	str	r7, [sp, #0]
    87ba:	0049      	lsls	r1, r1, #1
    87bc:	005e      	lsls	r6, r3, #1
    87be:	0fdf      	lsrs	r7, r3, #31
    87c0:	0d49      	lsrs	r1, r1, #21
    87c2:	4692      	mov	sl, r2
    87c4:	0d76      	lsrs	r6, r6, #21
    87c6:	46b8      	mov	r8, r7
    87c8:	4281      	cmp	r1, r0
    87ca:	d034      	beq.n	8836 <__ledf2+0xa2>
    87cc:	482f      	ldr	r0, [pc, #188]	; (888c <__ledf2+0xf8>)
    87ce:	4286      	cmp	r6, r0
    87d0:	d036      	beq.n	8840 <__ledf2+0xac>
    87d2:	2900      	cmp	r1, #0
    87d4:	d018      	beq.n	8808 <__ledf2+0x74>
    87d6:	2e00      	cmp	r6, #0
    87d8:	d11f      	bne.n	881a <__ledf2+0x86>
    87da:	1c34      	adds	r4, r6, #0
    87dc:	4667      	mov	r7, ip
    87de:	433a      	orrs	r2, r7
    87e0:	4253      	negs	r3, r2
    87e2:	4153      	adcs	r3, r2
    87e4:	2c00      	cmp	r4, #0
    87e6:	d01f      	beq.n	8828 <__ledf2+0x94>
    87e8:	2000      	movs	r0, #0
    87ea:	2b00      	cmp	r3, #0
    87ec:	d105      	bne.n	87fa <__ledf2+0x66>
    87ee:	4642      	mov	r2, r8
    87f0:	4250      	negs	r0, r2
    87f2:	4150      	adcs	r0, r2
    87f4:	4240      	negs	r0, r0
    87f6:	2301      	movs	r3, #1
    87f8:	4318      	orrs	r0, r3
    87fa:	b003      	add	sp, #12
    87fc:	bc3c      	pop	{r2, r3, r4, r5}
    87fe:	4690      	mov	r8, r2
    8800:	4699      	mov	r9, r3
    8802:	46a2      	mov	sl, r4
    8804:	46ab      	mov	fp, r5
    8806:	bdf0      	pop	{r4, r5, r6, r7, pc}
    8808:	9800      	ldr	r0, [sp, #0]
    880a:	4304      	orrs	r4, r0
    880c:	4260      	negs	r0, r4
    880e:	4160      	adcs	r0, r4
    8810:	1c04      	adds	r4, r0, #0
    8812:	2e00      	cmp	r6, #0
    8814:	d0e2      	beq.n	87dc <__ledf2+0x48>
    8816:	2800      	cmp	r0, #0
    8818:	d1e9      	bne.n	87ee <__ledf2+0x5a>
    881a:	45c1      	cmp	r9, r8
    881c:	d015      	beq.n	884a <__ledf2+0xb6>
    881e:	464f      	mov	r7, r9
    8820:	4278      	negs	r0, r7
    8822:	2301      	movs	r3, #1
    8824:	4318      	orrs	r0, r3
    8826:	e7e8      	b.n	87fa <__ledf2+0x66>
    8828:	2b00      	cmp	r3, #0
    882a:	d0f6      	beq.n	881a <__ledf2+0x86>
    882c:	464b      	mov	r3, r9
    882e:	4258      	negs	r0, r3
    8830:	2301      	movs	r3, #1
    8832:	4318      	orrs	r0, r3
    8834:	e7e1      	b.n	87fa <__ledf2+0x66>
    8836:	9f00      	ldr	r7, [sp, #0]
    8838:	2002      	movs	r0, #2
    883a:	4327      	orrs	r7, r4
    883c:	d1dd      	bne.n	87fa <__ledf2+0x66>
    883e:	e7c5      	b.n	87cc <__ledf2+0x38>
    8840:	4667      	mov	r7, ip
    8842:	2002      	movs	r0, #2
    8844:	4317      	orrs	r7, r2
    8846:	d1d8      	bne.n	87fa <__ledf2+0x66>
    8848:	e7c3      	b.n	87d2 <__ledf2+0x3e>
    884a:	42b1      	cmp	r1, r6
    884c:	dd04      	ble.n	8858 <__ledf2+0xc4>
    884e:	464a      	mov	r2, r9
    8850:	4250      	negs	r0, r2
    8852:	2301      	movs	r3, #1
    8854:	4318      	orrs	r0, r3
    8856:	e7d0      	b.n	87fa <__ledf2+0x66>
    8858:	42b1      	cmp	r1, r6
    885a:	db07      	blt.n	886c <__ledf2+0xd8>
    885c:	9800      	ldr	r0, [sp, #0]
    885e:	4560      	cmp	r0, ip
    8860:	d8e4      	bhi.n	882c <__ledf2+0x98>
    8862:	d00a      	beq.n	887a <__ledf2+0xe6>
    8864:	9f00      	ldr	r7, [sp, #0]
    8866:	2000      	movs	r0, #0
    8868:	4567      	cmp	r7, ip
    886a:	d2c6      	bcs.n	87fa <__ledf2+0x66>
    886c:	464f      	mov	r7, r9
    886e:	4278      	negs	r0, r7
    8870:	4178      	adcs	r0, r7
    8872:	4240      	negs	r0, r0
    8874:	2301      	movs	r3, #1
    8876:	4318      	orrs	r0, r3
    8878:	e7bf      	b.n	87fa <__ledf2+0x66>
    887a:	9a01      	ldr	r2, [sp, #4]
    887c:	4552      	cmp	r2, sl
    887e:	d8d5      	bhi.n	882c <__ledf2+0x98>
    8880:	9a01      	ldr	r2, [sp, #4]
    8882:	2000      	movs	r0, #0
    8884:	4552      	cmp	r2, sl
    8886:	d3f1      	bcc.n	886c <__ledf2+0xd8>
    8888:	e7b7      	b.n	87fa <__ledf2+0x66>
    888a:	46c0      	nop			; (mov r8, r8)
    888c:	000007ff 	.word	0x000007ff

00008890 <__aeabi_dmul>:
    8890:	b5f0      	push	{r4, r5, r6, r7, lr}
    8892:	4656      	mov	r6, sl
    8894:	4644      	mov	r4, r8
    8896:	465f      	mov	r7, fp
    8898:	464d      	mov	r5, r9
    889a:	b4f0      	push	{r4, r5, r6, r7}
    889c:	1c1f      	adds	r7, r3, #0
    889e:	030b      	lsls	r3, r1, #12
    88a0:	0b1b      	lsrs	r3, r3, #12
    88a2:	469a      	mov	sl, r3
    88a4:	004b      	lsls	r3, r1, #1
    88a6:	b087      	sub	sp, #28
    88a8:	1c04      	adds	r4, r0, #0
    88aa:	4680      	mov	r8, r0
    88ac:	0d5b      	lsrs	r3, r3, #21
    88ae:	0fc8      	lsrs	r0, r1, #31
    88b0:	1c16      	adds	r6, r2, #0
    88b2:	9302      	str	r3, [sp, #8]
    88b4:	4681      	mov	r9, r0
    88b6:	2b00      	cmp	r3, #0
    88b8:	d068      	beq.n	898c <__aeabi_dmul+0xfc>
    88ba:	4b69      	ldr	r3, [pc, #420]	; (8a60 <__aeabi_dmul+0x1d0>)
    88bc:	9902      	ldr	r1, [sp, #8]
    88be:	4299      	cmp	r1, r3
    88c0:	d032      	beq.n	8928 <__aeabi_dmul+0x98>
    88c2:	2280      	movs	r2, #128	; 0x80
    88c4:	4653      	mov	r3, sl
    88c6:	0352      	lsls	r2, r2, #13
    88c8:	431a      	orrs	r2, r3
    88ca:	00d2      	lsls	r2, r2, #3
    88cc:	0f63      	lsrs	r3, r4, #29
    88ce:	431a      	orrs	r2, r3
    88d0:	4692      	mov	sl, r2
    88d2:	4a64      	ldr	r2, [pc, #400]	; (8a64 <__aeabi_dmul+0x1d4>)
    88d4:	00e0      	lsls	r0, r4, #3
    88d6:	1889      	adds	r1, r1, r2
    88d8:	4680      	mov	r8, r0
    88da:	9102      	str	r1, [sp, #8]
    88dc:	2400      	movs	r4, #0
    88de:	2500      	movs	r5, #0
    88e0:	033b      	lsls	r3, r7, #12
    88e2:	0b1b      	lsrs	r3, r3, #12
    88e4:	469b      	mov	fp, r3
    88e6:	0078      	lsls	r0, r7, #1
    88e8:	0ffb      	lsrs	r3, r7, #31
    88ea:	1c32      	adds	r2, r6, #0
    88ec:	0d40      	lsrs	r0, r0, #21
    88ee:	9303      	str	r3, [sp, #12]
    88f0:	d100      	bne.n	88f4 <__aeabi_dmul+0x64>
    88f2:	e075      	b.n	89e0 <__aeabi_dmul+0x150>
    88f4:	4b5a      	ldr	r3, [pc, #360]	; (8a60 <__aeabi_dmul+0x1d0>)
    88f6:	4298      	cmp	r0, r3
    88f8:	d069      	beq.n	89ce <__aeabi_dmul+0x13e>
    88fa:	2280      	movs	r2, #128	; 0x80
    88fc:	4659      	mov	r1, fp
    88fe:	0352      	lsls	r2, r2, #13
    8900:	430a      	orrs	r2, r1
    8902:	0f73      	lsrs	r3, r6, #29
    8904:	00d2      	lsls	r2, r2, #3
    8906:	431a      	orrs	r2, r3
    8908:	4b56      	ldr	r3, [pc, #344]	; (8a64 <__aeabi_dmul+0x1d4>)
    890a:	4693      	mov	fp, r2
    890c:	18c0      	adds	r0, r0, r3
    890e:	00f2      	lsls	r2, r6, #3
    8910:	2300      	movs	r3, #0
    8912:	9903      	ldr	r1, [sp, #12]
    8914:	464e      	mov	r6, r9
    8916:	4071      	eors	r1, r6
    8918:	431c      	orrs	r4, r3
    891a:	2c0f      	cmp	r4, #15
    891c:	d900      	bls.n	8920 <__aeabi_dmul+0x90>
    891e:	e0a9      	b.n	8a74 <__aeabi_dmul+0x1e4>
    8920:	4e51      	ldr	r6, [pc, #324]	; (8a68 <__aeabi_dmul+0x1d8>)
    8922:	00a4      	lsls	r4, r4, #2
    8924:	5934      	ldr	r4, [r6, r4]
    8926:	46a7      	mov	pc, r4
    8928:	4653      	mov	r3, sl
    892a:	431c      	orrs	r4, r3
    892c:	d000      	beq.n	8930 <__aeabi_dmul+0xa0>
    892e:	e087      	b.n	8a40 <__aeabi_dmul+0x1b0>
    8930:	2500      	movs	r5, #0
    8932:	46aa      	mov	sl, r5
    8934:	46a8      	mov	r8, r5
    8936:	2408      	movs	r4, #8
    8938:	2502      	movs	r5, #2
    893a:	e7d1      	b.n	88e0 <__aeabi_dmul+0x50>
    893c:	4649      	mov	r1, r9
    893e:	2d02      	cmp	r5, #2
    8940:	d06c      	beq.n	8a1c <__aeabi_dmul+0x18c>
    8942:	2d03      	cmp	r5, #3
    8944:	d100      	bne.n	8948 <__aeabi_dmul+0xb8>
    8946:	e217      	b.n	8d78 <__aeabi_dmul+0x4e8>
    8948:	2d01      	cmp	r5, #1
    894a:	d000      	beq.n	894e <__aeabi_dmul+0xbe>
    894c:	e158      	b.n	8c00 <__aeabi_dmul+0x370>
    894e:	400d      	ands	r5, r1
    8950:	b2ed      	uxtb	r5, r5
    8952:	2400      	movs	r4, #0
    8954:	46a9      	mov	r9, r5
    8956:	2300      	movs	r3, #0
    8958:	46a0      	mov	r8, r4
    895a:	2000      	movs	r0, #0
    895c:	2100      	movs	r1, #0
    895e:	0325      	lsls	r5, r4, #12
    8960:	0d0a      	lsrs	r2, r1, #20
    8962:	051c      	lsls	r4, r3, #20
    8964:	0b2d      	lsrs	r5, r5, #12
    8966:	0512      	lsls	r2, r2, #20
    8968:	4b40      	ldr	r3, [pc, #256]	; (8a6c <__aeabi_dmul+0x1dc>)
    896a:	432a      	orrs	r2, r5
    896c:	4013      	ands	r3, r2
    896e:	4323      	orrs	r3, r4
    8970:	005b      	lsls	r3, r3, #1
    8972:	464c      	mov	r4, r9
    8974:	085b      	lsrs	r3, r3, #1
    8976:	07e2      	lsls	r2, r4, #31
    8978:	1c19      	adds	r1, r3, #0
    897a:	4640      	mov	r0, r8
    897c:	4311      	orrs	r1, r2
    897e:	b007      	add	sp, #28
    8980:	bc3c      	pop	{r2, r3, r4, r5}
    8982:	4690      	mov	r8, r2
    8984:	4699      	mov	r9, r3
    8986:	46a2      	mov	sl, r4
    8988:	46ab      	mov	fp, r5
    898a:	bdf0      	pop	{r4, r5, r6, r7, pc}
    898c:	4653      	mov	r3, sl
    898e:	4323      	orrs	r3, r4
    8990:	d050      	beq.n	8a34 <__aeabi_dmul+0x1a4>
    8992:	4653      	mov	r3, sl
    8994:	2b00      	cmp	r3, #0
    8996:	d100      	bne.n	899a <__aeabi_dmul+0x10a>
    8998:	e184      	b.n	8ca4 <__aeabi_dmul+0x414>
    899a:	4650      	mov	r0, sl
    899c:	f000 fec0 	bl	9720 <__clzsi2>
    89a0:	1e03      	subs	r3, r0, #0
    89a2:	2b27      	cmp	r3, #39	; 0x27
    89a4:	dd00      	ble.n	89a8 <__aeabi_dmul+0x118>
    89a6:	e176      	b.n	8c96 <__aeabi_dmul+0x406>
    89a8:	2128      	movs	r1, #40	; 0x28
    89aa:	1a0d      	subs	r5, r1, r0
    89ac:	1c21      	adds	r1, r4, #0
    89ae:	3b08      	subs	r3, #8
    89b0:	4652      	mov	r2, sl
    89b2:	40e9      	lsrs	r1, r5
    89b4:	409a      	lsls	r2, r3
    89b6:	1c0d      	adds	r5, r1, #0
    89b8:	4315      	orrs	r5, r2
    89ba:	1c22      	adds	r2, r4, #0
    89bc:	409a      	lsls	r2, r3
    89be:	46aa      	mov	sl, r5
    89c0:	4690      	mov	r8, r2
    89c2:	4b2b      	ldr	r3, [pc, #172]	; (8a70 <__aeabi_dmul+0x1e0>)
    89c4:	2400      	movs	r4, #0
    89c6:	1a1b      	subs	r3, r3, r0
    89c8:	9302      	str	r3, [sp, #8]
    89ca:	2500      	movs	r5, #0
    89cc:	e788      	b.n	88e0 <__aeabi_dmul+0x50>
    89ce:	465b      	mov	r3, fp
    89d0:	431e      	orrs	r6, r3
    89d2:	2303      	movs	r3, #3
    89d4:	2e00      	cmp	r6, #0
    89d6:	d19c      	bne.n	8912 <__aeabi_dmul+0x82>
    89d8:	46b3      	mov	fp, r6
    89da:	2200      	movs	r2, #0
    89dc:	2302      	movs	r3, #2
    89de:	e798      	b.n	8912 <__aeabi_dmul+0x82>
    89e0:	465b      	mov	r3, fp
    89e2:	4333      	orrs	r3, r6
    89e4:	d021      	beq.n	8a2a <__aeabi_dmul+0x19a>
    89e6:	4658      	mov	r0, fp
    89e8:	2800      	cmp	r0, #0
    89ea:	d100      	bne.n	89ee <__aeabi_dmul+0x15e>
    89ec:	e14e      	b.n	8c8c <__aeabi_dmul+0x3fc>
    89ee:	f000 fe97 	bl	9720 <__clzsi2>
    89f2:	2827      	cmp	r0, #39	; 0x27
    89f4:	dd00      	ble.n	89f8 <__aeabi_dmul+0x168>
    89f6:	e142      	b.n	8c7e <__aeabi_dmul+0x3ee>
    89f8:	2128      	movs	r1, #40	; 0x28
    89fa:	1a0f      	subs	r7, r1, r0
    89fc:	1c02      	adds	r2, r0, #0
    89fe:	1c31      	adds	r1, r6, #0
    8a00:	3a08      	subs	r2, #8
    8a02:	465b      	mov	r3, fp
    8a04:	40f9      	lsrs	r1, r7
    8a06:	4093      	lsls	r3, r2
    8a08:	1c0f      	adds	r7, r1, #0
    8a0a:	431f      	orrs	r7, r3
    8a0c:	1c33      	adds	r3, r6, #0
    8a0e:	4093      	lsls	r3, r2
    8a10:	46bb      	mov	fp, r7
    8a12:	1c1a      	adds	r2, r3, #0
    8a14:	4b16      	ldr	r3, [pc, #88]	; (8a70 <__aeabi_dmul+0x1e0>)
    8a16:	1a18      	subs	r0, r3, r0
    8a18:	2300      	movs	r3, #0
    8a1a:	e77a      	b.n	8912 <__aeabi_dmul+0x82>
    8a1c:	2301      	movs	r3, #1
    8a1e:	400b      	ands	r3, r1
    8a20:	2400      	movs	r4, #0
    8a22:	4699      	mov	r9, r3
    8a24:	46a0      	mov	r8, r4
    8a26:	4b0e      	ldr	r3, [pc, #56]	; (8a60 <__aeabi_dmul+0x1d0>)
    8a28:	e797      	b.n	895a <__aeabi_dmul+0xca>
    8a2a:	2700      	movs	r7, #0
    8a2c:	46bb      	mov	fp, r7
    8a2e:	2200      	movs	r2, #0
    8a30:	2301      	movs	r3, #1
    8a32:	e76e      	b.n	8912 <__aeabi_dmul+0x82>
    8a34:	2100      	movs	r1, #0
    8a36:	2404      	movs	r4, #4
    8a38:	468a      	mov	sl, r1
    8a3a:	4688      	mov	r8, r1
    8a3c:	2501      	movs	r5, #1
    8a3e:	e74f      	b.n	88e0 <__aeabi_dmul+0x50>
    8a40:	240c      	movs	r4, #12
    8a42:	2503      	movs	r5, #3
    8a44:	e74c      	b.n	88e0 <__aeabi_dmul+0x50>
    8a46:	2500      	movs	r5, #0
    8a48:	2480      	movs	r4, #128	; 0x80
    8a4a:	46a9      	mov	r9, r5
    8a4c:	0324      	lsls	r4, r4, #12
    8a4e:	46a8      	mov	r8, r5
    8a50:	4b03      	ldr	r3, [pc, #12]	; (8a60 <__aeabi_dmul+0x1d0>)
    8a52:	e782      	b.n	895a <__aeabi_dmul+0xca>
    8a54:	46da      	mov	sl, fp
    8a56:	4690      	mov	r8, r2
    8a58:	9903      	ldr	r1, [sp, #12]
    8a5a:	1c1d      	adds	r5, r3, #0
    8a5c:	e76f      	b.n	893e <__aeabi_dmul+0xae>
    8a5e:	46c0      	nop			; (mov r8, r8)
    8a60:	000007ff 	.word	0x000007ff
    8a64:	fffffc01 	.word	0xfffffc01
    8a68:	00009f34 	.word	0x00009f34
    8a6c:	800fffff 	.word	0x800fffff
    8a70:	fffffc0d 	.word	0xfffffc0d
    8a74:	9f02      	ldr	r7, [sp, #8]
    8a76:	0c16      	lsrs	r6, r2, #16
    8a78:	1838      	adds	r0, r7, r0
    8a7a:	9004      	str	r0, [sp, #16]
    8a7c:	4640      	mov	r0, r8
    8a7e:	0c07      	lsrs	r7, r0, #16
    8a80:	0400      	lsls	r0, r0, #16
    8a82:	0c00      	lsrs	r0, r0, #16
    8a84:	0412      	lsls	r2, r2, #16
    8a86:	0c12      	lsrs	r2, r2, #16
    8a88:	1c03      	adds	r3, r0, #0
    8a8a:	4353      	muls	r3, r2
    8a8c:	1c04      	adds	r4, r0, #0
    8a8e:	1c3d      	adds	r5, r7, #0
    8a90:	4374      	muls	r4, r6
    8a92:	4355      	muls	r5, r2
    8a94:	4698      	mov	r8, r3
    8a96:	1c3b      	adds	r3, r7, #0
    8a98:	4373      	muls	r3, r6
    8a9a:	1964      	adds	r4, r4, r5
    8a9c:	46a4      	mov	ip, r4
    8a9e:	4644      	mov	r4, r8
    8aa0:	9302      	str	r3, [sp, #8]
    8aa2:	0c23      	lsrs	r3, r4, #16
    8aa4:	4463      	add	r3, ip
    8aa6:	429d      	cmp	r5, r3
    8aa8:	d904      	bls.n	8ab4 <__aeabi_dmul+0x224>
    8aaa:	9d02      	ldr	r5, [sp, #8]
    8aac:	2480      	movs	r4, #128	; 0x80
    8aae:	0264      	lsls	r4, r4, #9
    8ab0:	192d      	adds	r5, r5, r4
    8ab2:	9502      	str	r5, [sp, #8]
    8ab4:	0c1d      	lsrs	r5, r3, #16
    8ab6:	9503      	str	r5, [sp, #12]
    8ab8:	4645      	mov	r5, r8
    8aba:	042c      	lsls	r4, r5, #16
    8abc:	041b      	lsls	r3, r3, #16
    8abe:	0c24      	lsrs	r4, r4, #16
    8ac0:	191c      	adds	r4, r3, r4
    8ac2:	9405      	str	r4, [sp, #20]
    8ac4:	465c      	mov	r4, fp
    8ac6:	0c23      	lsrs	r3, r4, #16
    8ac8:	1c05      	adds	r5, r0, #0
    8aca:	4358      	muls	r0, r3
    8acc:	0424      	lsls	r4, r4, #16
    8ace:	0c24      	lsrs	r4, r4, #16
    8ad0:	4684      	mov	ip, r0
    8ad2:	1c38      	adds	r0, r7, #0
    8ad4:	4360      	muls	r0, r4
    8ad6:	4365      	muls	r5, r4
    8ad8:	435f      	muls	r7, r3
    8ada:	4681      	mov	r9, r0
    8adc:	44cc      	add	ip, r9
    8ade:	0c28      	lsrs	r0, r5, #16
    8ae0:	4460      	add	r0, ip
    8ae2:	46bb      	mov	fp, r7
    8ae4:	4581      	cmp	r9, r0
    8ae6:	d902      	bls.n	8aee <__aeabi_dmul+0x25e>
    8ae8:	2780      	movs	r7, #128	; 0x80
    8aea:	027f      	lsls	r7, r7, #9
    8aec:	44bb      	add	fp, r7
    8aee:	042d      	lsls	r5, r5, #16
    8af0:	0c07      	lsrs	r7, r0, #16
    8af2:	0c2d      	lsrs	r5, r5, #16
    8af4:	0400      	lsls	r0, r0, #16
    8af6:	1940      	adds	r0, r0, r5
    8af8:	4655      	mov	r5, sl
    8afa:	46bc      	mov	ip, r7
    8afc:	042f      	lsls	r7, r5, #16
    8afe:	44e3      	add	fp, ip
    8b00:	4684      	mov	ip, r0
    8b02:	0c28      	lsrs	r0, r5, #16
    8b04:	0c3d      	lsrs	r5, r7, #16
    8b06:	1c2f      	adds	r7, r5, #0
    8b08:	4357      	muls	r7, r2
    8b0a:	46b8      	mov	r8, r7
    8b0c:	1c2f      	adds	r7, r5, #0
    8b0e:	4377      	muls	r7, r6
    8b10:	4342      	muls	r2, r0
    8b12:	46b9      	mov	r9, r7
    8b14:	4647      	mov	r7, r8
    8b16:	0c3f      	lsrs	r7, r7, #16
    8b18:	4491      	add	r9, r2
    8b1a:	46ba      	mov	sl, r7
    8b1c:	44d1      	add	r9, sl
    8b1e:	4346      	muls	r6, r0
    8b20:	454a      	cmp	r2, r9
    8b22:	d902      	bls.n	8b2a <__aeabi_dmul+0x29a>
    8b24:	2280      	movs	r2, #128	; 0x80
    8b26:	0252      	lsls	r2, r2, #9
    8b28:	18b6      	adds	r6, r6, r2
    8b2a:	464f      	mov	r7, r9
    8b2c:	0c3a      	lsrs	r2, r7, #16
    8b2e:	18b6      	adds	r6, r6, r2
    8b30:	043a      	lsls	r2, r7, #16
    8b32:	4647      	mov	r7, r8
    8b34:	043f      	lsls	r7, r7, #16
    8b36:	0c3f      	lsrs	r7, r7, #16
    8b38:	46b8      	mov	r8, r7
    8b3a:	1c2f      	adds	r7, r5, #0
    8b3c:	4367      	muls	r7, r4
    8b3e:	435d      	muls	r5, r3
    8b40:	4344      	muls	r4, r0
    8b42:	4358      	muls	r0, r3
    8b44:	1965      	adds	r5, r4, r5
    8b46:	9001      	str	r0, [sp, #4]
    8b48:	0c38      	lsrs	r0, r7, #16
    8b4a:	182d      	adds	r5, r5, r0
    8b4c:	4442      	add	r2, r8
    8b4e:	46b8      	mov	r8, r7
    8b50:	42ac      	cmp	r4, r5
    8b52:	d904      	bls.n	8b5e <__aeabi_dmul+0x2ce>
    8b54:	9801      	ldr	r0, [sp, #4]
    8b56:	2380      	movs	r3, #128	; 0x80
    8b58:	025b      	lsls	r3, r3, #9
    8b5a:	18c0      	adds	r0, r0, r3
    8b5c:	9001      	str	r0, [sp, #4]
    8b5e:	9c03      	ldr	r4, [sp, #12]
    8b60:	9f02      	ldr	r7, [sp, #8]
    8b62:	1c20      	adds	r0, r4, #0
    8b64:	4460      	add	r0, ip
    8b66:	19c0      	adds	r0, r0, r7
    8b68:	4560      	cmp	r0, ip
    8b6a:	41a4      	sbcs	r4, r4
    8b6c:	4647      	mov	r7, r8
    8b6e:	4264      	negs	r4, r4
    8b70:	46a4      	mov	ip, r4
    8b72:	042b      	lsls	r3, r5, #16
    8b74:	043c      	lsls	r4, r7, #16
    8b76:	4699      	mov	r9, r3
    8b78:	0c24      	lsrs	r4, r4, #16
    8b7a:	444c      	add	r4, r9
    8b7c:	46a0      	mov	r8, r4
    8b7e:	44d8      	add	r8, fp
    8b80:	1880      	adds	r0, r0, r2
    8b82:	46c2      	mov	sl, r8
    8b84:	44e2      	add	sl, ip
    8b86:	4290      	cmp	r0, r2
    8b88:	4192      	sbcs	r2, r2
    8b8a:	4657      	mov	r7, sl
    8b8c:	4252      	negs	r2, r2
    8b8e:	4691      	mov	r9, r2
    8b90:	19f2      	adds	r2, r6, r7
    8b92:	45e2      	cmp	sl, ip
    8b94:	41bf      	sbcs	r7, r7
    8b96:	427f      	negs	r7, r7
    8b98:	464b      	mov	r3, r9
    8b9a:	46bc      	mov	ip, r7
    8b9c:	45d8      	cmp	r8, fp
    8b9e:	41bf      	sbcs	r7, r7
    8ba0:	18d4      	adds	r4, r2, r3
    8ba2:	427f      	negs	r7, r7
    8ba4:	4663      	mov	r3, ip
    8ba6:	431f      	orrs	r7, r3
    8ba8:	0c2d      	lsrs	r5, r5, #16
    8baa:	197f      	adds	r7, r7, r5
    8bac:	42b2      	cmp	r2, r6
    8bae:	4192      	sbcs	r2, r2
    8bb0:	454c      	cmp	r4, r9
    8bb2:	41ad      	sbcs	r5, r5
    8bb4:	4252      	negs	r2, r2
    8bb6:	426d      	negs	r5, r5
    8bb8:	4315      	orrs	r5, r2
    8bba:	9e01      	ldr	r6, [sp, #4]
    8bbc:	197d      	adds	r5, r7, r5
    8bbe:	19ab      	adds	r3, r5, r6
    8bc0:	0de2      	lsrs	r2, r4, #23
    8bc2:	025b      	lsls	r3, r3, #9
    8bc4:	9f05      	ldr	r7, [sp, #20]
    8bc6:	4313      	orrs	r3, r2
    8bc8:	0242      	lsls	r2, r0, #9
    8bca:	433a      	orrs	r2, r7
    8bcc:	469a      	mov	sl, r3
    8bce:	1e53      	subs	r3, r2, #1
    8bd0:	419a      	sbcs	r2, r3
    8bd2:	0dc3      	lsrs	r3, r0, #23
    8bd4:	1c10      	adds	r0, r2, #0
    8bd6:	4318      	orrs	r0, r3
    8bd8:	0264      	lsls	r4, r4, #9
    8bda:	4320      	orrs	r0, r4
    8bdc:	4680      	mov	r8, r0
    8bde:	4650      	mov	r0, sl
    8be0:	01c0      	lsls	r0, r0, #7
    8be2:	d50d      	bpl.n	8c00 <__aeabi_dmul+0x370>
    8be4:	4645      	mov	r5, r8
    8be6:	2201      	movs	r2, #1
    8be8:	4656      	mov	r6, sl
    8bea:	9c04      	ldr	r4, [sp, #16]
    8bec:	086b      	lsrs	r3, r5, #1
    8bee:	402a      	ands	r2, r5
    8bf0:	431a      	orrs	r2, r3
    8bf2:	07f3      	lsls	r3, r6, #31
    8bf4:	3401      	adds	r4, #1
    8bf6:	431a      	orrs	r2, r3
    8bf8:	0876      	lsrs	r6, r6, #1
    8bfa:	9404      	str	r4, [sp, #16]
    8bfc:	4690      	mov	r8, r2
    8bfe:	46b2      	mov	sl, r6
    8c00:	9e04      	ldr	r6, [sp, #16]
    8c02:	4f63      	ldr	r7, [pc, #396]	; (8d90 <__aeabi_dmul+0x500>)
    8c04:	19f3      	adds	r3, r6, r7
    8c06:	2b00      	cmp	r3, #0
    8c08:	dd61      	ble.n	8cce <__aeabi_dmul+0x43e>
    8c0a:	4640      	mov	r0, r8
    8c0c:	0740      	lsls	r0, r0, #29
    8c0e:	d00b      	beq.n	8c28 <__aeabi_dmul+0x398>
    8c10:	220f      	movs	r2, #15
    8c12:	4644      	mov	r4, r8
    8c14:	4022      	ands	r2, r4
    8c16:	2a04      	cmp	r2, #4
    8c18:	d006      	beq.n	8c28 <__aeabi_dmul+0x398>
    8c1a:	4642      	mov	r2, r8
    8c1c:	3204      	adds	r2, #4
    8c1e:	4542      	cmp	r2, r8
    8c20:	4180      	sbcs	r0, r0
    8c22:	4240      	negs	r0, r0
    8c24:	4482      	add	sl, r0
    8c26:	4690      	mov	r8, r2
    8c28:	4655      	mov	r5, sl
    8c2a:	01ed      	lsls	r5, r5, #7
    8c2c:	d507      	bpl.n	8c3e <__aeabi_dmul+0x3ae>
    8c2e:	4b59      	ldr	r3, [pc, #356]	; (8d94 <__aeabi_dmul+0x504>)
    8c30:	4656      	mov	r6, sl
    8c32:	9f04      	ldr	r7, [sp, #16]
    8c34:	2080      	movs	r0, #128	; 0x80
    8c36:	401e      	ands	r6, r3
    8c38:	00c0      	lsls	r0, r0, #3
    8c3a:	46b2      	mov	sl, r6
    8c3c:	183b      	adds	r3, r7, r0
    8c3e:	4a56      	ldr	r2, [pc, #344]	; (8d98 <__aeabi_dmul+0x508>)
    8c40:	4293      	cmp	r3, r2
    8c42:	dd00      	ble.n	8c46 <__aeabi_dmul+0x3b6>
    8c44:	e6ea      	b.n	8a1c <__aeabi_dmul+0x18c>
    8c46:	4644      	mov	r4, r8
    8c48:	4655      	mov	r5, sl
    8c4a:	08e2      	lsrs	r2, r4, #3
    8c4c:	0768      	lsls	r0, r5, #29
    8c4e:	4310      	orrs	r0, r2
    8c50:	2201      	movs	r2, #1
    8c52:	026c      	lsls	r4, r5, #9
    8c54:	055b      	lsls	r3, r3, #21
    8c56:	400a      	ands	r2, r1
    8c58:	4680      	mov	r8, r0
    8c5a:	0b24      	lsrs	r4, r4, #12
    8c5c:	0d5b      	lsrs	r3, r3, #21
    8c5e:	4691      	mov	r9, r2
    8c60:	e67b      	b.n	895a <__aeabi_dmul+0xca>
    8c62:	46da      	mov	sl, fp
    8c64:	4690      	mov	r8, r2
    8c66:	1c1d      	adds	r5, r3, #0
    8c68:	e669      	b.n	893e <__aeabi_dmul+0xae>
    8c6a:	2480      	movs	r4, #128	; 0x80
    8c6c:	0324      	lsls	r4, r4, #12
    8c6e:	4657      	mov	r7, sl
    8c70:	4227      	tst	r7, r4
    8c72:	d11c      	bne.n	8cae <__aeabi_dmul+0x41e>
    8c74:	433c      	orrs	r4, r7
    8c76:	0324      	lsls	r4, r4, #12
    8c78:	0b24      	lsrs	r4, r4, #12
    8c7a:	4b48      	ldr	r3, [pc, #288]	; (8d9c <__aeabi_dmul+0x50c>)
    8c7c:	e66d      	b.n	895a <__aeabi_dmul+0xca>
    8c7e:	1c03      	adds	r3, r0, #0
    8c80:	3b28      	subs	r3, #40	; 0x28
    8c82:	1c31      	adds	r1, r6, #0
    8c84:	4099      	lsls	r1, r3
    8c86:	468b      	mov	fp, r1
    8c88:	2200      	movs	r2, #0
    8c8a:	e6c3      	b.n	8a14 <__aeabi_dmul+0x184>
    8c8c:	1c30      	adds	r0, r6, #0
    8c8e:	f000 fd47 	bl	9720 <__clzsi2>
    8c92:	3020      	adds	r0, #32
    8c94:	e6ad      	b.n	89f2 <__aeabi_dmul+0x162>
    8c96:	3b28      	subs	r3, #40	; 0x28
    8c98:	1c21      	adds	r1, r4, #0
    8c9a:	4099      	lsls	r1, r3
    8c9c:	2200      	movs	r2, #0
    8c9e:	468a      	mov	sl, r1
    8ca0:	4690      	mov	r8, r2
    8ca2:	e68e      	b.n	89c2 <__aeabi_dmul+0x132>
    8ca4:	1c20      	adds	r0, r4, #0
    8ca6:	f000 fd3b 	bl	9720 <__clzsi2>
    8caa:	3020      	adds	r0, #32
    8cac:	e678      	b.n	89a0 <__aeabi_dmul+0x110>
    8cae:	4658      	mov	r0, fp
    8cb0:	4220      	tst	r0, r4
    8cb2:	d107      	bne.n	8cc4 <__aeabi_dmul+0x434>
    8cb4:	4304      	orrs	r4, r0
    8cb6:	9903      	ldr	r1, [sp, #12]
    8cb8:	0324      	lsls	r4, r4, #12
    8cba:	0b24      	lsrs	r4, r4, #12
    8cbc:	4689      	mov	r9, r1
    8cbe:	4690      	mov	r8, r2
    8cc0:	4b36      	ldr	r3, [pc, #216]	; (8d9c <__aeabi_dmul+0x50c>)
    8cc2:	e64a      	b.n	895a <__aeabi_dmul+0xca>
    8cc4:	433c      	orrs	r4, r7
    8cc6:	0324      	lsls	r4, r4, #12
    8cc8:	0b24      	lsrs	r4, r4, #12
    8cca:	4b34      	ldr	r3, [pc, #208]	; (8d9c <__aeabi_dmul+0x50c>)
    8ccc:	e645      	b.n	895a <__aeabi_dmul+0xca>
    8cce:	4b34      	ldr	r3, [pc, #208]	; (8da0 <__aeabi_dmul+0x510>)
    8cd0:	9e04      	ldr	r6, [sp, #16]
    8cd2:	1b9b      	subs	r3, r3, r6
    8cd4:	2b38      	cmp	r3, #56	; 0x38
    8cd6:	dd06      	ble.n	8ce6 <__aeabi_dmul+0x456>
    8cd8:	2301      	movs	r3, #1
    8cda:	400b      	ands	r3, r1
    8cdc:	2400      	movs	r4, #0
    8cde:	4699      	mov	r9, r3
    8ce0:	46a0      	mov	r8, r4
    8ce2:	2300      	movs	r3, #0
    8ce4:	e639      	b.n	895a <__aeabi_dmul+0xca>
    8ce6:	2b1f      	cmp	r3, #31
    8ce8:	dc25      	bgt.n	8d36 <__aeabi_dmul+0x4a6>
    8cea:	9c04      	ldr	r4, [sp, #16]
    8cec:	4d2d      	ldr	r5, [pc, #180]	; (8da4 <__aeabi_dmul+0x514>)
    8cee:	4646      	mov	r6, r8
    8cf0:	1960      	adds	r0, r4, r5
    8cf2:	4652      	mov	r2, sl
    8cf4:	4644      	mov	r4, r8
    8cf6:	4086      	lsls	r6, r0
    8cf8:	40dc      	lsrs	r4, r3
    8cfa:	4082      	lsls	r2, r0
    8cfc:	4657      	mov	r7, sl
    8cfe:	1c30      	adds	r0, r6, #0
    8d00:	4322      	orrs	r2, r4
    8d02:	40df      	lsrs	r7, r3
    8d04:	1e44      	subs	r4, r0, #1
    8d06:	41a0      	sbcs	r0, r4
    8d08:	4302      	orrs	r2, r0
    8d0a:	1c3b      	adds	r3, r7, #0
    8d0c:	0754      	lsls	r4, r2, #29
    8d0e:	d009      	beq.n	8d24 <__aeabi_dmul+0x494>
    8d10:	200f      	movs	r0, #15
    8d12:	4010      	ands	r0, r2
    8d14:	2804      	cmp	r0, #4
    8d16:	d005      	beq.n	8d24 <__aeabi_dmul+0x494>
    8d18:	1d10      	adds	r0, r2, #4
    8d1a:	4290      	cmp	r0, r2
    8d1c:	4192      	sbcs	r2, r2
    8d1e:	4252      	negs	r2, r2
    8d20:	189b      	adds	r3, r3, r2
    8d22:	1c02      	adds	r2, r0, #0
    8d24:	021d      	lsls	r5, r3, #8
    8d26:	d51a      	bpl.n	8d5e <__aeabi_dmul+0x4ce>
    8d28:	2301      	movs	r3, #1
    8d2a:	400b      	ands	r3, r1
    8d2c:	2400      	movs	r4, #0
    8d2e:	4699      	mov	r9, r3
    8d30:	46a0      	mov	r8, r4
    8d32:	2301      	movs	r3, #1
    8d34:	e611      	b.n	895a <__aeabi_dmul+0xca>
    8d36:	481c      	ldr	r0, [pc, #112]	; (8da8 <__aeabi_dmul+0x518>)
    8d38:	9c04      	ldr	r4, [sp, #16]
    8d3a:	4655      	mov	r5, sl
    8d3c:	1b00      	subs	r0, r0, r4
    8d3e:	40c5      	lsrs	r5, r0
    8d40:	1c28      	adds	r0, r5, #0
    8d42:	2b20      	cmp	r3, #32
    8d44:	d016      	beq.n	8d74 <__aeabi_dmul+0x4e4>
    8d46:	4e19      	ldr	r6, [pc, #100]	; (8dac <__aeabi_dmul+0x51c>)
    8d48:	4657      	mov	r7, sl
    8d4a:	19a2      	adds	r2, r4, r6
    8d4c:	4097      	lsls	r7, r2
    8d4e:	1c3a      	adds	r2, r7, #0
    8d50:	4643      	mov	r3, r8
    8d52:	431a      	orrs	r2, r3
    8d54:	1e53      	subs	r3, r2, #1
    8d56:	419a      	sbcs	r2, r3
    8d58:	4302      	orrs	r2, r0
    8d5a:	2300      	movs	r3, #0
    8d5c:	e7d6      	b.n	8d0c <__aeabi_dmul+0x47c>
    8d5e:	0758      	lsls	r0, r3, #29
    8d60:	025b      	lsls	r3, r3, #9
    8d62:	08d2      	lsrs	r2, r2, #3
    8d64:	0b1c      	lsrs	r4, r3, #12
    8d66:	2301      	movs	r3, #1
    8d68:	400b      	ands	r3, r1
    8d6a:	4310      	orrs	r0, r2
    8d6c:	4699      	mov	r9, r3
    8d6e:	4680      	mov	r8, r0
    8d70:	2300      	movs	r3, #0
    8d72:	e5f2      	b.n	895a <__aeabi_dmul+0xca>
    8d74:	2200      	movs	r2, #0
    8d76:	e7eb      	b.n	8d50 <__aeabi_dmul+0x4c0>
    8d78:	2480      	movs	r4, #128	; 0x80
    8d7a:	0324      	lsls	r4, r4, #12
    8d7c:	4650      	mov	r0, sl
    8d7e:	2301      	movs	r3, #1
    8d80:	4304      	orrs	r4, r0
    8d82:	4019      	ands	r1, r3
    8d84:	0324      	lsls	r4, r4, #12
    8d86:	0b24      	lsrs	r4, r4, #12
    8d88:	4689      	mov	r9, r1
    8d8a:	4b04      	ldr	r3, [pc, #16]	; (8d9c <__aeabi_dmul+0x50c>)
    8d8c:	e5e5      	b.n	895a <__aeabi_dmul+0xca>
    8d8e:	46c0      	nop			; (mov r8, r8)
    8d90:	000003ff 	.word	0x000003ff
    8d94:	feffffff 	.word	0xfeffffff
    8d98:	000007fe 	.word	0x000007fe
    8d9c:	000007ff 	.word	0x000007ff
    8da0:	fffffc02 	.word	0xfffffc02
    8da4:	0000041e 	.word	0x0000041e
    8da8:	fffffbe2 	.word	0xfffffbe2
    8dac:	0000043e 	.word	0x0000043e

00008db0 <__aeabi_dsub>:
    8db0:	b5f8      	push	{r3, r4, r5, r6, r7, lr}
    8db2:	465f      	mov	r7, fp
    8db4:	4656      	mov	r6, sl
    8db6:	4644      	mov	r4, r8
    8db8:	464d      	mov	r5, r9
    8dba:	b4f0      	push	{r4, r5, r6, r7}
    8dbc:	030c      	lsls	r4, r1, #12
    8dbe:	004d      	lsls	r5, r1, #1
    8dc0:	0fcf      	lsrs	r7, r1, #31
    8dc2:	0a61      	lsrs	r1, r4, #9
    8dc4:	0f44      	lsrs	r4, r0, #29
    8dc6:	4321      	orrs	r1, r4
    8dc8:	00c4      	lsls	r4, r0, #3
    8dca:	0318      	lsls	r0, r3, #12
    8dcc:	0fde      	lsrs	r6, r3, #31
    8dce:	4680      	mov	r8, r0
    8dd0:	46b4      	mov	ip, r6
    8dd2:	4646      	mov	r6, r8
    8dd4:	0058      	lsls	r0, r3, #1
    8dd6:	0a76      	lsrs	r6, r6, #9
    8dd8:	0f53      	lsrs	r3, r2, #29
    8dda:	4333      	orrs	r3, r6
    8ddc:	00d6      	lsls	r6, r2, #3
    8dde:	4ad1      	ldr	r2, [pc, #836]	; (9124 <__aeabi_dsub+0x374>)
    8de0:	0d6d      	lsrs	r5, r5, #21
    8de2:	46ba      	mov	sl, r7
    8de4:	0d40      	lsrs	r0, r0, #21
    8de6:	46b3      	mov	fp, r6
    8de8:	4290      	cmp	r0, r2
    8dea:	d100      	bne.n	8dee <__aeabi_dsub+0x3e>
    8dec:	e0f5      	b.n	8fda <__aeabi_dsub+0x22a>
    8dee:	4662      	mov	r2, ip
    8df0:	2601      	movs	r6, #1
    8df2:	4072      	eors	r2, r6
    8df4:	4694      	mov	ip, r2
    8df6:	4567      	cmp	r7, ip
    8df8:	d100      	bne.n	8dfc <__aeabi_dsub+0x4c>
    8dfa:	e0ab      	b.n	8f54 <__aeabi_dsub+0x1a4>
    8dfc:	1a2f      	subs	r7, r5, r0
    8dfe:	2f00      	cmp	r7, #0
    8e00:	dc00      	bgt.n	8e04 <__aeabi_dsub+0x54>
    8e02:	e111      	b.n	9028 <__aeabi_dsub+0x278>
    8e04:	2800      	cmp	r0, #0
    8e06:	d13e      	bne.n	8e86 <__aeabi_dsub+0xd6>
    8e08:	4658      	mov	r0, fp
    8e0a:	4318      	orrs	r0, r3
    8e0c:	d000      	beq.n	8e10 <__aeabi_dsub+0x60>
    8e0e:	e0f1      	b.n	8ff4 <__aeabi_dsub+0x244>
    8e10:	0760      	lsls	r0, r4, #29
    8e12:	d100      	bne.n	8e16 <__aeabi_dsub+0x66>
    8e14:	e097      	b.n	8f46 <__aeabi_dsub+0x196>
    8e16:	230f      	movs	r3, #15
    8e18:	4023      	ands	r3, r4
    8e1a:	2b04      	cmp	r3, #4
    8e1c:	d100      	bne.n	8e20 <__aeabi_dsub+0x70>
    8e1e:	e122      	b.n	9066 <__aeabi_dsub+0x2b6>
    8e20:	1d22      	adds	r2, r4, #4
    8e22:	42a2      	cmp	r2, r4
    8e24:	41a4      	sbcs	r4, r4
    8e26:	4264      	negs	r4, r4
    8e28:	2380      	movs	r3, #128	; 0x80
    8e2a:	1909      	adds	r1, r1, r4
    8e2c:	041b      	lsls	r3, r3, #16
    8e2e:	2701      	movs	r7, #1
    8e30:	4650      	mov	r0, sl
    8e32:	400b      	ands	r3, r1
    8e34:	4007      	ands	r7, r0
    8e36:	1c14      	adds	r4, r2, #0
    8e38:	2b00      	cmp	r3, #0
    8e3a:	d100      	bne.n	8e3e <__aeabi_dsub+0x8e>
    8e3c:	e079      	b.n	8f32 <__aeabi_dsub+0x182>
    8e3e:	4bb9      	ldr	r3, [pc, #740]	; (9124 <__aeabi_dsub+0x374>)
    8e40:	3501      	adds	r5, #1
    8e42:	429d      	cmp	r5, r3
    8e44:	d100      	bne.n	8e48 <__aeabi_dsub+0x98>
    8e46:	e10b      	b.n	9060 <__aeabi_dsub+0x2b0>
    8e48:	4bb7      	ldr	r3, [pc, #732]	; (9128 <__aeabi_dsub+0x378>)
    8e4a:	08e4      	lsrs	r4, r4, #3
    8e4c:	4019      	ands	r1, r3
    8e4e:	0748      	lsls	r0, r1, #29
    8e50:	0249      	lsls	r1, r1, #9
    8e52:	4304      	orrs	r4, r0
    8e54:	0b0b      	lsrs	r3, r1, #12
    8e56:	2000      	movs	r0, #0
    8e58:	2100      	movs	r1, #0
    8e5a:	031b      	lsls	r3, r3, #12
    8e5c:	0b1a      	lsrs	r2, r3, #12
    8e5e:	0d0b      	lsrs	r3, r1, #20
    8e60:	056d      	lsls	r5, r5, #21
    8e62:	051b      	lsls	r3, r3, #20
    8e64:	4313      	orrs	r3, r2
    8e66:	086a      	lsrs	r2, r5, #1
    8e68:	4db0      	ldr	r5, [pc, #704]	; (912c <__aeabi_dsub+0x37c>)
    8e6a:	07ff      	lsls	r7, r7, #31
    8e6c:	401d      	ands	r5, r3
    8e6e:	4315      	orrs	r5, r2
    8e70:	006d      	lsls	r5, r5, #1
    8e72:	086d      	lsrs	r5, r5, #1
    8e74:	1c29      	adds	r1, r5, #0
    8e76:	4339      	orrs	r1, r7
    8e78:	1c20      	adds	r0, r4, #0
    8e7a:	bc3c      	pop	{r2, r3, r4, r5}
    8e7c:	4690      	mov	r8, r2
    8e7e:	4699      	mov	r9, r3
    8e80:	46a2      	mov	sl, r4
    8e82:	46ab      	mov	fp, r5
    8e84:	bdf8      	pop	{r3, r4, r5, r6, r7, pc}
    8e86:	48a7      	ldr	r0, [pc, #668]	; (9124 <__aeabi_dsub+0x374>)
    8e88:	4285      	cmp	r5, r0
    8e8a:	d0c1      	beq.n	8e10 <__aeabi_dsub+0x60>
    8e8c:	2080      	movs	r0, #128	; 0x80
    8e8e:	0400      	lsls	r0, r0, #16
    8e90:	4303      	orrs	r3, r0
    8e92:	2f38      	cmp	r7, #56	; 0x38
    8e94:	dd00      	ble.n	8e98 <__aeabi_dsub+0xe8>
    8e96:	e0fd      	b.n	9094 <__aeabi_dsub+0x2e4>
    8e98:	2f1f      	cmp	r7, #31
    8e9a:	dd00      	ble.n	8e9e <__aeabi_dsub+0xee>
    8e9c:	e131      	b.n	9102 <__aeabi_dsub+0x352>
    8e9e:	2020      	movs	r0, #32
    8ea0:	1bc0      	subs	r0, r0, r7
    8ea2:	1c1a      	adds	r2, r3, #0
    8ea4:	465e      	mov	r6, fp
    8ea6:	4082      	lsls	r2, r0
    8ea8:	40fe      	lsrs	r6, r7
    8eaa:	4332      	orrs	r2, r6
    8eac:	4694      	mov	ip, r2
    8eae:	465a      	mov	r2, fp
    8eb0:	4082      	lsls	r2, r0
    8eb2:	1c10      	adds	r0, r2, #0
    8eb4:	1e42      	subs	r2, r0, #1
    8eb6:	4190      	sbcs	r0, r2
    8eb8:	40fb      	lsrs	r3, r7
    8eba:	4662      	mov	r2, ip
    8ebc:	4302      	orrs	r2, r0
    8ebe:	1c1f      	adds	r7, r3, #0
    8ec0:	1aa2      	subs	r2, r4, r2
    8ec2:	4294      	cmp	r4, r2
    8ec4:	41a4      	sbcs	r4, r4
    8ec6:	4264      	negs	r4, r4
    8ec8:	1bc9      	subs	r1, r1, r7
    8eca:	1b09      	subs	r1, r1, r4
    8ecc:	1c14      	adds	r4, r2, #0
    8ece:	020a      	lsls	r2, r1, #8
    8ed0:	d59e      	bpl.n	8e10 <__aeabi_dsub+0x60>
    8ed2:	0249      	lsls	r1, r1, #9
    8ed4:	0a4f      	lsrs	r7, r1, #9
    8ed6:	2f00      	cmp	r7, #0
    8ed8:	d100      	bne.n	8edc <__aeabi_dsub+0x12c>
    8eda:	e0d6      	b.n	908a <__aeabi_dsub+0x2da>
    8edc:	1c38      	adds	r0, r7, #0
    8ede:	f000 fc1f 	bl	9720 <__clzsi2>
    8ee2:	1c02      	adds	r2, r0, #0
    8ee4:	3a08      	subs	r2, #8
    8ee6:	2a1f      	cmp	r2, #31
    8ee8:	dd00      	ble.n	8eec <__aeabi_dsub+0x13c>
    8eea:	e0c3      	b.n	9074 <__aeabi_dsub+0x2c4>
    8eec:	2128      	movs	r1, #40	; 0x28
    8eee:	1c23      	adds	r3, r4, #0
    8ef0:	1a09      	subs	r1, r1, r0
    8ef2:	4097      	lsls	r7, r2
    8ef4:	40cb      	lsrs	r3, r1
    8ef6:	431f      	orrs	r7, r3
    8ef8:	4094      	lsls	r4, r2
    8efa:	4295      	cmp	r5, r2
    8efc:	dd00      	ble.n	8f00 <__aeabi_dsub+0x150>
    8efe:	e0c0      	b.n	9082 <__aeabi_dsub+0x2d2>
    8f00:	1b55      	subs	r5, r2, r5
    8f02:	1c69      	adds	r1, r5, #1
    8f04:	291f      	cmp	r1, #31
    8f06:	dd00      	ble.n	8f0a <__aeabi_dsub+0x15a>
    8f08:	e0ea      	b.n	90e0 <__aeabi_dsub+0x330>
    8f0a:	221f      	movs	r2, #31
    8f0c:	1b55      	subs	r5, r2, r5
    8f0e:	1c3b      	adds	r3, r7, #0
    8f10:	1c22      	adds	r2, r4, #0
    8f12:	40ab      	lsls	r3, r5
    8f14:	40ca      	lsrs	r2, r1
    8f16:	40ac      	lsls	r4, r5
    8f18:	1e65      	subs	r5, r4, #1
    8f1a:	41ac      	sbcs	r4, r5
    8f1c:	4313      	orrs	r3, r2
    8f1e:	40cf      	lsrs	r7, r1
    8f20:	431c      	orrs	r4, r3
    8f22:	1c39      	adds	r1, r7, #0
    8f24:	2500      	movs	r5, #0
    8f26:	e773      	b.n	8e10 <__aeabi_dsub+0x60>
    8f28:	2180      	movs	r1, #128	; 0x80
    8f2a:	4d7e      	ldr	r5, [pc, #504]	; (9124 <__aeabi_dsub+0x374>)
    8f2c:	2700      	movs	r7, #0
    8f2e:	03c9      	lsls	r1, r1, #15
    8f30:	2400      	movs	r4, #0
    8f32:	4b7c      	ldr	r3, [pc, #496]	; (9124 <__aeabi_dsub+0x374>)
    8f34:	0748      	lsls	r0, r1, #29
    8f36:	08e4      	lsrs	r4, r4, #3
    8f38:	4304      	orrs	r4, r0
    8f3a:	08c9      	lsrs	r1, r1, #3
    8f3c:	429d      	cmp	r5, r3
    8f3e:	d050      	beq.n	8fe2 <__aeabi_dsub+0x232>
    8f40:	0309      	lsls	r1, r1, #12
    8f42:	0b0b      	lsrs	r3, r1, #12
    8f44:	e787      	b.n	8e56 <__aeabi_dsub+0xa6>
    8f46:	2380      	movs	r3, #128	; 0x80
    8f48:	041b      	lsls	r3, r3, #16
    8f4a:	2701      	movs	r7, #1
    8f4c:	4652      	mov	r2, sl
    8f4e:	400b      	ands	r3, r1
    8f50:	4017      	ands	r7, r2
    8f52:	e771      	b.n	8e38 <__aeabi_dsub+0x88>
    8f54:	1a2a      	subs	r2, r5, r0
    8f56:	4694      	mov	ip, r2
    8f58:	2a00      	cmp	r2, #0
    8f5a:	dc00      	bgt.n	8f5e <__aeabi_dsub+0x1ae>
    8f5c:	e0a1      	b.n	90a2 <__aeabi_dsub+0x2f2>
    8f5e:	2800      	cmp	r0, #0
    8f60:	d054      	beq.n	900c <__aeabi_dsub+0x25c>
    8f62:	4870      	ldr	r0, [pc, #448]	; (9124 <__aeabi_dsub+0x374>)
    8f64:	4285      	cmp	r5, r0
    8f66:	d100      	bne.n	8f6a <__aeabi_dsub+0x1ba>
    8f68:	e752      	b.n	8e10 <__aeabi_dsub+0x60>
    8f6a:	2080      	movs	r0, #128	; 0x80
    8f6c:	0400      	lsls	r0, r0, #16
    8f6e:	4303      	orrs	r3, r0
    8f70:	4660      	mov	r0, ip
    8f72:	2838      	cmp	r0, #56	; 0x38
    8f74:	dd00      	ble.n	8f78 <__aeabi_dsub+0x1c8>
    8f76:	e10e      	b.n	9196 <__aeabi_dsub+0x3e6>
    8f78:	281f      	cmp	r0, #31
    8f7a:	dd00      	ble.n	8f7e <__aeabi_dsub+0x1ce>
    8f7c:	e157      	b.n	922e <__aeabi_dsub+0x47e>
    8f7e:	4662      	mov	r2, ip
    8f80:	2020      	movs	r0, #32
    8f82:	1a80      	subs	r0, r0, r2
    8f84:	1c1e      	adds	r6, r3, #0
    8f86:	4086      	lsls	r6, r0
    8f88:	46b1      	mov	r9, r6
    8f8a:	465e      	mov	r6, fp
    8f8c:	40d6      	lsrs	r6, r2
    8f8e:	464a      	mov	r2, r9
    8f90:	4332      	orrs	r2, r6
    8f92:	465e      	mov	r6, fp
    8f94:	4086      	lsls	r6, r0
    8f96:	4690      	mov	r8, r2
    8f98:	1c30      	adds	r0, r6, #0
    8f9a:	1e42      	subs	r2, r0, #1
    8f9c:	4190      	sbcs	r0, r2
    8f9e:	4642      	mov	r2, r8
    8fa0:	4302      	orrs	r2, r0
    8fa2:	4660      	mov	r0, ip
    8fa4:	40c3      	lsrs	r3, r0
    8fa6:	1912      	adds	r2, r2, r4
    8fa8:	42a2      	cmp	r2, r4
    8faa:	41a4      	sbcs	r4, r4
    8fac:	4264      	negs	r4, r4
    8fae:	1859      	adds	r1, r3, r1
    8fb0:	1909      	adds	r1, r1, r4
    8fb2:	1c14      	adds	r4, r2, #0
    8fb4:	0208      	lsls	r0, r1, #8
    8fb6:	d400      	bmi.n	8fba <__aeabi_dsub+0x20a>
    8fb8:	e72a      	b.n	8e10 <__aeabi_dsub+0x60>
    8fba:	4b5a      	ldr	r3, [pc, #360]	; (9124 <__aeabi_dsub+0x374>)
    8fbc:	3501      	adds	r5, #1
    8fbe:	429d      	cmp	r5, r3
    8fc0:	d100      	bne.n	8fc4 <__aeabi_dsub+0x214>
    8fc2:	e131      	b.n	9228 <__aeabi_dsub+0x478>
    8fc4:	4b58      	ldr	r3, [pc, #352]	; (9128 <__aeabi_dsub+0x378>)
    8fc6:	0860      	lsrs	r0, r4, #1
    8fc8:	4019      	ands	r1, r3
    8fca:	2301      	movs	r3, #1
    8fcc:	4023      	ands	r3, r4
    8fce:	1c1c      	adds	r4, r3, #0
    8fd0:	4304      	orrs	r4, r0
    8fd2:	07cb      	lsls	r3, r1, #31
    8fd4:	431c      	orrs	r4, r3
    8fd6:	0849      	lsrs	r1, r1, #1
    8fd8:	e71a      	b.n	8e10 <__aeabi_dsub+0x60>
    8fda:	431e      	orrs	r6, r3
    8fdc:	d000      	beq.n	8fe0 <__aeabi_dsub+0x230>
    8fde:	e70a      	b.n	8df6 <__aeabi_dsub+0x46>
    8fe0:	e705      	b.n	8dee <__aeabi_dsub+0x3e>
    8fe2:	1c23      	adds	r3, r4, #0
    8fe4:	430b      	orrs	r3, r1
    8fe6:	d03b      	beq.n	9060 <__aeabi_dsub+0x2b0>
    8fe8:	2380      	movs	r3, #128	; 0x80
    8fea:	031b      	lsls	r3, r3, #12
    8fec:	430b      	orrs	r3, r1
    8fee:	031b      	lsls	r3, r3, #12
    8ff0:	0b1b      	lsrs	r3, r3, #12
    8ff2:	e730      	b.n	8e56 <__aeabi_dsub+0xa6>
    8ff4:	3f01      	subs	r7, #1
    8ff6:	2f00      	cmp	r7, #0
    8ff8:	d16d      	bne.n	90d6 <__aeabi_dsub+0x326>
    8ffa:	465e      	mov	r6, fp
    8ffc:	1ba2      	subs	r2, r4, r6
    8ffe:	4294      	cmp	r4, r2
    9000:	41a4      	sbcs	r4, r4
    9002:	4264      	negs	r4, r4
    9004:	1ac9      	subs	r1, r1, r3
    9006:	1b09      	subs	r1, r1, r4
    9008:	1c14      	adds	r4, r2, #0
    900a:	e760      	b.n	8ece <__aeabi_dsub+0x11e>
    900c:	4658      	mov	r0, fp
    900e:	4318      	orrs	r0, r3
    9010:	d100      	bne.n	9014 <__aeabi_dsub+0x264>
    9012:	e6fd      	b.n	8e10 <__aeabi_dsub+0x60>
    9014:	2601      	movs	r6, #1
    9016:	4276      	negs	r6, r6
    9018:	44b4      	add	ip, r6
    901a:	4660      	mov	r0, ip
    901c:	2800      	cmp	r0, #0
    901e:	d000      	beq.n	9022 <__aeabi_dsub+0x272>
    9020:	e0d0      	b.n	91c4 <__aeabi_dsub+0x414>
    9022:	465e      	mov	r6, fp
    9024:	1932      	adds	r2, r6, r4
    9026:	e7bf      	b.n	8fa8 <__aeabi_dsub+0x1f8>
    9028:	2f00      	cmp	r7, #0
    902a:	d000      	beq.n	902e <__aeabi_dsub+0x27e>
    902c:	e080      	b.n	9130 <__aeabi_dsub+0x380>
    902e:	1c68      	adds	r0, r5, #1
    9030:	0540      	lsls	r0, r0, #21
    9032:	0d40      	lsrs	r0, r0, #21
    9034:	2801      	cmp	r0, #1
    9036:	dc00      	bgt.n	903a <__aeabi_dsub+0x28a>
    9038:	e0e8      	b.n	920c <__aeabi_dsub+0x45c>
    903a:	465a      	mov	r2, fp
    903c:	1aa2      	subs	r2, r4, r2
    903e:	4294      	cmp	r4, r2
    9040:	41bf      	sbcs	r7, r7
    9042:	1ac8      	subs	r0, r1, r3
    9044:	427f      	negs	r7, r7
    9046:	1bc7      	subs	r7, r0, r7
    9048:	023e      	lsls	r6, r7, #8
    904a:	d400      	bmi.n	904e <__aeabi_dsub+0x29e>
    904c:	e098      	b.n	9180 <__aeabi_dsub+0x3d0>
    904e:	4658      	mov	r0, fp
    9050:	1b04      	subs	r4, r0, r4
    9052:	45a3      	cmp	fp, r4
    9054:	4192      	sbcs	r2, r2
    9056:	1a59      	subs	r1, r3, r1
    9058:	4252      	negs	r2, r2
    905a:	1a8f      	subs	r7, r1, r2
    905c:	46e2      	mov	sl, ip
    905e:	e73a      	b.n	8ed6 <__aeabi_dsub+0x126>
    9060:	2300      	movs	r3, #0
    9062:	2400      	movs	r4, #0
    9064:	e6f7      	b.n	8e56 <__aeabi_dsub+0xa6>
    9066:	2380      	movs	r3, #128	; 0x80
    9068:	041b      	lsls	r3, r3, #16
    906a:	2701      	movs	r7, #1
    906c:	4656      	mov	r6, sl
    906e:	400b      	ands	r3, r1
    9070:	4037      	ands	r7, r6
    9072:	e6e1      	b.n	8e38 <__aeabi_dsub+0x88>
    9074:	1c27      	adds	r7, r4, #0
    9076:	3828      	subs	r0, #40	; 0x28
    9078:	4087      	lsls	r7, r0
    907a:	2400      	movs	r4, #0
    907c:	4295      	cmp	r5, r2
    907e:	dc00      	bgt.n	9082 <__aeabi_dsub+0x2d2>
    9080:	e73e      	b.n	8f00 <__aeabi_dsub+0x150>
    9082:	4929      	ldr	r1, [pc, #164]	; (9128 <__aeabi_dsub+0x378>)
    9084:	1aad      	subs	r5, r5, r2
    9086:	4039      	ands	r1, r7
    9088:	e6c2      	b.n	8e10 <__aeabi_dsub+0x60>
    908a:	1c20      	adds	r0, r4, #0
    908c:	f000 fb48 	bl	9720 <__clzsi2>
    9090:	3020      	adds	r0, #32
    9092:	e726      	b.n	8ee2 <__aeabi_dsub+0x132>
    9094:	465a      	mov	r2, fp
    9096:	431a      	orrs	r2, r3
    9098:	1e53      	subs	r3, r2, #1
    909a:	419a      	sbcs	r2, r3
    909c:	b2d2      	uxtb	r2, r2
    909e:	2700      	movs	r7, #0
    90a0:	e70e      	b.n	8ec0 <__aeabi_dsub+0x110>
    90a2:	2a00      	cmp	r2, #0
    90a4:	d000      	beq.n	90a8 <__aeabi_dsub+0x2f8>
    90a6:	e0de      	b.n	9266 <__aeabi_dsub+0x4b6>
    90a8:	1c68      	adds	r0, r5, #1
    90aa:	0546      	lsls	r6, r0, #21
    90ac:	0d76      	lsrs	r6, r6, #21
    90ae:	2e01      	cmp	r6, #1
    90b0:	dc00      	bgt.n	90b4 <__aeabi_dsub+0x304>
    90b2:	e090      	b.n	91d6 <__aeabi_dsub+0x426>
    90b4:	4d1b      	ldr	r5, [pc, #108]	; (9124 <__aeabi_dsub+0x374>)
    90b6:	42a8      	cmp	r0, r5
    90b8:	d100      	bne.n	90bc <__aeabi_dsub+0x30c>
    90ba:	e0f5      	b.n	92a8 <__aeabi_dsub+0x4f8>
    90bc:	465e      	mov	r6, fp
    90be:	1932      	adds	r2, r6, r4
    90c0:	42a2      	cmp	r2, r4
    90c2:	41a4      	sbcs	r4, r4
    90c4:	4264      	negs	r4, r4
    90c6:	1859      	adds	r1, r3, r1
    90c8:	1909      	adds	r1, r1, r4
    90ca:	07cc      	lsls	r4, r1, #31
    90cc:	0852      	lsrs	r2, r2, #1
    90ce:	4314      	orrs	r4, r2
    90d0:	0849      	lsrs	r1, r1, #1
    90d2:	1c05      	adds	r5, r0, #0
    90d4:	e69c      	b.n	8e10 <__aeabi_dsub+0x60>
    90d6:	4813      	ldr	r0, [pc, #76]	; (9124 <__aeabi_dsub+0x374>)
    90d8:	4285      	cmp	r5, r0
    90da:	d000      	beq.n	90de <__aeabi_dsub+0x32e>
    90dc:	e6d9      	b.n	8e92 <__aeabi_dsub+0xe2>
    90de:	e697      	b.n	8e10 <__aeabi_dsub+0x60>
    90e0:	1c2b      	adds	r3, r5, #0
    90e2:	3b1f      	subs	r3, #31
    90e4:	1c3e      	adds	r6, r7, #0
    90e6:	40de      	lsrs	r6, r3
    90e8:	1c33      	adds	r3, r6, #0
    90ea:	2920      	cmp	r1, #32
    90ec:	d06f      	beq.n	91ce <__aeabi_dsub+0x41e>
    90ee:	223f      	movs	r2, #63	; 0x3f
    90f0:	1b55      	subs	r5, r2, r5
    90f2:	40af      	lsls	r7, r5
    90f4:	433c      	orrs	r4, r7
    90f6:	1e60      	subs	r0, r4, #1
    90f8:	4184      	sbcs	r4, r0
    90fa:	431c      	orrs	r4, r3
    90fc:	2100      	movs	r1, #0
    90fe:	2500      	movs	r5, #0
    9100:	e686      	b.n	8e10 <__aeabi_dsub+0x60>
    9102:	1c38      	adds	r0, r7, #0
    9104:	3820      	subs	r0, #32
    9106:	1c1e      	adds	r6, r3, #0
    9108:	40c6      	lsrs	r6, r0
    910a:	1c30      	adds	r0, r6, #0
    910c:	2f20      	cmp	r7, #32
    910e:	d060      	beq.n	91d2 <__aeabi_dsub+0x422>
    9110:	2240      	movs	r2, #64	; 0x40
    9112:	1bd7      	subs	r7, r2, r7
    9114:	40bb      	lsls	r3, r7
    9116:	465a      	mov	r2, fp
    9118:	431a      	orrs	r2, r3
    911a:	1e53      	subs	r3, r2, #1
    911c:	419a      	sbcs	r2, r3
    911e:	4302      	orrs	r2, r0
    9120:	2700      	movs	r7, #0
    9122:	e6cd      	b.n	8ec0 <__aeabi_dsub+0x110>
    9124:	000007ff 	.word	0x000007ff
    9128:	ff7fffff 	.word	0xff7fffff
    912c:	800fffff 	.word	0x800fffff
    9130:	2d00      	cmp	r5, #0
    9132:	d037      	beq.n	91a4 <__aeabi_dsub+0x3f4>
    9134:	4db6      	ldr	r5, [pc, #728]	; (9410 <__aeabi_dsub+0x660>)
    9136:	42a8      	cmp	r0, r5
    9138:	d100      	bne.n	913c <__aeabi_dsub+0x38c>
    913a:	e08f      	b.n	925c <__aeabi_dsub+0x4ac>
    913c:	2580      	movs	r5, #128	; 0x80
    913e:	042d      	lsls	r5, r5, #16
    9140:	427f      	negs	r7, r7
    9142:	4329      	orrs	r1, r5
    9144:	2f38      	cmp	r7, #56	; 0x38
    9146:	dd00      	ble.n	914a <__aeabi_dsub+0x39a>
    9148:	e0a8      	b.n	929c <__aeabi_dsub+0x4ec>
    914a:	2f1f      	cmp	r7, #31
    914c:	dd00      	ble.n	9150 <__aeabi_dsub+0x3a0>
    914e:	e124      	b.n	939a <__aeabi_dsub+0x5ea>
    9150:	2520      	movs	r5, #32
    9152:	1bed      	subs	r5, r5, r7
    9154:	1c0e      	adds	r6, r1, #0
    9156:	40ae      	lsls	r6, r5
    9158:	46b0      	mov	r8, r6
    915a:	1c26      	adds	r6, r4, #0
    915c:	40fe      	lsrs	r6, r7
    915e:	4642      	mov	r2, r8
    9160:	40ac      	lsls	r4, r5
    9162:	4316      	orrs	r6, r2
    9164:	1e65      	subs	r5, r4, #1
    9166:	41ac      	sbcs	r4, r5
    9168:	4334      	orrs	r4, r6
    916a:	40f9      	lsrs	r1, r7
    916c:	465a      	mov	r2, fp
    916e:	1b14      	subs	r4, r2, r4
    9170:	45a3      	cmp	fp, r4
    9172:	4192      	sbcs	r2, r2
    9174:	1a5b      	subs	r3, r3, r1
    9176:	4252      	negs	r2, r2
    9178:	1a99      	subs	r1, r3, r2
    917a:	1c05      	adds	r5, r0, #0
    917c:	46e2      	mov	sl, ip
    917e:	e6a6      	b.n	8ece <__aeabi_dsub+0x11e>
    9180:	1c13      	adds	r3, r2, #0
    9182:	433b      	orrs	r3, r7
    9184:	1c14      	adds	r4, r2, #0
    9186:	2b00      	cmp	r3, #0
    9188:	d000      	beq.n	918c <__aeabi_dsub+0x3dc>
    918a:	e6a4      	b.n	8ed6 <__aeabi_dsub+0x126>
    918c:	2700      	movs	r7, #0
    918e:	2100      	movs	r1, #0
    9190:	2500      	movs	r5, #0
    9192:	2400      	movs	r4, #0
    9194:	e6cd      	b.n	8f32 <__aeabi_dsub+0x182>
    9196:	465a      	mov	r2, fp
    9198:	431a      	orrs	r2, r3
    919a:	1e53      	subs	r3, r2, #1
    919c:	419a      	sbcs	r2, r3
    919e:	b2d2      	uxtb	r2, r2
    91a0:	2300      	movs	r3, #0
    91a2:	e700      	b.n	8fa6 <__aeabi_dsub+0x1f6>
    91a4:	1c0d      	adds	r5, r1, #0
    91a6:	4325      	orrs	r5, r4
    91a8:	d058      	beq.n	925c <__aeabi_dsub+0x4ac>
    91aa:	43ff      	mvns	r7, r7
    91ac:	2f00      	cmp	r7, #0
    91ae:	d151      	bne.n	9254 <__aeabi_dsub+0x4a4>
    91b0:	465a      	mov	r2, fp
    91b2:	1b14      	subs	r4, r2, r4
    91b4:	45a3      	cmp	fp, r4
    91b6:	4192      	sbcs	r2, r2
    91b8:	1a59      	subs	r1, r3, r1
    91ba:	4252      	negs	r2, r2
    91bc:	1a89      	subs	r1, r1, r2
    91be:	1c05      	adds	r5, r0, #0
    91c0:	46e2      	mov	sl, ip
    91c2:	e684      	b.n	8ece <__aeabi_dsub+0x11e>
    91c4:	4892      	ldr	r0, [pc, #584]	; (9410 <__aeabi_dsub+0x660>)
    91c6:	4285      	cmp	r5, r0
    91c8:	d000      	beq.n	91cc <__aeabi_dsub+0x41c>
    91ca:	e6d1      	b.n	8f70 <__aeabi_dsub+0x1c0>
    91cc:	e620      	b.n	8e10 <__aeabi_dsub+0x60>
    91ce:	2700      	movs	r7, #0
    91d0:	e790      	b.n	90f4 <__aeabi_dsub+0x344>
    91d2:	2300      	movs	r3, #0
    91d4:	e79f      	b.n	9116 <__aeabi_dsub+0x366>
    91d6:	1c08      	adds	r0, r1, #0
    91d8:	4320      	orrs	r0, r4
    91da:	2d00      	cmp	r5, #0
    91dc:	d000      	beq.n	91e0 <__aeabi_dsub+0x430>
    91de:	e0c2      	b.n	9366 <__aeabi_dsub+0x5b6>
    91e0:	2800      	cmp	r0, #0
    91e2:	d100      	bne.n	91e6 <__aeabi_dsub+0x436>
    91e4:	e0ef      	b.n	93c6 <__aeabi_dsub+0x616>
    91e6:	4658      	mov	r0, fp
    91e8:	4318      	orrs	r0, r3
    91ea:	d100      	bne.n	91ee <__aeabi_dsub+0x43e>
    91ec:	e610      	b.n	8e10 <__aeabi_dsub+0x60>
    91ee:	4658      	mov	r0, fp
    91f0:	1902      	adds	r2, r0, r4
    91f2:	42a2      	cmp	r2, r4
    91f4:	41a4      	sbcs	r4, r4
    91f6:	4264      	negs	r4, r4
    91f8:	1859      	adds	r1, r3, r1
    91fa:	1909      	adds	r1, r1, r4
    91fc:	1c14      	adds	r4, r2, #0
    91fe:	020a      	lsls	r2, r1, #8
    9200:	d400      	bmi.n	9204 <__aeabi_dsub+0x454>
    9202:	e605      	b.n	8e10 <__aeabi_dsub+0x60>
    9204:	4b83      	ldr	r3, [pc, #524]	; (9414 <__aeabi_dsub+0x664>)
    9206:	2501      	movs	r5, #1
    9208:	4019      	ands	r1, r3
    920a:	e601      	b.n	8e10 <__aeabi_dsub+0x60>
    920c:	1c08      	adds	r0, r1, #0
    920e:	4320      	orrs	r0, r4
    9210:	2d00      	cmp	r5, #0
    9212:	d138      	bne.n	9286 <__aeabi_dsub+0x4d6>
    9214:	2800      	cmp	r0, #0
    9216:	d16f      	bne.n	92f8 <__aeabi_dsub+0x548>
    9218:	4659      	mov	r1, fp
    921a:	4319      	orrs	r1, r3
    921c:	d003      	beq.n	9226 <__aeabi_dsub+0x476>
    921e:	1c19      	adds	r1, r3, #0
    9220:	465c      	mov	r4, fp
    9222:	46e2      	mov	sl, ip
    9224:	e5f4      	b.n	8e10 <__aeabi_dsub+0x60>
    9226:	2700      	movs	r7, #0
    9228:	2100      	movs	r1, #0
    922a:	2400      	movs	r4, #0
    922c:	e681      	b.n	8f32 <__aeabi_dsub+0x182>
    922e:	4660      	mov	r0, ip
    9230:	3820      	subs	r0, #32
    9232:	1c1a      	adds	r2, r3, #0
    9234:	40c2      	lsrs	r2, r0
    9236:	4666      	mov	r6, ip
    9238:	1c10      	adds	r0, r2, #0
    923a:	2e20      	cmp	r6, #32
    923c:	d100      	bne.n	9240 <__aeabi_dsub+0x490>
    923e:	e0aa      	b.n	9396 <__aeabi_dsub+0x5e6>
    9240:	2240      	movs	r2, #64	; 0x40
    9242:	1b92      	subs	r2, r2, r6
    9244:	4093      	lsls	r3, r2
    9246:	465a      	mov	r2, fp
    9248:	431a      	orrs	r2, r3
    924a:	1e53      	subs	r3, r2, #1
    924c:	419a      	sbcs	r2, r3
    924e:	4302      	orrs	r2, r0
    9250:	2300      	movs	r3, #0
    9252:	e6a8      	b.n	8fa6 <__aeabi_dsub+0x1f6>
    9254:	4d6e      	ldr	r5, [pc, #440]	; (9410 <__aeabi_dsub+0x660>)
    9256:	42a8      	cmp	r0, r5
    9258:	d000      	beq.n	925c <__aeabi_dsub+0x4ac>
    925a:	e773      	b.n	9144 <__aeabi_dsub+0x394>
    925c:	1c19      	adds	r1, r3, #0
    925e:	465c      	mov	r4, fp
    9260:	1c05      	adds	r5, r0, #0
    9262:	46e2      	mov	sl, ip
    9264:	e5d4      	b.n	8e10 <__aeabi_dsub+0x60>
    9266:	2d00      	cmp	r5, #0
    9268:	d122      	bne.n	92b0 <__aeabi_dsub+0x500>
    926a:	1c0d      	adds	r5, r1, #0
    926c:	4325      	orrs	r5, r4
    926e:	d076      	beq.n	935e <__aeabi_dsub+0x5ae>
    9270:	43d5      	mvns	r5, r2
    9272:	2d00      	cmp	r5, #0
    9274:	d170      	bne.n	9358 <__aeabi_dsub+0x5a8>
    9276:	445c      	add	r4, fp
    9278:	455c      	cmp	r4, fp
    927a:	4192      	sbcs	r2, r2
    927c:	1859      	adds	r1, r3, r1
    927e:	4252      	negs	r2, r2
    9280:	1889      	adds	r1, r1, r2
    9282:	1c05      	adds	r5, r0, #0
    9284:	e696      	b.n	8fb4 <__aeabi_dsub+0x204>
    9286:	2800      	cmp	r0, #0
    9288:	d14c      	bne.n	9324 <__aeabi_dsub+0x574>
    928a:	4659      	mov	r1, fp
    928c:	4319      	orrs	r1, r3
    928e:	d100      	bne.n	9292 <__aeabi_dsub+0x4e2>
    9290:	e64a      	b.n	8f28 <__aeabi_dsub+0x178>
    9292:	1c19      	adds	r1, r3, #0
    9294:	465c      	mov	r4, fp
    9296:	46e2      	mov	sl, ip
    9298:	4d5d      	ldr	r5, [pc, #372]	; (9410 <__aeabi_dsub+0x660>)
    929a:	e5b9      	b.n	8e10 <__aeabi_dsub+0x60>
    929c:	430c      	orrs	r4, r1
    929e:	1e61      	subs	r1, r4, #1
    92a0:	418c      	sbcs	r4, r1
    92a2:	b2e4      	uxtb	r4, r4
    92a4:	2100      	movs	r1, #0
    92a6:	e761      	b.n	916c <__aeabi_dsub+0x3bc>
    92a8:	1c05      	adds	r5, r0, #0
    92aa:	2100      	movs	r1, #0
    92ac:	2400      	movs	r4, #0
    92ae:	e640      	b.n	8f32 <__aeabi_dsub+0x182>
    92b0:	4d57      	ldr	r5, [pc, #348]	; (9410 <__aeabi_dsub+0x660>)
    92b2:	42a8      	cmp	r0, r5
    92b4:	d053      	beq.n	935e <__aeabi_dsub+0x5ae>
    92b6:	4255      	negs	r5, r2
    92b8:	2280      	movs	r2, #128	; 0x80
    92ba:	0416      	lsls	r6, r2, #16
    92bc:	4331      	orrs	r1, r6
    92be:	2d38      	cmp	r5, #56	; 0x38
    92c0:	dc7b      	bgt.n	93ba <__aeabi_dsub+0x60a>
    92c2:	2d1f      	cmp	r5, #31
    92c4:	dd00      	ble.n	92c8 <__aeabi_dsub+0x518>
    92c6:	e08c      	b.n	93e2 <__aeabi_dsub+0x632>
    92c8:	2220      	movs	r2, #32
    92ca:	1b56      	subs	r6, r2, r5
    92cc:	1c0a      	adds	r2, r1, #0
    92ce:	46b4      	mov	ip, r6
    92d0:	40b2      	lsls	r2, r6
    92d2:	1c26      	adds	r6, r4, #0
    92d4:	40ee      	lsrs	r6, r5
    92d6:	4332      	orrs	r2, r6
    92d8:	4690      	mov	r8, r2
    92da:	4662      	mov	r2, ip
    92dc:	4094      	lsls	r4, r2
    92de:	1e66      	subs	r6, r4, #1
    92e0:	41b4      	sbcs	r4, r6
    92e2:	4642      	mov	r2, r8
    92e4:	4314      	orrs	r4, r2
    92e6:	40e9      	lsrs	r1, r5
    92e8:	445c      	add	r4, fp
    92ea:	455c      	cmp	r4, fp
    92ec:	4192      	sbcs	r2, r2
    92ee:	18cb      	adds	r3, r1, r3
    92f0:	4252      	negs	r2, r2
    92f2:	1899      	adds	r1, r3, r2
    92f4:	1c05      	adds	r5, r0, #0
    92f6:	e65d      	b.n	8fb4 <__aeabi_dsub+0x204>
    92f8:	4658      	mov	r0, fp
    92fa:	4318      	orrs	r0, r3
    92fc:	d100      	bne.n	9300 <__aeabi_dsub+0x550>
    92fe:	e587      	b.n	8e10 <__aeabi_dsub+0x60>
    9300:	465e      	mov	r6, fp
    9302:	1ba7      	subs	r7, r4, r6
    9304:	42bc      	cmp	r4, r7
    9306:	4192      	sbcs	r2, r2
    9308:	1ac8      	subs	r0, r1, r3
    930a:	4252      	negs	r2, r2
    930c:	1a80      	subs	r0, r0, r2
    930e:	0206      	lsls	r6, r0, #8
    9310:	d560      	bpl.n	93d4 <__aeabi_dsub+0x624>
    9312:	4658      	mov	r0, fp
    9314:	1b04      	subs	r4, r0, r4
    9316:	45a3      	cmp	fp, r4
    9318:	4192      	sbcs	r2, r2
    931a:	1a59      	subs	r1, r3, r1
    931c:	4252      	negs	r2, r2
    931e:	1a89      	subs	r1, r1, r2
    9320:	46e2      	mov	sl, ip
    9322:	e575      	b.n	8e10 <__aeabi_dsub+0x60>
    9324:	4658      	mov	r0, fp
    9326:	4318      	orrs	r0, r3
    9328:	d033      	beq.n	9392 <__aeabi_dsub+0x5e2>
    932a:	0748      	lsls	r0, r1, #29
    932c:	08e4      	lsrs	r4, r4, #3
    932e:	4304      	orrs	r4, r0
    9330:	2080      	movs	r0, #128	; 0x80
    9332:	08c9      	lsrs	r1, r1, #3
    9334:	0300      	lsls	r0, r0, #12
    9336:	4201      	tst	r1, r0
    9338:	d008      	beq.n	934c <__aeabi_dsub+0x59c>
    933a:	08dd      	lsrs	r5, r3, #3
    933c:	4205      	tst	r5, r0
    933e:	d105      	bne.n	934c <__aeabi_dsub+0x59c>
    9340:	4659      	mov	r1, fp
    9342:	08ca      	lsrs	r2, r1, #3
    9344:	075c      	lsls	r4, r3, #29
    9346:	4314      	orrs	r4, r2
    9348:	1c29      	adds	r1, r5, #0
    934a:	46e2      	mov	sl, ip
    934c:	0f63      	lsrs	r3, r4, #29
    934e:	00c9      	lsls	r1, r1, #3
    9350:	4319      	orrs	r1, r3
    9352:	00e4      	lsls	r4, r4, #3
    9354:	4d2e      	ldr	r5, [pc, #184]	; (9410 <__aeabi_dsub+0x660>)
    9356:	e55b      	b.n	8e10 <__aeabi_dsub+0x60>
    9358:	4a2d      	ldr	r2, [pc, #180]	; (9410 <__aeabi_dsub+0x660>)
    935a:	4290      	cmp	r0, r2
    935c:	d1af      	bne.n	92be <__aeabi_dsub+0x50e>
    935e:	1c19      	adds	r1, r3, #0
    9360:	465c      	mov	r4, fp
    9362:	1c05      	adds	r5, r0, #0
    9364:	e554      	b.n	8e10 <__aeabi_dsub+0x60>
    9366:	2800      	cmp	r0, #0
    9368:	d030      	beq.n	93cc <__aeabi_dsub+0x61c>
    936a:	4658      	mov	r0, fp
    936c:	4318      	orrs	r0, r3
    936e:	d010      	beq.n	9392 <__aeabi_dsub+0x5e2>
    9370:	2580      	movs	r5, #128	; 0x80
    9372:	0748      	lsls	r0, r1, #29
    9374:	08e4      	lsrs	r4, r4, #3
    9376:	08c9      	lsrs	r1, r1, #3
    9378:	032d      	lsls	r5, r5, #12
    937a:	4304      	orrs	r4, r0
    937c:	4229      	tst	r1, r5
    937e:	d0e5      	beq.n	934c <__aeabi_dsub+0x59c>
    9380:	08d8      	lsrs	r0, r3, #3
    9382:	4228      	tst	r0, r5
    9384:	d1e2      	bne.n	934c <__aeabi_dsub+0x59c>
    9386:	465d      	mov	r5, fp
    9388:	08ea      	lsrs	r2, r5, #3
    938a:	075c      	lsls	r4, r3, #29
    938c:	4314      	orrs	r4, r2
    938e:	1c01      	adds	r1, r0, #0
    9390:	e7dc      	b.n	934c <__aeabi_dsub+0x59c>
    9392:	4d1f      	ldr	r5, [pc, #124]	; (9410 <__aeabi_dsub+0x660>)
    9394:	e53c      	b.n	8e10 <__aeabi_dsub+0x60>
    9396:	2300      	movs	r3, #0
    9398:	e755      	b.n	9246 <__aeabi_dsub+0x496>
    939a:	1c3d      	adds	r5, r7, #0
    939c:	3d20      	subs	r5, #32
    939e:	1c0e      	adds	r6, r1, #0
    93a0:	40ee      	lsrs	r6, r5
    93a2:	1c35      	adds	r5, r6, #0
    93a4:	2f20      	cmp	r7, #32
    93a6:	d02e      	beq.n	9406 <__aeabi_dsub+0x656>
    93a8:	2640      	movs	r6, #64	; 0x40
    93aa:	1bf7      	subs	r7, r6, r7
    93ac:	40b9      	lsls	r1, r7
    93ae:	430c      	orrs	r4, r1
    93b0:	1e61      	subs	r1, r4, #1
    93b2:	418c      	sbcs	r4, r1
    93b4:	432c      	orrs	r4, r5
    93b6:	2100      	movs	r1, #0
    93b8:	e6d8      	b.n	916c <__aeabi_dsub+0x3bc>
    93ba:	430c      	orrs	r4, r1
    93bc:	1e61      	subs	r1, r4, #1
    93be:	418c      	sbcs	r4, r1
    93c0:	b2e4      	uxtb	r4, r4
    93c2:	2100      	movs	r1, #0
    93c4:	e790      	b.n	92e8 <__aeabi_dsub+0x538>
    93c6:	1c19      	adds	r1, r3, #0
    93c8:	465c      	mov	r4, fp
    93ca:	e521      	b.n	8e10 <__aeabi_dsub+0x60>
    93cc:	1c19      	adds	r1, r3, #0
    93ce:	465c      	mov	r4, fp
    93d0:	4d0f      	ldr	r5, [pc, #60]	; (9410 <__aeabi_dsub+0x660>)
    93d2:	e51d      	b.n	8e10 <__aeabi_dsub+0x60>
    93d4:	1c03      	adds	r3, r0, #0
    93d6:	433b      	orrs	r3, r7
    93d8:	d100      	bne.n	93dc <__aeabi_dsub+0x62c>
    93da:	e724      	b.n	9226 <__aeabi_dsub+0x476>
    93dc:	1c01      	adds	r1, r0, #0
    93de:	1c3c      	adds	r4, r7, #0
    93e0:	e516      	b.n	8e10 <__aeabi_dsub+0x60>
    93e2:	2620      	movs	r6, #32
    93e4:	4276      	negs	r6, r6
    93e6:	1976      	adds	r6, r6, r5
    93e8:	1c0a      	adds	r2, r1, #0
    93ea:	40f2      	lsrs	r2, r6
    93ec:	4690      	mov	r8, r2
    93ee:	2d20      	cmp	r5, #32
    93f0:	d00b      	beq.n	940a <__aeabi_dsub+0x65a>
    93f2:	2640      	movs	r6, #64	; 0x40
    93f4:	1b75      	subs	r5, r6, r5
    93f6:	40a9      	lsls	r1, r5
    93f8:	430c      	orrs	r4, r1
    93fa:	1e61      	subs	r1, r4, #1
    93fc:	418c      	sbcs	r4, r1
    93fe:	4645      	mov	r5, r8
    9400:	432c      	orrs	r4, r5
    9402:	2100      	movs	r1, #0
    9404:	e770      	b.n	92e8 <__aeabi_dsub+0x538>
    9406:	2100      	movs	r1, #0
    9408:	e7d1      	b.n	93ae <__aeabi_dsub+0x5fe>
    940a:	2100      	movs	r1, #0
    940c:	e7f4      	b.n	93f8 <__aeabi_dsub+0x648>
    940e:	46c0      	nop			; (mov r8, r8)
    9410:	000007ff 	.word	0x000007ff
    9414:	ff7fffff 	.word	0xff7fffff

00009418 <__aeabi_d2iz>:
    9418:	b570      	push	{r4, r5, r6, lr}
    941a:	1c0b      	adds	r3, r1, #0
    941c:	4c12      	ldr	r4, [pc, #72]	; (9468 <__aeabi_d2iz+0x50>)
    941e:	0309      	lsls	r1, r1, #12
    9420:	0b0e      	lsrs	r6, r1, #12
    9422:	0059      	lsls	r1, r3, #1
    9424:	1c02      	adds	r2, r0, #0
    9426:	0d49      	lsrs	r1, r1, #21
    9428:	0fdd      	lsrs	r5, r3, #31
    942a:	2000      	movs	r0, #0
    942c:	42a1      	cmp	r1, r4
    942e:	dd11      	ble.n	9454 <__aeabi_d2iz+0x3c>
    9430:	480e      	ldr	r0, [pc, #56]	; (946c <__aeabi_d2iz+0x54>)
    9432:	4281      	cmp	r1, r0
    9434:	dc0f      	bgt.n	9456 <__aeabi_d2iz+0x3e>
    9436:	2080      	movs	r0, #128	; 0x80
    9438:	0340      	lsls	r0, r0, #13
    943a:	4306      	orrs	r6, r0
    943c:	480c      	ldr	r0, [pc, #48]	; (9470 <__aeabi_d2iz+0x58>)
    943e:	1a40      	subs	r0, r0, r1
    9440:	281f      	cmp	r0, #31
    9442:	dd0b      	ble.n	945c <__aeabi_d2iz+0x44>
    9444:	4a0b      	ldr	r2, [pc, #44]	; (9474 <__aeabi_d2iz+0x5c>)
    9446:	1a52      	subs	r2, r2, r1
    9448:	40d6      	lsrs	r6, r2
    944a:	1c32      	adds	r2, r6, #0
    944c:	4250      	negs	r0, r2
    944e:	2d00      	cmp	r5, #0
    9450:	d100      	bne.n	9454 <__aeabi_d2iz+0x3c>
    9452:	1c10      	adds	r0, r2, #0
    9454:	bd70      	pop	{r4, r5, r6, pc}
    9456:	4b08      	ldr	r3, [pc, #32]	; (9478 <__aeabi_d2iz+0x60>)
    9458:	18e8      	adds	r0, r5, r3
    945a:	e7fb      	b.n	9454 <__aeabi_d2iz+0x3c>
    945c:	4b07      	ldr	r3, [pc, #28]	; (947c <__aeabi_d2iz+0x64>)
    945e:	40c2      	lsrs	r2, r0
    9460:	18c9      	adds	r1, r1, r3
    9462:	408e      	lsls	r6, r1
    9464:	4332      	orrs	r2, r6
    9466:	e7f1      	b.n	944c <__aeabi_d2iz+0x34>
    9468:	000003fe 	.word	0x000003fe
    946c:	0000041d 	.word	0x0000041d
    9470:	00000433 	.word	0x00000433
    9474:	00000413 	.word	0x00000413
    9478:	7fffffff 	.word	0x7fffffff
    947c:	fffffbed 	.word	0xfffffbed

00009480 <__aeabi_i2d>:
    9480:	b5f8      	push	{r3, r4, r5, r6, r7, lr}
    9482:	1e04      	subs	r4, r0, #0
    9484:	d031      	beq.n	94ea <__aeabi_i2d+0x6a>
    9486:	0fc7      	lsrs	r7, r0, #31
    9488:	d000      	beq.n	948c <__aeabi_i2d+0xc>
    948a:	4244      	negs	r4, r0
    948c:	1c20      	adds	r0, r4, #0
    948e:	f000 f947 	bl	9720 <__clzsi2>
    9492:	4d18      	ldr	r5, [pc, #96]	; (94f4 <__aeabi_i2d+0x74>)
    9494:	1a2d      	subs	r5, r5, r0
    9496:	280a      	cmp	r0, #10
    9498:	dd19      	ble.n	94ce <__aeabi_i2d+0x4e>
    949a:	380b      	subs	r0, #11
    949c:	4084      	lsls	r4, r0
    949e:	0324      	lsls	r4, r4, #12
    94a0:	056d      	lsls	r5, r5, #21
    94a2:	0b24      	lsrs	r4, r4, #12
    94a4:	0d6d      	lsrs	r5, r5, #21
    94a6:	1c3a      	adds	r2, r7, #0
    94a8:	2600      	movs	r6, #0
    94aa:	2000      	movs	r0, #0
    94ac:	2100      	movs	r1, #0
    94ae:	0d0b      	lsrs	r3, r1, #20
    94b0:	0324      	lsls	r4, r4, #12
    94b2:	0b24      	lsrs	r4, r4, #12
    94b4:	051b      	lsls	r3, r3, #20
    94b6:	4323      	orrs	r3, r4
    94b8:	4c0f      	ldr	r4, [pc, #60]	; (94f8 <__aeabi_i2d+0x78>)
    94ba:	052d      	lsls	r5, r5, #20
    94bc:	401c      	ands	r4, r3
    94be:	432c      	orrs	r4, r5
    94c0:	0064      	lsls	r4, r4, #1
    94c2:	0864      	lsrs	r4, r4, #1
    94c4:	07d3      	lsls	r3, r2, #31
    94c6:	1c21      	adds	r1, r4, #0
    94c8:	1c30      	adds	r0, r6, #0
    94ca:	4319      	orrs	r1, r3
    94cc:	bdf8      	pop	{r3, r4, r5, r6, r7, pc}
    94ce:	1c06      	adds	r6, r0, #0
    94d0:	3615      	adds	r6, #21
    94d2:	1c23      	adds	r3, r4, #0
    94d4:	40b3      	lsls	r3, r6
    94d6:	1c1e      	adds	r6, r3, #0
    94d8:	230b      	movs	r3, #11
    94da:	1a18      	subs	r0, r3, r0
    94dc:	40c4      	lsrs	r4, r0
    94de:	0324      	lsls	r4, r4, #12
    94e0:	056d      	lsls	r5, r5, #21
    94e2:	0b24      	lsrs	r4, r4, #12
    94e4:	0d6d      	lsrs	r5, r5, #21
    94e6:	1c3a      	adds	r2, r7, #0
    94e8:	e7df      	b.n	94aa <__aeabi_i2d+0x2a>
    94ea:	2200      	movs	r2, #0
    94ec:	2500      	movs	r5, #0
    94ee:	2400      	movs	r4, #0
    94f0:	2600      	movs	r6, #0
    94f2:	e7da      	b.n	94aa <__aeabi_i2d+0x2a>
    94f4:	0000041e 	.word	0x0000041e
    94f8:	800fffff 	.word	0x800fffff

000094fc <__aeabi_ui2d>:
    94fc:	b510      	push	{r4, lr}
    94fe:	1e04      	subs	r4, r0, #0
    9500:	d028      	beq.n	9554 <__aeabi_ui2d+0x58>
    9502:	f000 f90d 	bl	9720 <__clzsi2>
    9506:	4a15      	ldr	r2, [pc, #84]	; (955c <__aeabi_ui2d+0x60>)
    9508:	1a12      	subs	r2, r2, r0
    950a:	280a      	cmp	r0, #10
    950c:	dd15      	ble.n	953a <__aeabi_ui2d+0x3e>
    950e:	380b      	subs	r0, #11
    9510:	4084      	lsls	r4, r0
    9512:	0324      	lsls	r4, r4, #12
    9514:	0552      	lsls	r2, r2, #21
    9516:	0b24      	lsrs	r4, r4, #12
    9518:	0d52      	lsrs	r2, r2, #21
    951a:	2300      	movs	r3, #0
    951c:	2000      	movs	r0, #0
    951e:	2100      	movs	r1, #0
    9520:	0324      	lsls	r4, r4, #12
    9522:	1c18      	adds	r0, r3, #0
    9524:	0d0b      	lsrs	r3, r1, #20
    9526:	0b24      	lsrs	r4, r4, #12
    9528:	051b      	lsls	r3, r3, #20
    952a:	4323      	orrs	r3, r4
    952c:	4c0c      	ldr	r4, [pc, #48]	; (9560 <__aeabi_ui2d+0x64>)
    952e:	0512      	lsls	r2, r2, #20
    9530:	401c      	ands	r4, r3
    9532:	4314      	orrs	r4, r2
    9534:	0064      	lsls	r4, r4, #1
    9536:	0861      	lsrs	r1, r4, #1
    9538:	bd10      	pop	{r4, pc}
    953a:	1c03      	adds	r3, r0, #0
    953c:	3315      	adds	r3, #21
    953e:	1c21      	adds	r1, r4, #0
    9540:	4099      	lsls	r1, r3
    9542:	1c0b      	adds	r3, r1, #0
    9544:	210b      	movs	r1, #11
    9546:	1a08      	subs	r0, r1, r0
    9548:	40c4      	lsrs	r4, r0
    954a:	0324      	lsls	r4, r4, #12
    954c:	0552      	lsls	r2, r2, #21
    954e:	0b24      	lsrs	r4, r4, #12
    9550:	0d52      	lsrs	r2, r2, #21
    9552:	e7e3      	b.n	951c <__aeabi_ui2d+0x20>
    9554:	2200      	movs	r2, #0
    9556:	2400      	movs	r4, #0
    9558:	2300      	movs	r3, #0
    955a:	e7df      	b.n	951c <__aeabi_ui2d+0x20>
    955c:	0000041e 	.word	0x0000041e
    9560:	800fffff 	.word	0x800fffff

00009564 <__aeabi_f2d>:
    9564:	0043      	lsls	r3, r0, #1
    9566:	0e1b      	lsrs	r3, r3, #24
    9568:	1c5a      	adds	r2, r3, #1
    956a:	0241      	lsls	r1, r0, #9
    956c:	b2d2      	uxtb	r2, r2
    956e:	b570      	push	{r4, r5, r6, lr}
    9570:	0a4c      	lsrs	r4, r1, #9
    9572:	0fc5      	lsrs	r5, r0, #31
    9574:	2a01      	cmp	r2, #1
    9576:	dd17      	ble.n	95a8 <__aeabi_f2d+0x44>
    9578:	22e0      	movs	r2, #224	; 0xe0
    957a:	0092      	lsls	r2, r2, #2
    957c:	0764      	lsls	r4, r4, #29
    957e:	0b09      	lsrs	r1, r1, #12
    9580:	1898      	adds	r0, r3, r2
    9582:	2200      	movs	r2, #0
    9584:	2300      	movs	r3, #0
    9586:	0d1e      	lsrs	r6, r3, #20
    9588:	1c22      	adds	r2, r4, #0
    958a:	0534      	lsls	r4, r6, #20
    958c:	430c      	orrs	r4, r1
    958e:	491b      	ldr	r1, [pc, #108]	; (95fc <__aeabi_f2d+0x98>)
    9590:	0540      	lsls	r0, r0, #21
    9592:	0840      	lsrs	r0, r0, #1
    9594:	4021      	ands	r1, r4
    9596:	4301      	orrs	r1, r0
    9598:	0049      	lsls	r1, r1, #1
    959a:	0849      	lsrs	r1, r1, #1
    959c:	07ed      	lsls	r5, r5, #31
    959e:	1c0b      	adds	r3, r1, #0
    95a0:	432b      	orrs	r3, r5
    95a2:	1c10      	adds	r0, r2, #0
    95a4:	1c19      	adds	r1, r3, #0
    95a6:	bd70      	pop	{r4, r5, r6, pc}
    95a8:	2b00      	cmp	r3, #0
    95aa:	d115      	bne.n	95d8 <__aeabi_f2d+0x74>
    95ac:	2c00      	cmp	r4, #0
    95ae:	d01c      	beq.n	95ea <__aeabi_f2d+0x86>
    95b0:	1c20      	adds	r0, r4, #0
    95b2:	f000 f8b5 	bl	9720 <__clzsi2>
    95b6:	280a      	cmp	r0, #10
    95b8:	dc1a      	bgt.n	95f0 <__aeabi_f2d+0x8c>
    95ba:	210b      	movs	r1, #11
    95bc:	1a09      	subs	r1, r1, r0
    95be:	1c23      	adds	r3, r4, #0
    95c0:	40cb      	lsrs	r3, r1
    95c2:	1c19      	adds	r1, r3, #0
    95c4:	1c03      	adds	r3, r0, #0
    95c6:	3315      	adds	r3, #21
    95c8:	409c      	lsls	r4, r3
    95ca:	4b0d      	ldr	r3, [pc, #52]	; (9600 <__aeabi_f2d+0x9c>)
    95cc:	0309      	lsls	r1, r1, #12
    95ce:	1a18      	subs	r0, r3, r0
    95d0:	0540      	lsls	r0, r0, #21
    95d2:	0b09      	lsrs	r1, r1, #12
    95d4:	0d40      	lsrs	r0, r0, #21
    95d6:	e7d4      	b.n	9582 <__aeabi_f2d+0x1e>
    95d8:	2c00      	cmp	r4, #0
    95da:	d003      	beq.n	95e4 <__aeabi_f2d+0x80>
    95dc:	0764      	lsls	r4, r4, #29
    95de:	0b09      	lsrs	r1, r1, #12
    95e0:	4808      	ldr	r0, [pc, #32]	; (9604 <__aeabi_f2d+0xa0>)
    95e2:	e7ce      	b.n	9582 <__aeabi_f2d+0x1e>
    95e4:	4807      	ldr	r0, [pc, #28]	; (9604 <__aeabi_f2d+0xa0>)
    95e6:	2100      	movs	r1, #0
    95e8:	e7cb      	b.n	9582 <__aeabi_f2d+0x1e>
    95ea:	2000      	movs	r0, #0
    95ec:	2100      	movs	r1, #0
    95ee:	e7c8      	b.n	9582 <__aeabi_f2d+0x1e>
    95f0:	1c01      	adds	r1, r0, #0
    95f2:	390b      	subs	r1, #11
    95f4:	408c      	lsls	r4, r1
    95f6:	1c21      	adds	r1, r4, #0
    95f8:	2400      	movs	r4, #0
    95fa:	e7e6      	b.n	95ca <__aeabi_f2d+0x66>
    95fc:	800fffff 	.word	0x800fffff
    9600:	00000389 	.word	0x00000389
    9604:	000007ff 	.word	0x000007ff

00009608 <__aeabi_d2f>:
    9608:	b5f0      	push	{r4, r5, r6, r7, lr}
    960a:	004b      	lsls	r3, r1, #1
    960c:	030d      	lsls	r5, r1, #12
    960e:	0f42      	lsrs	r2, r0, #29
    9610:	0d5b      	lsrs	r3, r3, #21
    9612:	0a6d      	lsrs	r5, r5, #9
    9614:	4315      	orrs	r5, r2
    9616:	1c5a      	adds	r2, r3, #1
    9618:	0552      	lsls	r2, r2, #21
    961a:	0fcc      	lsrs	r4, r1, #31
    961c:	00c6      	lsls	r6, r0, #3
    961e:	0d52      	lsrs	r2, r2, #21
    9620:	2a01      	cmp	r2, #1
    9622:	dd27      	ble.n	9674 <__aeabi_d2f+0x6c>
    9624:	4f39      	ldr	r7, [pc, #228]	; (970c <__aeabi_d2f+0x104>)
    9626:	19da      	adds	r2, r3, r7
    9628:	2afe      	cmp	r2, #254	; 0xfe
    962a:	dc1a      	bgt.n	9662 <__aeabi_d2f+0x5a>
    962c:	2a00      	cmp	r2, #0
    962e:	dd35      	ble.n	969c <__aeabi_d2f+0x94>
    9630:	0180      	lsls	r0, r0, #6
    9632:	00ed      	lsls	r5, r5, #3
    9634:	1e43      	subs	r3, r0, #1
    9636:	4198      	sbcs	r0, r3
    9638:	4328      	orrs	r0, r5
    963a:	0f76      	lsrs	r6, r6, #29
    963c:	4330      	orrs	r0, r6
    963e:	0743      	lsls	r3, r0, #29
    9640:	d004      	beq.n	964c <__aeabi_d2f+0x44>
    9642:	230f      	movs	r3, #15
    9644:	4003      	ands	r3, r0
    9646:	2b04      	cmp	r3, #4
    9648:	d000      	beq.n	964c <__aeabi_d2f+0x44>
    964a:	3004      	adds	r0, #4
    964c:	2180      	movs	r1, #128	; 0x80
    964e:	04c9      	lsls	r1, r1, #19
    9650:	4001      	ands	r1, r0
    9652:	d027      	beq.n	96a4 <__aeabi_d2f+0x9c>
    9654:	3201      	adds	r2, #1
    9656:	2aff      	cmp	r2, #255	; 0xff
    9658:	d01d      	beq.n	9696 <__aeabi_d2f+0x8e>
    965a:	0183      	lsls	r3, r0, #6
    965c:	0a5b      	lsrs	r3, r3, #9
    965e:	b2d1      	uxtb	r1, r2
    9660:	e001      	b.n	9666 <__aeabi_d2f+0x5e>
    9662:	21ff      	movs	r1, #255	; 0xff
    9664:	2300      	movs	r3, #0
    9666:	0258      	lsls	r0, r3, #9
    9668:	05c9      	lsls	r1, r1, #23
    966a:	0a40      	lsrs	r0, r0, #9
    966c:	07e4      	lsls	r4, r4, #31
    966e:	4308      	orrs	r0, r1
    9670:	4320      	orrs	r0, r4
    9672:	bdf0      	pop	{r4, r5, r6, r7, pc}
    9674:	2b00      	cmp	r3, #0
    9676:	d106      	bne.n	9686 <__aeabi_d2f+0x7e>
    9678:	4335      	orrs	r5, r6
    967a:	d111      	bne.n	96a0 <__aeabi_d2f+0x98>
    967c:	2100      	movs	r1, #0
    967e:	2000      	movs	r0, #0
    9680:	0243      	lsls	r3, r0, #9
    9682:	0a5b      	lsrs	r3, r3, #9
    9684:	e7ef      	b.n	9666 <__aeabi_d2f+0x5e>
    9686:	432e      	orrs	r6, r5
    9688:	d0eb      	beq.n	9662 <__aeabi_d2f+0x5a>
    968a:	2080      	movs	r0, #128	; 0x80
    968c:	00ed      	lsls	r5, r5, #3
    968e:	0480      	lsls	r0, r0, #18
    9690:	4328      	orrs	r0, r5
    9692:	22ff      	movs	r2, #255	; 0xff
    9694:	e7d3      	b.n	963e <__aeabi_d2f+0x36>
    9696:	21ff      	movs	r1, #255	; 0xff
    9698:	2300      	movs	r3, #0
    969a:	e7e4      	b.n	9666 <__aeabi_d2f+0x5e>
    969c:	3217      	adds	r2, #23
    969e:	da0d      	bge.n	96bc <__aeabi_d2f+0xb4>
    96a0:	2005      	movs	r0, #5
    96a2:	2200      	movs	r2, #0
    96a4:	08c0      	lsrs	r0, r0, #3
    96a6:	b2d1      	uxtb	r1, r2
    96a8:	2aff      	cmp	r2, #255	; 0xff
    96aa:	d1e9      	bne.n	9680 <__aeabi_d2f+0x78>
    96ac:	2800      	cmp	r0, #0
    96ae:	d0d9      	beq.n	9664 <__aeabi_d2f+0x5c>
    96b0:	2380      	movs	r3, #128	; 0x80
    96b2:	03db      	lsls	r3, r3, #15
    96b4:	4303      	orrs	r3, r0
    96b6:	025b      	lsls	r3, r3, #9
    96b8:	0a5b      	lsrs	r3, r3, #9
    96ba:	e7d4      	b.n	9666 <__aeabi_d2f+0x5e>
    96bc:	2280      	movs	r2, #128	; 0x80
    96be:	4914      	ldr	r1, [pc, #80]	; (9710 <__aeabi_d2f+0x108>)
    96c0:	0412      	lsls	r2, r2, #16
    96c2:	4315      	orrs	r5, r2
    96c4:	1ac9      	subs	r1, r1, r3
    96c6:	291f      	cmp	r1, #31
    96c8:	dc0d      	bgt.n	96e6 <__aeabi_d2f+0xde>
    96ca:	4a12      	ldr	r2, [pc, #72]	; (9714 <__aeabi_d2f+0x10c>)
    96cc:	1c37      	adds	r7, r6, #0
    96ce:	189b      	adds	r3, r3, r2
    96d0:	1c28      	adds	r0, r5, #0
    96d2:	409f      	lsls	r7, r3
    96d4:	4098      	lsls	r0, r3
    96d6:	1c3b      	adds	r3, r7, #0
    96d8:	1e5a      	subs	r2, r3, #1
    96da:	4193      	sbcs	r3, r2
    96dc:	4318      	orrs	r0, r3
    96de:	40ce      	lsrs	r6, r1
    96e0:	4330      	orrs	r0, r6
    96e2:	2200      	movs	r2, #0
    96e4:	e7ab      	b.n	963e <__aeabi_d2f+0x36>
    96e6:	4f0c      	ldr	r7, [pc, #48]	; (9718 <__aeabi_d2f+0x110>)
    96e8:	1c2a      	adds	r2, r5, #0
    96ea:	1aff      	subs	r7, r7, r3
    96ec:	40fa      	lsrs	r2, r7
    96ee:	1c17      	adds	r7, r2, #0
    96f0:	2920      	cmp	r1, #32
    96f2:	d009      	beq.n	9708 <__aeabi_d2f+0x100>
    96f4:	4a09      	ldr	r2, [pc, #36]	; (971c <__aeabi_d2f+0x114>)
    96f6:	1898      	adds	r0, r3, r2
    96f8:	4085      	lsls	r5, r0
    96fa:	1c28      	adds	r0, r5, #0
    96fc:	4330      	orrs	r0, r6
    96fe:	1e46      	subs	r6, r0, #1
    9700:	41b0      	sbcs	r0, r6
    9702:	4338      	orrs	r0, r7
    9704:	2200      	movs	r2, #0
    9706:	e79a      	b.n	963e <__aeabi_d2f+0x36>
    9708:	2000      	movs	r0, #0
    970a:	e7f7      	b.n	96fc <__aeabi_d2f+0xf4>
    970c:	fffffc80 	.word	0xfffffc80
    9710:	0000039e 	.word	0x0000039e
    9714:	fffffc82 	.word	0xfffffc82
    9718:	0000037e 	.word	0x0000037e
    971c:	fffffca2 	.word	0xfffffca2

00009720 <__clzsi2>:
    9720:	211c      	movs	r1, #28
    9722:	2301      	movs	r3, #1
    9724:	041b      	lsls	r3, r3, #16
    9726:	4298      	cmp	r0, r3
    9728:	d301      	bcc.n	972e <__clzsi2+0xe>
    972a:	0c00      	lsrs	r0, r0, #16
    972c:	3910      	subs	r1, #16
    972e:	0a1b      	lsrs	r3, r3, #8
    9730:	4298      	cmp	r0, r3
    9732:	d301      	bcc.n	9738 <__clzsi2+0x18>
    9734:	0a00      	lsrs	r0, r0, #8
    9736:	3908      	subs	r1, #8
    9738:	091b      	lsrs	r3, r3, #4
    973a:	4298      	cmp	r0, r3
    973c:	d301      	bcc.n	9742 <__clzsi2+0x22>
    973e:	0900      	lsrs	r0, r0, #4
    9740:	3904      	subs	r1, #4
    9742:	a202      	add	r2, pc, #8	; (adr r2, 974c <__clzsi2+0x2c>)
    9744:	5c10      	ldrb	r0, [r2, r0]
    9746:	1840      	adds	r0, r0, r1
    9748:	4770      	bx	lr
    974a:	46c0      	nop			; (mov r8, r8)
    974c:	02020304 	.word	0x02020304
    9750:	01010101 	.word	0x01010101
	...
    975c:	65480d0a 	.word	0x65480d0a
    9760:	206f6c6c 	.word	0x206f6c6c
    9764:	20646e61 	.word	0x20646e61
    9768:	636c6577 	.word	0x636c6577
    976c:	20656d6f 	.word	0x20656d6f
    9770:	74206f74 	.word	0x74206f74
    9774:	67206568 	.word	0x67206568
    9778:	72656e65 	.word	0x72656e65
    977c:	61206369 	.word	0x61206369
    9780:	65636363 	.word	0x65636363
    9784:	6f72656c 	.word	0x6f72656c
    9788:	6574656d 	.word	0x6574656d
    978c:	61632072 	.word	0x61632072
    9790:	7262696c 	.word	0x7262696c
    9794:	6f697461 	.word	0x6f697461
    9798:	6f72206e 	.word	0x6f72206e
    979c:	6e697475 	.word	0x6e697475
    97a0:	0d0a2165 	.word	0x0d0a2165
    97a4:	00000000 	.word	0x00000000
    97a8:	77206557 	.word	0x77206557
    97ac:	206c6c69 	.word	0x206c6c69
    97b0:	69676562 	.word	0x69676562
    97b4:	6977206e 	.word	0x6977206e
    97b8:	74206874 	.word	0x74206874
    97bc:	58206568 	.word	0x58206568
    97c0:	69786120 	.word	0x69786120
    97c4:	70202c73 	.word	0x70202c73
    97c8:	7361656c 	.word	0x7361656c
    97cc:	6c702065 	.word	0x6c702065
    97d0:	20656361 	.word	0x20656361
    97d4:	20656874 	.word	0x20656874
    97d8:	736e6573 	.word	0x736e6573
    97dc:	6620726f 	.word	0x6620726f
    97e0:	2074616c 	.word	0x2074616c
    97e4:	68746977 	.word	0x68746977
    97e8:	70205820 	.word	0x70205820
    97ec:	746e696f 	.word	0x746e696f
    97f0:	20676e69 	.word	0x20676e69
    97f4:	0a2e7075 	.word	0x0a2e7075
    97f8:	0000000d 	.word	0x0000000d
    97fc:	20776f4e 	.word	0x20776f4e
    9800:	61656c70 	.word	0x61656c70
    9804:	70206573 	.word	0x70206573
    9808:	6563616c 	.word	0x6563616c
    980c:	65687420 	.word	0x65687420
    9810:	6e657320 	.word	0x6e657320
    9814:	20726f73 	.word	0x20726f73
    9818:	74616c66 	.word	0x74616c66
    981c:	74697720 	.word	0x74697720
    9820:	20792068 	.word	0x20792068
    9824:	6e696f70 	.word	0x6e696f70
    9828:	676e6974 	.word	0x676e6974
    982c:	2e707520 	.word	0x2e707520
    9830:	00000d0a 	.word	0x00000d0a
    9834:	20646e41 	.word	0x20646e41
    9838:	7473616c 	.word	0x7473616c
    983c:	7020796c 	.word	0x7020796c
    9840:	7361656c 	.word	0x7361656c
    9844:	6c702065 	.word	0x6c702065
    9848:	20656361 	.word	0x20656361
    984c:	20656874 	.word	0x20656874
    9850:	736e6573 	.word	0x736e6573
    9854:	6620726f 	.word	0x6620726f
    9858:	2074616c 	.word	0x2074616c
    985c:	68746977 	.word	0x68746977
    9860:	70205a20 	.word	0x70205a20
    9864:	746e696f 	.word	0x746e696f
    9868:	20676e69 	.word	0x20676e69
    986c:	0a2e7075 	.word	0x0a2e7075
    9870:	0000000d 	.word	0x0000000d
    9874:	736e6553 	.word	0x736e6553
    9878:	6320726f 	.word	0x6320726f
    987c:	62696c61 	.word	0x62696c61
    9880:	65746172 	.word	0x65746172
    9884:	58202164 	.word	0x58202164
    9888:	3a473020 	.word	0x3a473020
    988c:	332e2520 	.word	0x332e2520
    9890:	47312066 	.word	0x47312066
    9894:	2e25203a 	.word	0x2e25203a
    9898:	20206633 	.word	0x20206633
    989c:	47302059 	.word	0x47302059
    98a0:	2e25203a 	.word	0x2e25203a
    98a4:	31206633 	.word	0x31206633
    98a8:	25203a47 	.word	0x25203a47
    98ac:	2066332e 	.word	0x2066332e
    98b0:	30205a20 	.word	0x30205a20
    98b4:	25203a47 	.word	0x25203a47
    98b8:	2066332e 	.word	0x2066332e
    98bc:	203a4731 	.word	0x203a4731
    98c0:	66332e25 	.word	0x66332e25
    98c4:	000d0a20 	.word	0x000d0a20
    98c8:	736e6553 	.word	0x736e6553
    98cc:	6320726f 	.word	0x6320726f
    98d0:	62696c61 	.word	0x62696c61
    98d4:	65746172 	.word	0x65746172
    98d8:	69772064 	.word	0x69772064
    98dc:	73206874 	.word	0x73206874
    98e0:	64657661 	.word	0x64657661
    98e4:	6c617620 	.word	0x6c617620
    98e8:	21736575 	.word	0x21736575
    98ec:	65725020 	.word	0x65725020
    98f0:	62207373 	.word	0x62207373
    98f4:	6f747475 	.word	0x6f747475
    98f8:	7564206e 	.word	0x7564206e
    98fc:	676e6972 	.word	0x676e6972
    9900:	61747320 	.word	0x61747320
    9904:	74207472 	.word	0x74207472
    9908:	6572206f 	.word	0x6572206f
    990c:	696c6163 	.word	0x696c6163
    9910:	74617262 	.word	0x74617262
    9914:	58202165 	.word	0x58202165
    9918:	3a473020 	.word	0x3a473020
    991c:	332e2520 	.word	0x332e2520
    9920:	47312066 	.word	0x47312066
    9924:	2e25203a 	.word	0x2e25203a
    9928:	20206633 	.word	0x20206633
    992c:	47302059 	.word	0x47302059
    9930:	2e25203a 	.word	0x2e25203a
    9934:	31206633 	.word	0x31206633
    9938:	25203a47 	.word	0x25203a47
    993c:	2066332e 	.word	0x2066332e
    9940:	30205a20 	.word	0x30205a20
    9944:	25203a47 	.word	0x25203a47
    9948:	2066332e 	.word	0x2066332e
    994c:	203a4731 	.word	0x203a4731
    9950:	66332e25 	.word	0x66332e25
    9954:	000d0a20 	.word	0x000d0a20

00009958 <inputs.13452>:
    9958:	06050400 25203a58 2066332e 25203a59     ....X: %.3f Y: %
    9968:	2066332e 25203a5a 0066332e 00000a3e     .3f Z: %.3f.>...
    9978:	00000a36 00000a46 00000a4e 00000a58     6...F...N...X...
    9988:	00000a62                                b...

0000998c <DISPLAY1.13472>:
    998c:	4f5b063f 077d6d66 0000677f              ?.[Ofm}..g..

00009998 <tc_interrupt_vectors.13402>:
    9998:	00141312 00001276 000014c0 000014c0     ....v...........
    99a8:	000014c0 000014c0 000014c0 000014c0     ................
    99b8:	000014c0 000014c0 000014c0 000014c0     ................
    99c8:	000014c0 000014c0 000014c0 000014c0     ................
    99d8:	000014c0 0000125e 000014c0 000014c0     ....^...........
    99e8:	000014c0 000014c0 000014c0 000014c0     ................
    99f8:	000014c0 000014c0 000014c0 000014c0     ................
    9a08:	000014c0 000014c0 000014c0 000014c0     ................
    9a18:	000014c0 0000126e 000014c0 000014c0     ....n...........
    9a28:	000014c0 000014c0 000014c0 000014c0     ................
    9a38:	000014c0 000014c0 000014c0 000014c0     ................
    9a48:	000014c0 000014c0 000014c0 000014c0     ................
    9a58:	000014c0 00001266 00001246 0000127e     ....f...F...~...
    9a68:	00001256 0000124e 00000002 00000003     V...N...........
    9a78:	0000ffff 0000ffff 00000004 00000005     ................
    9a88:	00000006 00000007 0000ffff 0000ffff     ................
    9a98:	0000ffff 0000ffff 0000ffff 0000ffff     ................
    9aa8:	0000ffff 0000ffff 00000008 00000009     ................
    9ab8:	0000000a 0000000b 00001716 00001716     ................
    9ac8:	000016f2 00001716 000016f2 000016de     ................
    9ad8:	000016de 00001716 00001716 00001716     ................
    9ae8:	00001716 00001716 00001716 00001716     ................
    9af8:	00001716 00001716 00001716 00001716     ................
    9b08:	00001716 00001716 00001716 00001716     ................
    9b18:	00001716 00001716 00001716 00001716     ................
    9b28:	00001716 00001716 00001716 00001716     ................
    9b38:	00001716 00001716 00001716 00001716     ................
    9b48:	00001716 00001716 00001716 00001716     ................
    9b58:	00001716 00001716 00001716 00001716     ................
    9b68:	00001716 00001716 00001716 00001716     ................
    9b78:	00001716 00001716 00001716 00001716     ................
    9b88:	00001716 00001716 00001716 00001716     ................
    9b98:	00001716 00001716 00001716 00001716     ................
    9ba8:	00001716 00001716 00001716 00001716     ................
    9bb8:	00001716 00001716 000016f2 000016f2     ................
    9bc8:	000016fa 000016fa 000016fa 000016fa     ................
    9bd8:	42000800 42000c00 42001000 42001400     ...B...B...B...B
    9be8:	0c0b0a09 00002830 0000288c 0000288c     ....0(...(...(..
    9bf8:	0000282a 0000282a 00002846 00002836     *(..*(..F(..6(..
    9c08:	0000284c 0000287a 00002994 00002a00     L(..z(...)...*..
    9c18:	00002a00 00002974 00002986 000029a2     .*..t)...)...)..
    9c28:	00002978 000029b0 000029f0 42002c00     x)...)...)...,.B
    9c38:	42003000 42003400 001c1c1b 10000800     .0.B.4.B........
    9c48:	00002000 41744545 50524f4d 456d752e     . ..EEtAMORP.umE
    9c58:	61550d0a 20307472 74696e69 000d0a21     ..Uart0 init!...

00009c68 <atanlo>:
    9c68:	222f65e2 3c7a2b7f 33145c07 3c81a626     .e/".+z<.\.3&..<
    9c78:	7af0cbbd 3c700788 33145c07 3c91a626     ...z..p<.\.3&..<

00009c88 <atanhi>:
    9c88:	0561bb4f 3fddac67 54442d18 3fe921fb     O.a.g..?.-DT.!.?
    9c98:	d281f69b 3fef730b 54442d18 3ff921fb     .....s.?.-DT.!.?
    9ca8:	74727173 00000000 00000043              sqrt....C...

00009cb4 <_global_impure_ptr>:
    9cb4:	20000010 2b302d23 6c680020 6665004c     ... #-0+ .hlL.ef
    9cc4:	47464567 464e4900 666e6900 4e414e00     gEFG.INF.inf.NAN
    9cd4:	6e616e00 30003000 34333231 38373635     .nan.0.012345678
    9ce4:	43424139 00464544 33323130 37363534     9ABCDEF.01234567
    9cf4:	62613938 66656463 666e4900 74696e69     89abcdef.Infinit
    9d04:	614e0079 0000004e                       y.NaN...

00009d0c <__sf_fake_stdin>:
	...

00009d2c <__sf_fake_stdout>:
	...

00009d4c <__sf_fake_stderr>:
	...
    9d6c:	49534f50 002e0058 00000000              POSIX.......

00009d78 <__mprec_tens>:
    9d78:	00000000 3ff00000 00000000 40240000     .......?......$@
    9d88:	00000000 40590000 00000000 408f4000     ......Y@.....@.@
    9d98:	00000000 40c38800 00000000 40f86a00     .......@.....j.@
    9da8:	00000000 412e8480 00000000 416312d0     .......A......cA
    9db8:	00000000 4197d784 00000000 41cdcd65     .......A....e..A
    9dc8:	20000000 4202a05f e8000000 42374876     ... _..B....vH7B
    9dd8:	a2000000 426d1a94 e5400000 42a2309c     ......mB..@..0.B
    9de8:	1e900000 42d6bcc4 26340000 430c6bf5     .......B..4&.k.C
    9df8:	37e08000 4341c379 85d8a000 43763457     ...7y.AC....W4vC
    9e08:	674ec800 43abc16d 60913d00 43e158e4     ..Ngm..C.=.`.X.C
    9e18:	78b58c40 4415af1d d6e2ef50 444b1ae4     @..x...DP.....KD
    9e28:	064dd592 4480f0cf c7e14af6 44b52d02     ..M....D.J...-.D
    9e38:	79d99db4 44ea7843                       ...yCx.D

00009e40 <__mprec_bigtens>:
    9e40:	37e08000 4341c379 b5056e17 4693b8b5     ...7y.AC.n.....F
    9e50:	e93ff9f5 4d384f03 f9301d32 5a827748     ..?..O8M2.0.Hw.Z
    9e60:	7f73bf3c 75154fdd                       <.s..O.u

00009e68 <p05.5281>:
    9e68:	00000005 00000019 0000007d 00007024     ........}...$p..
    9e78:	00006fd6 00007004 00006f5e 00007004     .o...p..^o...p..
    9e88:	00006ffa 00007004 00006f5e 00006fd6     .o...p..^o...o..
    9e98:	00006fd6 00006ffa 00006f5e 00006f56     .o...o..^o..Vo..
    9ea8:	00006f56 00006f56 0000700a 000073c8     Vo..Vo...p...s..
    9eb8:	000073c2 000073c2 000073b8 00007318     .s...s...s...s..
    9ec8:	00007318 000073ae 000073b8 00007318     .s...s...s...s..
    9ed8:	000073ae 00007318 000073b8 00007316     .s...s...s...s..
    9ee8:	00007316 00007316 00007450 000081a4     .s...s..Pt......
    9ef8:	00008140 00008188 0000806e 00008188     @.......n.......
    9f08:	0000817c 00008188 0000806e 00008140     |.......n...@...
    9f18:	00008140 0000817c 0000806e 00008064     @...|...n...d...
    9f28:	00008064 00008064 000083c8 00008a74     d...d.......t...
    9f38:	00008c62 00008c62 00008a54 0000893e     b...b...T...>...
    9f48:	0000893e 00008a46 00008a54 0000893e     >...F...T...>...
    9f58:	00008a46 0000893e 00008a54 0000893c     F...>...T...<...
    9f68:	0000893c 0000893c 00008c6a              <...<...j...

00009f74 <_init>:
    9f74:	b5f8      	push	{r3, r4, r5, r6, r7, lr}
    9f76:	46c0      	nop			; (mov r8, r8)
    9f78:	bcf8      	pop	{r3, r4, r5, r6, r7}
    9f7a:	bc08      	pop	{r3}
    9f7c:	469e      	mov	lr, r3
    9f7e:	4770      	bx	lr

00009f80 <__init_array_start>:
    9f80:	000000d9 	.word	0x000000d9

00009f84 <_fini>:
    9f84:	b5f8      	push	{r3, r4, r5, r6, r7, lr}
    9f86:	46c0      	nop			; (mov r8, r8)
    9f88:	bcf8      	pop	{r3, r4, r5, r6, r7}
    9f8a:	bc08      	pop	{r3}
    9f8c:	469e      	mov	lr, r3
    9f8e:	4770      	bx	lr

00009f90 <__fini_array_start>:
    9f90:	000000b1 	.word	0x000000b1
